 game_shader_generic_deferred

 Timestamp is 500acbc5 (Sat Jul 21 17:33:25 2012)

 Preferred load address is 10000000

 Start         Length     Name                   Class
 0001:00000000 00067cfaH .textbss                DATA
 0002:00000000 000d09dbH .text                   CODE
 0002:000d09e0 0000112dH .text$x                 CODE
 0002:000d1b10 0000746cH .text$yc                CODE
 0002:000d8f80 00001839H .text$yd                CODE
 0003:00000000 00000104H .CRT$XCA                DATA
 0003:00000104 0000059aH .CRT$XCU                DATA
 0003:000006a0 00000104H .CRT$XCZ                DATA
 0003:000007a4 00000104H .CRT$XIA                DATA
 0003:000008a8 00000118H .CRT$XIC                DATA
 0003:000009c0 00000104H .CRT$XIZ                DATA
 0003:00000ac4 00000104H .CRT$XPA                DATA
 0003:00000bc8 00000109H .CRT$XPX                DATA
 0003:00000cd4 00000104H .CRT$XPXA               DATA
 0003:00000dd8 00000104H .CRT$XPZ                DATA
 0003:00000edc 00000104H .CRT$XTA                DATA
 0003:00000fe0 00000104H .CRT$XTZ                DATA
 0003:000010f0 0002c196H .rdata                  DATA
 0003:0002d288 0000019eH .rdata$debug            DATA
 0003:0002d428 000012d7H .rdata$r                DATA
 0003:0002e700 00000104H .rtc$IAA                DATA
 0003:0002e804 00000104H .rtc$IMZ                DATA
 0003:0002e908 00000104H .rtc$IZZ                DATA
 0003:0002ea0c 00000104H .rtc$TAA                DATA
 0003:0002eb10 00000104H .rtc$TMZ                DATA
 0003:0002ec14 00000104H .rtc$TZZ                DATA
 0003:0002ed18 0000105aH .xdata$x                DATA
 0003:0002fd80 00000176H .edata                  DATA
 0004:00000000 0000372aH .data                   DATA
 0004:00003740 00018afcH .bss                    DATA
 0005:00000000 00000028H .idata$2                DATA
 0005:00000028 00000014H .idata$3                DATA
 0005:0000003c 0000027cH .idata$4                DATA
 0005:000002b8 0000027cH .idata$5                DATA
 0005:00000534 00000a8eH .idata$6                DATA

  Address         Publics by Value              Rva+Base       Lib:Object

 0000:00000000       ___safe_se_handler_count   00000000     <absolute>
 0000:00000000       __except_list              00000000     <absolute>
 0000:00000000       ___safe_se_handler_table   00000000     <absolute>
 0000:00000000       ___ImageBase               10000000     <linker-defined>
 0001:00000000       __enc$textbss$begin        10001000     <linker-defined>
 0001:00067cfa       __enc$textbss$end          10068cfa     <linker-defined>
 0002:00007b70       ??_H@YGXPAXIHP6EPAX0@Z@Z   10070b70 f i BaseVSShader.obj
 0002:00007be0       ?SetPixelShaderConstant@CBaseVSShader@@QAEXHHH@Z 10070be0 f   BaseVSShader.obj
 0002:00007fc0       ?GetType@IMaterialVar@@QBE?AW4MaterialVarType_t@@XZ 10070fc0 f i BaseVSShader.obj
 0002:00008010       ?GetFloatValue@IMaterialVar@@QBEMXZ 10071010 f i BaseVSShader.obj
 0002:00008060       ?GetFloatValueFast@IMaterialVar@@QBEMXZ 10071060 f i BaseVSShader.obj
 0002:000080c0       ??AVector4D@@QBEMH@Z       100710c0 f i BaseVSShader.obj
 0002:00008200       ?GetVecValue@IMaterialVar@@QBEXPAMH@Z 10071200 f i BaseVSShader.obj
 0002:00008260       ?GetVecValueFast@IMaterialVar@@QBEXPAMH@Z 10071260 f i BaseVSShader.obj
 0002:000083c0       ?IsSnapshotting@CBaseShader@@QBE_NXZ 100713c0 f i BaseVSShader.obj
 0002:00008410       ?SetPixelShaderConstantGammaToLinear@CBaseVSShader@@QAEXHHH@Z 10071410 f   BaseVSShader.obj
 0002:000088b0       ?SetPixelShaderConstant_W@CBaseVSShader@@QAEXHHM@Z 100718b0 f   BaseVSShader.obj
 0002:00008ba0       ?SetPixelShaderConstant@CBaseVSShader@@QAEXHH@Z 10071ba0 f   BaseVSShader.obj
 0002:00008e80       ?SetPixelShaderConstantGammaToLinear@CBaseVSShader@@QAEXHH@Z 10071e80 f   BaseVSShader.obj
 0002:00009230       ?SetVertexShaderConstantGammaToLinear@CBaseVSShader@@QAEXHPBMH_N@Z 10072230 f   BaseVSShader.obj
 0002:00009460       ?SetPixelShaderConstantGammaToLinear@CBaseVSShader@@QAEXHPBMH_N@Z 10072460 f   BaseVSShader.obj
 0002:00009690       ?SetPixelShaderConstantFudge@CBaseVSShader@@QAEXHH@Z 10072690 f   BaseVSShader.obj
 0002:000099e0       ?SetVertexShaderConstant@CBaseVSShader@@QAEXHH@Z 100729e0 f   BaseVSShader.obj
 0002:00009cc0       ?SetVertexShaderTextureTranslation@CBaseVSShader@@QAEXHH@Z 10072cc0 f   BaseVSShader.obj
 0002:00009e60       ??0Vector4D@@QAE@XZ        10072e60 f i BaseVSShader.obj
 0002:00009f00       ?BitsToFloat@@YAMI@Z       10072f00 f i BaseVSShader.obj
 0002:00009f70       ?Init@Vector4D@@QAEXMMMM@Z 10072f70 f i BaseVSShader.obj
 0002:0000a0d0       ?Base@Vector4D@@QAEPAMXZ   100730d0 f i BaseVSShader.obj
 0002:0000a110       ?IsValid@Vector4D@@QBE_NXZ 10073110 f i BaseVSShader.obj
 0002:0000a1f0       ?IsFinite@@YA_NABM@Z       100731f0 f i BaseVSShader.obj
 0002:0000a260       ?FloatBits@@YA?BIABM@Z     10073260 f i BaseVSShader.obj
 0002:0000a2e0       ?SetVertexShaderTextureScale@CBaseVSShader@@QAEXHH@Z 100732e0 f   BaseVSShader.obj
 0002:0000a4b0       ?SetVertexShaderTextureTransform@CBaseVSShader@@QAEXHH@Z 100734b0 f   BaseVSShader.obj
 0002:0000a6f0       ??AVMatrix@@QBEPBMH@Z      100736f0 f i BaseVSShader.obj
 0002:0000a740       ?SetVertexShaderTextureScaledTransform@CBaseVSShader@@QAEXHHH@Z 10073740 f   BaseVSShader.obj
 0002:0000aba0       ??0Vector2D@@QAE@MM@Z      10073ba0 f i BaseVSShader.obj
 0002:0000acf0       ??AVector2D@@QAEAAMH@Z     10073cf0 f i BaseVSShader.obj
 0002:0000ae30       ?Base@Vector2D@@QAEPAMXZ   10073e30 f i BaseVSShader.obj
 0002:0000ae70       ?IsValid@Vector2D@@QBE_NXZ 10073e70 f i BaseVSShader.obj
 0002:0000af10       ??AVector4D@@QAEAAMH@Z     10073f10 f i BaseVSShader.obj
 0002:0000b050       ?SetPixelShaderTextureTranslation@CBaseVSShader@@QAEXHH@Z 10074050 f   BaseVSShader.obj
 0002:0000b1f0       ?SetPixelShaderTextureScale@CBaseVSShader@@QAEXHH@Z 100741f0 f   BaseVSShader.obj
 0002:0000b3c0       ?SetPixelShaderTextureTransform@CBaseVSShader@@QAEXHH@Z 100743c0 f   BaseVSShader.obj
 0002:0000b600       ?SetPixelShaderTextureScaledTransform@CBaseVSShader@@QAEXHHH@Z 10074600 f   BaseVSShader.obj
 0002:0000ba60       ?SetVertexShaderMatrix3x4@CBaseVSShader@@QAEXHH@Z 10074a60 f   BaseVSShader.obj
 0002:0000bbb0       ??AVMatrix@@QAEPAMH@Z      10074bb0 f i BaseVSShader.obj
 0002:0000bc00       ??0VMatrix@@QAE@XZ         10074c00 f i BaseVSShader.obj
 0002:0000bc40       ?SetVertexShaderMatrix4x4@CBaseVSShader@@QAEXHH@Z 10074c40 f   BaseVSShader.obj
 0002:0000bd90       ?LoadViewMatrixIntoVertexShaderConstant@CBaseVSShader@@QAEXH@Z 10074d90 f   BaseVSShader.obj
 0002:0000bec0       ?LoadProjectionMatrixIntoVertexShaderConstant@CBaseVSShader@@QAEXH@Z 10074ec0 f   BaseVSShader.obj
 0002:0000bff0       ?LoadModelViewMatrixIntoVertexShaderConstant@CBaseVSShader@@QAEXH@Z 10074ff0 f   BaseVSShader.obj
 0002:0000c1e0       ?LoadBumpLightmapCoordinateAxes_PixelShader@CBaseVSShader@@QAEXH@Z 100751e0 f   BaseVSShader.obj
 0002:0000c310       ?LoadBumpLightmapCoordinateAxes_VertexShader@CBaseVSShader@@QAEXH@Z 10075310 f   BaseVSShader.obj
 0002:0000c560       ??ATableVector@@QBEMH@Z    10075560 f i BaseVSShader.obj
 0002:0000c690       ?EnablePixelShaderOverbright@CBaseVSShader@@QAEXH_N0@Z 10075690 f   BaseVSShader.obj
 0002:0000c7e0       ?ColorVarsToVector@CBaseVSShader@@AAEXHHAAVVector4D@@@Z 100757e0 f   BaseVSShader.obj
 0002:0000c980       ?SetColorVertexShaderConstant@CBaseVSShader@@QAEXHHH@Z 10075980 f   BaseVSShader.obj
 0002:0000ca60       ?SetColorPixelShaderConstant@CBaseVSShader@@QAEXHHH@Z 10075a60 f   BaseVSShader.obj
 0002:0000cb40       ?SetEnvMapTintPixelShaderDynamicState@CBaseVSShader@@QAEXHHH_N@Z 10075b40 f   BaseVSShader.obj
 0002:0000ce10       ?GetFloat@ConVar@@QBEMXZ   10075e10 f i BaseVSShader.obj
 0002:0000ce50       ?GetInt@ConVar@@QBEHXZ     10075e50 f i BaseVSShader.obj
 0002:0000ce90       ?SetHWMorphVertexShaderState@CBaseVSShader@@QAEXHHW4VertexTextureSampler_t@@@Z 10075e90 f   BaseVSShader.obj
 0002:0000d190       ?SetHWMorphVertexShaderState_NoTex@CBaseVSShader@@QAEXHH@Z 10076190 f   BaseVSShader.obj
 0002:0000d460       ?EvaluateBlendRequirements@CBaseVSShader@@QAE?AW4BlendType_t@@H_NH@Z 10076460 f   BaseVSShader.obj
 0002:0000d5c0       ?CurrentMaterialVarFlags@CBaseShader@@QBEHXZ 100765c0 f i BaseVSShader.obj
 0002:0000d620       ?GetIntValue@IMaterialVar@@QBEHXZ 10076620 f i BaseVSShader.obj
 0002:0000d670       ?GetIntValueFast@IMaterialVar@@QBEHXZ 10076670 f i BaseVSShader.obj
 0002:0000d6b0       ?SetFlashlightVertexShaderConstants@CBaseVSShader@@QAEX_NH0H0@Z 100766b0 f   BaseVSShader.obj
 0002:0000da10       ??AVector@@QBEMH@Z         10076a10 f i BaseVSShader.obj
 0002:0000db50       ?Base@VMatrix@@QAEPAMXZ    10076b50 f i BaseVSShader.obj
 0002:0000db90       ?HashShadow2DJitter@CBaseVSShader@@QAEXMPAM0@Z 10076b90 f   BaseVSShader.obj
 0002:0000dc60       ?fmod@@YAMMM@Z             10076c60 f i BaseVSShader.obj
 0002:0000dcc0       _fmodf                     10076cc0 f i BaseVSShader.obj
 0002:0000dd30       ?DrawEqualDepthToDestAlpha@CBaseVSShader@@QAEXXZ 10076d30 f   BaseVSShader.obj
 0002:0000df70       ?SupportsPixelShaders_2_b@IMaterialSystemHardwareConfig@@QBE_NXZ 10076f70 f i BaseVSShader.obj
 0002:0000dfe0       ??0Color@@QAE@HHHH@Z       10076fe0 f i BaseVSShader.obj
 0002:0000e050       ?SetColor@Color@@QAEXHHHH@Z 10077050 f i BaseVSShader.obj
 0002:0000e0c0       ??0Vector4D@@QAE@MMMM@Z    100770c0 f i BaseVSShader.obj
 0002:0000e220       ??0?$CUtlVector@PAVCShaderParam@GAUSSIAN_BLUR_6@@V?$CUtlMemory@PAVCShaderParam@GAUSSIAN_BLUR_6@@H@@@@QAE@HH@Z 10077220 f i blur.obj
 0002:0000e2a0       ?ResetDbgInfo@?$CUtlVector@PAVCShaderParam@GAUSSIAN_BLUR_6@@V?$CUtlMemory@PAVCShaderParam@GAUSSIAN_BLUR_6@@H@@@@IAEXXZ 100772a0 f i blur.obj
 0002:0000e300       ?Base@?$CUtlVector@PAVCShaderParam@GAUSSIAN_BLUR_6@@V?$CUtlMemory@PAVCShaderParam@GAUSSIAN_BLUR_6@@H@@@@QAEPAPAVCShaderParam@GAUSSIAN_BLUR_6@@XZ 10077300 f i blur.obj
 0002:0000e350       ??0?$CUtlMemory@PAVCShaderParam@GAUSSIAN_BLUR_6@@H@@QAE@HH@Z 10077350 f i blur.obj
 0002:0000e540       ?MemAlloc_Alloc@@YAPAXIPBDH@Z 10077540 f i blur.obj
 0002:0000e5a0       ?IndirectAlloc@IMemAlloc@@QAEPAXIPBDH@Z 100775a0 f i blur.obj
 0002:0000e610       ??0CMemAllocAttributeAlloction@@QAE@PBDH@Z 10077610 f i blur.obj
 0002:0000e690       ??1CMemAllocAttributeAlloction@@QAE@XZ 10077690 f i blur.obj
 0002:0000e700       ?Base@?$CUtlMemory@PAVCShaderParam@GAUSSIAN_BLUR_6@@H@@QAEPAPAVCShaderParam@GAUSSIAN_BLUR_6@@XZ 10077700 f i blur.obj
 0002:0000e820       ?ValidateGrowSize@?$CUtlMemory@PAVCShaderParam@GAUSSIAN_BLUR_6@@H@@IAEXXZ 10077820 f i blur.obj
 0002:0000e860       ?IsReadOnly@?$CUtlMemory@PAVCShaderParam@GAUSSIAN_BLUR_6@@H@@QBE_NXZ 10077860 f i blur.obj
 0002:0000e8b0       ??$MemAllocClassName@V?$CUtlMemory@PAVCShaderParam@GAUSSIAN_BLUR_6@@H@@@@YAPBDPAV?$CUtlMemory@PAVCShaderParam@GAUSSIAN_BLUR_6@@H@@@Z 100778b0 f i blur.obj
 0002:0000e930       ??0CShaderParam@GAUSSIAN_BLUR_6@@QAE@PBDW4ShaderParamType_t@@00H@Z 10077930 f i blur.obj
 0002:0000e9f0       ?Count@?$CUtlVector@PAVCShaderParam@GAUSSIAN_BLUR_6@@V?$CUtlMemory@PAVCShaderParam@GAUSSIAN_BLUR_6@@H@@@@QBEHXZ 100779f0 f i blur.obj
 0002:0000ea30       ?AddToTail@?$CUtlVector@PAVCShaderParam@GAUSSIAN_BLUR_6@@V?$CUtlMemory@PAVCShaderParam@GAUSSIAN_BLUR_6@@H@@@@QAEHABQAVCShaderParam@GAUSSIAN_BLUR_6@@@Z 10077a30 f i blur.obj
 0002:0000eba0       ?InsertBefore@?$CUtlVector@PAVCShaderParam@GAUSSIAN_BLUR_6@@V?$CUtlMemory@PAVCShaderParam@GAUSSIAN_BLUR_6@@H@@@@QAEHHABQAVCShaderParam@GAUSSIAN_BLUR_6@@@Z 10077ba0 f i blur.obj
 0002:0000ee20       ?Element@?$CUtlVector@PAVCShaderParam@GAUSSIAN_BLUR_6@@V?$CUtlMemory@PAVCShaderParam@GAUSSIAN_BLUR_6@@H@@@@QAEAAPAVCShaderParam@GAUSSIAN_BLUR_6@@H@Z 10077e20 f i blur.obj
 0002:0000ef50       ??A?$CUtlMemory@PAVCShaderParam@GAUSSIAN_BLUR_6@@H@@QAEAAPAVCShaderParam@GAUSSIAN_BLUR_6@@H@Z 10077f50 f i blur.obj
 0002:0000f150       ?IsValidIndex@?$CUtlVector@PAVCShaderParam@GAUSSIAN_BLUR_6@@V?$CUtlMemory@PAVCShaderParam@GAUSSIAN_BLUR_6@@H@@@@QBE_NH@Z 10078150 f i blur.obj
 0002:0000f1c0       ?GrowVector@?$CUtlVector@PAVCShaderParam@GAUSSIAN_BLUR_6@@V?$CUtlMemory@PAVCShaderParam@GAUSSIAN_BLUR_6@@H@@@@IAEXH@Z 100781c0 f i blur.obj
 0002:0000f2e0       ?ShiftElementsRight@?$CUtlVector@PAVCShaderParam@GAUSSIAN_BLUR_6@@V?$CUtlMemory@PAVCShaderParam@GAUSSIAN_BLUR_6@@H@@@@IAEXHH@Z 100782e0 f i blur.obj
 0002:0000f480       ??$CopyConstruct@PAVCShaderParam@GAUSSIAN_BLUR_6@@@@YAPAPAVCShaderParam@GAUSSIAN_BLUR_6@@PAPAV01@ABQAV01@@Z 10078480 f i blur.obj
 0002:0000f520       ??2@YAPAXIPAX@Z            10078520 f i blur.obj
 0002:0000f560       ?IsIdxValid@?$CUtlMemory@PAVCShaderParam@GAUSSIAN_BLUR_6@@H@@QBE_NH@Z 10078560 f i blur.obj
 0002:0000f5e0       ?NumAllocated@?$CUtlMemory@PAVCShaderParam@GAUSSIAN_BLUR_6@@H@@QBEHXZ 100785e0 f i blur.obj
 0002:0000f620       ?Grow@?$CUtlMemory@PAVCShaderParam@GAUSSIAN_BLUR_6@@H@@QAEXH@Z 10078620 f i blur.obj
 0002:0000fc90       ?UtlMemory_CalcNewAllocationCount@@YAHHHHH@Z 10078c90 f i blur.obj
 0002:0000fd20       ?IsExternallyAllocated@?$CUtlMemory@PAVCShaderParam@GAUSSIAN_BLUR_6@@H@@QBE_NXZ 10078d20 f i blur.obj
 0002:0000fd70       ??$MemAllocClassName@V?$CUtlVector@PAVCShaderParam@GAUSSIAN_BLUR_6@@V?$CUtlMemory@PAVCShaderParam@GAUSSIAN_BLUR_6@@H@@@@@@YAPBDPAV?$CUtlVector@PAVCShaderParam@GAUSSIAN_BLUR_6@@V?$CUtlMemory@PAVCShaderParam@GAUSSIAN_BLUR_6@@H@@@@@Z 10078d70 f i blur.obj
 0002:0000fdf0       ??0CShader@GAUSSIAN_BLUR_6@@QAE@XZ 10078df0 f i blur.obj
 0002:0000fe50       ?OnInitShaderParams@CShader@GAUSSIAN_BLUR_6@@UAEXPAPAVIMaterialVar@@PBD@Z 10078e50 f i blur.obj
 0002:0000fe90       ?GetName@CShader@GAUSSIAN_BLUR_6@@UBEPBDXZ 10078e90 f i blur.obj
 0002:0000fed0       ?GetFlags@CShader@GAUSSIAN_BLUR_6@@UBEHXZ 10078ed0 f i blur.obj
 0002:0000ff10       ?GetParamCount@CShader@GAUSSIAN_BLUR_6@@UBEHXZ 10078f10 f i blur.obj
 0002:0000ff70       ?GetParamInfo@CShader@GAUSSIAN_BLUR_6@@UBEABUShaderParamInfo_t@@H@Z 10078f70 f i blur.obj
 0002:00010010       ?GetInfo@CShaderParam@GAUSSIAN_BLUR_6@@QBEABUShaderParamInfo_t@@XZ 10079010 f i blur.obj
 0002:00010050       ?OnInitShaderInstance@CShader@GAUSSIAN_BLUR_6@@UAEXPAPAVIMaterialVar@@PAVIShaderInit@@PBD@Z 10079050 f i blur.obj
 0002:000101c0       ?GetFallbackShader@CShader@GAUSSIAN_BLUR_6@@UBEPBDPAPAVIMaterialVar@@@Z 100791c0 f i blur.obj
 0002:00010200       ?OnDrawElements@CShader@GAUSSIAN_BLUR_6@@UAEXPAPAVIMaterialVar@@PAVIShaderShadow@@PAVIShaderDynamicAPI@@W4VertexCompressionType_t@@PAPAVCBasePerMaterialContextData@@@Z 10079200 f i blur.obj
 0002:00010770       ??0screenspace_vs30_Static_Index@@QAE@PAVIShaderShadow@@PAPAVIMaterialVar@@@Z 10079770 f i blur.obj
 0002:000107b0       ?GetIndex@screenspace_vs30_Static_Index@@QAEHXZ 100797b0 f i blur.obj
 0002:000107f0       ??0screenspace_vs30_Dynamic_Index@@QAE@PAVIShaderDynamicAPI@@@Z 100797f0 f i blur.obj
 0002:00010830       ?GetIndex@screenspace_vs30_Dynamic_Index@@QAEHXZ 10079830 f i blur.obj
 0002:00010870       ??0gaussianblur_6_ps30_Static_Index@@QAE@PAVIShaderShadow@@PAPAVIMaterialVar@@@Z 10079870 f i blur.obj
 0002:000108b0       ?GetIndex@gaussianblur_6_ps30_Static_Index@@QAEHXZ 100798b0 f i blur.obj
 0002:000108f0       ??0gaussianblur_6_ps30_Dynamic_Index@@QAE@PAVIShaderDynamicAPI@@@Z 100798f0 f i blur.obj
 0002:00010930       ?GetIndex@gaussianblur_6_ps30_Dynamic_Index@@QAEHXZ 10079930 f i blur.obj
 0002:00010970       ??BCShaderParam@GAUSSIAN_BLUR_6@@QAEHXZ 10079970 f i blur.obj
 0002:000109b0       ??0CBaseVSShader@@QAE@XZ   100799b0 f i blur.obj
 0002:00010a10       ?GetFallbackShader@CBaseShader@@UBEPBDPAPAVIMaterialVar@@@Z 10079a10 f i blur.obj
 0002:00010a50       ?OnInitShaderParams@CBaseShader@@UAEXPAPAVIMaterialVar@@PBD@Z 10079a50 f i blur.obj
 0002:00010a90       ??A?$CUtlVector@PAVCShaderParam@GAUSSIAN_BLUR_6@@V?$CUtlMemory@PAVCShaderParam@GAUSSIAN_BLUR_6@@H@@@@QAEAAPAVCShaderParam@GAUSSIAN_BLUR_6@@H@Z 10079a90 f i blur.obj
 0002:00010bc0       ??1?$CUtlVector@PAVCShaderParam@GAUSSIAN_BLUR_6@@V?$CUtlMemory@PAVCShaderParam@GAUSSIAN_BLUR_6@@H@@@@QAE@XZ 10079bc0 f i blur.obj
 0002:00010c20       ?Purge@?$CUtlVector@PAVCShaderParam@GAUSSIAN_BLUR_6@@V?$CUtlMemory@PAVCShaderParam@GAUSSIAN_BLUR_6@@H@@@@QAEXXZ 10079c20 f i blur.obj
 0002:00010c90       ??1?$CUtlMemory@PAVCShaderParam@GAUSSIAN_BLUR_6@@H@@QAE@XZ 10079c90 f i blur.obj
 0002:00010ce0       ?RemoveAll@?$CUtlVector@PAVCShaderParam@GAUSSIAN_BLUR_6@@V?$CUtlMemory@PAVCShaderParam@GAUSSIAN_BLUR_6@@H@@@@QAEXXZ 10079ce0 f i blur.obj
 0002:00010d70       ?Purge@?$CUtlMemory@PAVCShaderParam@GAUSSIAN_BLUR_6@@H@@QAEXXZ 10079d70 f i blur.obj
 0002:00010e20       ??$Destruct@PAVCShaderParam@GAUSSIAN_BLUR_6@@@@YAXPAPAVCShaderParam@GAUSSIAN_BLUR_6@@@Z 10079e20 f i blur.obj
 0002:00010e80       ??0?$CUtlVector@PAVCShaderParam@DEBUG_LIGHTING_CTRL@@V?$CUtlMemory@PAVCShaderParam@DEBUG_LIGHTING_CTRL@@H@@@@QAE@HH@Z 10079e80 f i debug_lightingctrl.obj
 0002:00010f00       ?ResetDbgInfo@?$CUtlVector@PAVCShaderParam@DEBUG_LIGHTING_CTRL@@V?$CUtlMemory@PAVCShaderParam@DEBUG_LIGHTING_CTRL@@H@@@@IAEXXZ 10079f00 f i debug_lightingctrl.obj
 0002:00010f60       ?Base@?$CUtlVector@PAVCShaderParam@DEBUG_LIGHTING_CTRL@@V?$CUtlMemory@PAVCShaderParam@DEBUG_LIGHTING_CTRL@@H@@@@QAEPAPAVCShaderParam@DEBUG_LIGHTING_CTRL@@XZ 10079f60 f i debug_lightingctrl.obj
 0002:00010fb0       ??0?$CUtlMemory@PAVCShaderParam@DEBUG_LIGHTING_CTRL@@H@@QAE@HH@Z 10079fb0 f i debug_lightingctrl.obj
 0002:000111a0       ?Base@?$CUtlMemory@PAVCShaderParam@DEBUG_LIGHTING_CTRL@@H@@QAEPAPAVCShaderParam@DEBUG_LIGHTING_CTRL@@XZ 1007a1a0 f i debug_lightingctrl.obj
 0002:000112c0       ?ValidateGrowSize@?$CUtlMemory@PAVCShaderParam@DEBUG_LIGHTING_CTRL@@H@@IAEXXZ 1007a2c0 f i debug_lightingctrl.obj
 0002:00011300       ?IsReadOnly@?$CUtlMemory@PAVCShaderParam@DEBUG_LIGHTING_CTRL@@H@@QBE_NXZ 1007a300 f i debug_lightingctrl.obj
 0002:00011350       ??$MemAllocClassName@V?$CUtlMemory@PAVCShaderParam@DEBUG_LIGHTING_CTRL@@H@@@@YAPBDPAV?$CUtlMemory@PAVCShaderParam@DEBUG_LIGHTING_CTRL@@H@@@Z 1007a350 f i debug_lightingctrl.obj
 0002:000113d0       ??0CShader@DEBUG_LIGHTING_CTRL@@QAE@XZ 1007a3d0 f i debug_lightingctrl.obj
 0002:00011430       ?OnInitShaderParams@CShader@DEBUG_LIGHTING_CTRL@@UAEXPAPAVIMaterialVar@@PBD@Z 1007a430 f i debug_lightingctrl.obj
 0002:00011470       ?GetName@CShader@DEBUG_LIGHTING_CTRL@@UBEPBDXZ 1007a470 f i debug_lightingctrl.obj
 0002:000114b0       ?GetFlags@CShader@DEBUG_LIGHTING_CTRL@@UBEHXZ 1007a4b0 f i debug_lightingctrl.obj
 0002:000114f0       ?GetParamCount@CShader@DEBUG_LIGHTING_CTRL@@UBEHXZ 1007a4f0 f i debug_lightingctrl.obj
 0002:00011550       ?GetParamInfo@CShader@DEBUG_LIGHTING_CTRL@@UBEABUShaderParamInfo_t@@H@Z 1007a550 f i debug_lightingctrl.obj
 0002:000115f0       ?GetInfo@CShaderParam@DEBUG_LIGHTING_CTRL@@QBEABUShaderParamInfo_t@@XZ 1007a5f0 f i debug_lightingctrl.obj
 0002:00011630       ?OnInitShaderInstance@CShader@DEBUG_LIGHTING_CTRL@@UAEXPAPAVIMaterialVar@@PAVIShaderInit@@PBD@Z 1007a630 f i debug_lightingctrl.obj
 0002:00011670       ?GetFallbackShader@CShader@DEBUG_LIGHTING_CTRL@@UBEPBDPAPAVIMaterialVar@@@Z 1007a670 f i debug_lightingctrl.obj
 0002:000116b0       ?OnDrawElements@CShader@DEBUG_LIGHTING_CTRL@@UAEXPAPAVIMaterialVar@@PAVIShaderShadow@@PAVIShaderDynamicAPI@@W4VertexCompressionType_t@@PAPAVCBasePerMaterialContextData@@@Z 1007a6b0 f i debug_lightingctrl.obj
 0002:00011c20       ?GetTexture_Normals@CDeferredExtension@@QAEPAVITexture@@XZ 1007ac20 f i debug_lightingctrl.obj
 0002:00011c60       ?GetTexture_Depth@CDeferredExtension@@QAEPAVITexture@@XZ 1007ac60 f i debug_lightingctrl.obj
 0002:00011ca0       ?GetDeferredExt@@YAPAVCDeferredExtension@@XZ 1007aca0 f i debug_lightingctrl.obj
 0002:00011ce0       ?CommitBaseDeferredConstants_Frustum@@YAXPAVIShaderDynamicAPI@@H_N@Z 1007ace0 f i debug_lightingctrl.obj
 0002:00011da0       ?GetFrustumDeltaBase@CDeferredExtension@@QAEPAMXZ 1007ada0 f i debug_lightingctrl.obj
 0002:00011e00       ?CommitBaseDeferredConstants_Origin@@YAXPAVIShaderDynamicAPI@@H@Z 1007ae00 f i debug_lightingctrl.obj
 0002:00011e80       ?GetOriginBase@CDeferredExtension@@QAEPAMXZ 1007ae80 f i debug_lightingctrl.obj
 0002:00011ee0       ?SetUSEWORLDTRANSFORM@defconstruct_vs30_Static_Index@@QAEXH@Z 1007aee0 f i debug_lightingctrl.obj
 0002:00012000       ?SetSENDWORLDPOS@defconstruct_vs30_Static_Index@@QAEXH@Z 1007b000 f i debug_lightingctrl.obj
 0002:00012120       ??0defconstruct_vs30_Static_Index@@QAE@PAVIShaderShadow@@PAPAVIMaterialVar@@@Z 1007b120 f i debug_lightingctrl.obj
 0002:00012190       ?GetIndex@defconstruct_vs30_Static_Index@@QAEHXZ 1007b190 f i debug_lightingctrl.obj
 0002:000122f0       ??0defconstruct_vs30_Dynamic_Index@@QAE@PAVIShaderDynamicAPI@@@Z 1007b2f0 f i debug_lightingctrl.obj
 0002:00012330       ?GetIndex@defconstruct_vs30_Dynamic_Index@@QAEHXZ 1007b330 f i debug_lightingctrl.obj
 0002:00012370       ??0debug_lighting_ctrl_ps30_Static_Index@@QAE@PAVIShaderShadow@@PAPAVIMaterialVar@@@Z 1007b370 f i debug_lightingctrl.obj
 0002:000123b0       ?GetIndex@debug_lighting_ctrl_ps30_Static_Index@@QAEHXZ 1007b3b0 f i debug_lightingctrl.obj
 0002:000123f0       ??0debug_lighting_ctrl_ps30_Dynamic_Index@@QAE@PAVIShaderDynamicAPI@@@Z 1007b3f0 f i debug_lightingctrl.obj
 0002:00012430       ?GetIndex@debug_lighting_ctrl_ps30_Dynamic_Index@@QAEHXZ 1007b430 f i debug_lightingctrl.obj
 0002:00012470       ??A?$CUtlVector@PAVCShaderParam@DEBUG_LIGHTING_CTRL@@V?$CUtlMemory@PAVCShaderParam@DEBUG_LIGHTING_CTRL@@H@@@@QAEAAPAVCShaderParam@DEBUG_LIGHTING_CTRL@@H@Z 1007b470 f i debug_lightingctrl.obj
 0002:000125a0       ?Count@?$CUtlVector@PAVCShaderParam@DEBUG_LIGHTING_CTRL@@V?$CUtlMemory@PAVCShaderParam@DEBUG_LIGHTING_CTRL@@H@@@@QBEHXZ 1007b5a0 f i debug_lightingctrl.obj
 0002:000125e0       ??A?$CUtlMemory@PAVCShaderParam@DEBUG_LIGHTING_CTRL@@H@@QAEAAPAVCShaderParam@DEBUG_LIGHTING_CTRL@@H@Z 1007b5e0 f i debug_lightingctrl.obj
 0002:000127e0       ?IsIdxValid@?$CUtlMemory@PAVCShaderParam@DEBUG_LIGHTING_CTRL@@H@@QBE_NH@Z 1007b7e0 f i debug_lightingctrl.obj
 0002:00012860       ??1?$CUtlVector@PAVCShaderParam@DEBUG_LIGHTING_CTRL@@V?$CUtlMemory@PAVCShaderParam@DEBUG_LIGHTING_CTRL@@H@@@@QAE@XZ 1007b860 f i debug_lightingctrl.obj
 0002:000128c0       ?Purge@?$CUtlVector@PAVCShaderParam@DEBUG_LIGHTING_CTRL@@V?$CUtlMemory@PAVCShaderParam@DEBUG_LIGHTING_CTRL@@H@@@@QAEXXZ 1007b8c0 f i debug_lightingctrl.obj
 0002:00012930       ??1?$CUtlMemory@PAVCShaderParam@DEBUG_LIGHTING_CTRL@@H@@QAE@XZ 1007b930 f i debug_lightingctrl.obj
 0002:00012980       ?RemoveAll@?$CUtlVector@PAVCShaderParam@DEBUG_LIGHTING_CTRL@@V?$CUtlMemory@PAVCShaderParam@DEBUG_LIGHTING_CTRL@@H@@@@QAEXXZ 1007b980 f i debug_lightingctrl.obj
 0002:00012a10       ?Element@?$CUtlVector@PAVCShaderParam@DEBUG_LIGHTING_CTRL@@V?$CUtlMemory@PAVCShaderParam@DEBUG_LIGHTING_CTRL@@H@@@@QAEAAPAVCShaderParam@DEBUG_LIGHTING_CTRL@@H@Z 1007ba10 f i debug_lightingctrl.obj
 0002:00012b40       ?Purge@?$CUtlMemory@PAVCShaderParam@DEBUG_LIGHTING_CTRL@@H@@QAEXXZ 1007bb40 f i debug_lightingctrl.obj
 0002:00012bf0       ?IsExternallyAllocated@?$CUtlMemory@PAVCShaderParam@DEBUG_LIGHTING_CTRL@@H@@QBE_NXZ 1007bbf0 f i debug_lightingctrl.obj
 0002:00012c40       ??$Destruct@PAVCShaderParam@DEBUG_LIGHTING_CTRL@@@@YAXPAPAVCShaderParam@DEBUG_LIGHTING_CTRL@@@Z 1007bc40 f i debug_lightingctrl.obj
 0002:00012ca0       ??0?$CUtlVector@PAVCShaderParam@DEBUG_RADIOSITY_GRID@@V?$CUtlMemory@PAVCShaderParam@DEBUG_RADIOSITY_GRID@@H@@@@QAE@HH@Z 1007bca0 f i debug_radiosity_grid.obj
 0002:00012d20       ?ResetDbgInfo@?$CUtlVector@PAVCShaderParam@DEBUG_RADIOSITY_GRID@@V?$CUtlMemory@PAVCShaderParam@DEBUG_RADIOSITY_GRID@@H@@@@IAEXXZ 1007bd20 f i debug_radiosity_grid.obj
 0002:00012d80       ?Base@?$CUtlVector@PAVCShaderParam@DEBUG_RADIOSITY_GRID@@V?$CUtlMemory@PAVCShaderParam@DEBUG_RADIOSITY_GRID@@H@@@@QAEPAPAVCShaderParam@DEBUG_RADIOSITY_GRID@@XZ 1007bd80 f i debug_radiosity_grid.obj
 0002:00012dd0       ??0?$CUtlMemory@PAVCShaderParam@DEBUG_RADIOSITY_GRID@@H@@QAE@HH@Z 1007bdd0 f i debug_radiosity_grid.obj
 0002:00012fc0       ?Base@?$CUtlMemory@PAVCShaderParam@DEBUG_RADIOSITY_GRID@@H@@QAEPAPAVCShaderParam@DEBUG_RADIOSITY_GRID@@XZ 1007bfc0 f i debug_radiosity_grid.obj
 0002:000130e0       ?ValidateGrowSize@?$CUtlMemory@PAVCShaderParam@DEBUG_RADIOSITY_GRID@@H@@IAEXXZ 1007c0e0 f i debug_radiosity_grid.obj
 0002:00013120       ?IsReadOnly@?$CUtlMemory@PAVCShaderParam@DEBUG_RADIOSITY_GRID@@H@@QBE_NXZ 1007c120 f i debug_radiosity_grid.obj
 0002:00013170       ??$MemAllocClassName@V?$CUtlMemory@PAVCShaderParam@DEBUG_RADIOSITY_GRID@@H@@@@YAPBDPAV?$CUtlMemory@PAVCShaderParam@DEBUG_RADIOSITY_GRID@@H@@@Z 1007c170 f i debug_radiosity_grid.obj
 0002:000131f0       ??0CShader@DEBUG_RADIOSITY_GRID@@QAE@XZ 1007c1f0 f i debug_radiosity_grid.obj
 0002:00013250       ?OnInitShaderParams@CShader@DEBUG_RADIOSITY_GRID@@UAEXPAPAVIMaterialVar@@PBD@Z 1007c250 f i debug_radiosity_grid.obj
 0002:00013290       ?GetName@CShader@DEBUG_RADIOSITY_GRID@@UBEPBDXZ 1007c290 f i debug_radiosity_grid.obj
 0002:000132d0       ?GetFlags@CShader@DEBUG_RADIOSITY_GRID@@UBEHXZ 1007c2d0 f i debug_radiosity_grid.obj
 0002:00013310       ?GetParamCount@CShader@DEBUG_RADIOSITY_GRID@@UBEHXZ 1007c310 f i debug_radiosity_grid.obj
 0002:00013370       ?GetParamInfo@CShader@DEBUG_RADIOSITY_GRID@@UBEABUShaderParamInfo_t@@H@Z 1007c370 f i debug_radiosity_grid.obj
 0002:00013410       ?GetInfo@CShaderParam@DEBUG_RADIOSITY_GRID@@QBEABUShaderParamInfo_t@@XZ 1007c410 f i debug_radiosity_grid.obj
 0002:00013450       ?OnInitShaderInstance@CShader@DEBUG_RADIOSITY_GRID@@UAEXPAPAVIMaterialVar@@PAVIShaderInit@@PBD@Z 1007c450 f i debug_radiosity_grid.obj
 0002:00013490       ?GetFallbackShader@CShader@DEBUG_RADIOSITY_GRID@@UBEPBDPAPAVIMaterialVar@@@Z 1007c490 f i debug_radiosity_grid.obj
 0002:000134d0       ?OnDrawElements@CShader@DEBUG_RADIOSITY_GRID@@UAEXPAPAVIMaterialVar@@PAVIShaderShadow@@PAVIShaderDynamicAPI@@W4VertexCompressionType_t@@PAPAVCBasePerMaterialContextData@@@Z 1007c4d0 f i debug_radiosity_grid.obj
 0002:00013920       ?GetTexture_RadBuffer@CDeferredExtension@@QAEPAVITexture@@ABH@Z 1007c920 f i debug_radiosity_grid.obj
 0002:00013a60       ??0debug_radiosity_grid_vs30_Static_Index@@QAE@PAVIShaderShadow@@PAPAVIMaterialVar@@@Z 1007ca60 f i debug_radiosity_grid.obj
 0002:00013aa0       ?GetIndex@debug_radiosity_grid_vs30_Static_Index@@QAEHXZ 1007caa0 f i debug_radiosity_grid.obj
 0002:00013ae0       ??0debug_radiosity_grid_vs30_Dynamic_Index@@QAE@PAVIShaderDynamicAPI@@@Z 1007cae0 f i debug_radiosity_grid.obj
 0002:00013b20       ?GetIndex@debug_radiosity_grid_vs30_Dynamic_Index@@QAEHXZ 1007cb20 f i debug_radiosity_grid.obj
 0002:00013b60       ??0debug_radiosity_grid_ps30_Static_Index@@QAE@PAVIShaderShadow@@PAPAVIMaterialVar@@@Z 1007cb60 f i debug_radiosity_grid.obj
 0002:00013ba0       ?GetIndex@debug_radiosity_grid_ps30_Static_Index@@QAEHXZ 1007cba0 f i debug_radiosity_grid.obj
 0002:00013be0       ??0debug_radiosity_grid_ps30_Dynamic_Index@@QAE@PAVIShaderDynamicAPI@@@Z 1007cbe0 f i debug_radiosity_grid.obj
 0002:00013c20       ?GetIndex@debug_radiosity_grid_ps30_Dynamic_Index@@QAEHXZ 1007cc20 f i debug_radiosity_grid.obj
 0002:00013c60       ??A?$CUtlVector@PAVCShaderParam@DEBUG_RADIOSITY_GRID@@V?$CUtlMemory@PAVCShaderParam@DEBUG_RADIOSITY_GRID@@H@@@@QAEAAPAVCShaderParam@DEBUG_RADIOSITY_GRID@@H@Z 1007cc60 f i debug_radiosity_grid.obj
 0002:00013d90       ?Count@?$CUtlVector@PAVCShaderParam@DEBUG_RADIOSITY_GRID@@V?$CUtlMemory@PAVCShaderParam@DEBUG_RADIOSITY_GRID@@H@@@@QBEHXZ 1007cd90 f i debug_radiosity_grid.obj
 0002:00013dd0       ??A?$CUtlMemory@PAVCShaderParam@DEBUG_RADIOSITY_GRID@@H@@QAEAAPAVCShaderParam@DEBUG_RADIOSITY_GRID@@H@Z 1007cdd0 f i debug_radiosity_grid.obj
 0002:00013fd0       ?IsIdxValid@?$CUtlMemory@PAVCShaderParam@DEBUG_RADIOSITY_GRID@@H@@QBE_NH@Z 1007cfd0 f i debug_radiosity_grid.obj
 0002:00014050       ??1?$CUtlVector@PAVCShaderParam@DEBUG_RADIOSITY_GRID@@V?$CUtlMemory@PAVCShaderParam@DEBUG_RADIOSITY_GRID@@H@@@@QAE@XZ 1007d050 f i debug_radiosity_grid.obj
 0002:000140b0       ?Purge@?$CUtlVector@PAVCShaderParam@DEBUG_RADIOSITY_GRID@@V?$CUtlMemory@PAVCShaderParam@DEBUG_RADIOSITY_GRID@@H@@@@QAEXXZ 1007d0b0 f i debug_radiosity_grid.obj
 0002:00014120       ??1?$CUtlMemory@PAVCShaderParam@DEBUG_RADIOSITY_GRID@@H@@QAE@XZ 1007d120 f i debug_radiosity_grid.obj
 0002:00014170       ?RemoveAll@?$CUtlVector@PAVCShaderParam@DEBUG_RADIOSITY_GRID@@V?$CUtlMemory@PAVCShaderParam@DEBUG_RADIOSITY_GRID@@H@@@@QAEXXZ 1007d170 f i debug_radiosity_grid.obj
 0002:00014200       ?Element@?$CUtlVector@PAVCShaderParam@DEBUG_RADIOSITY_GRID@@V?$CUtlMemory@PAVCShaderParam@DEBUG_RADIOSITY_GRID@@H@@@@QAEAAPAVCShaderParam@DEBUG_RADIOSITY_GRID@@H@Z 1007d200 f i debug_radiosity_grid.obj
 0002:00014330       ?Purge@?$CUtlMemory@PAVCShaderParam@DEBUG_RADIOSITY_GRID@@H@@QAEXXZ 1007d330 f i debug_radiosity_grid.obj
 0002:000143e0       ?IsExternallyAllocated@?$CUtlMemory@PAVCShaderParam@DEBUG_RADIOSITY_GRID@@H@@QBE_NXZ 1007d3e0 f i debug_radiosity_grid.obj
 0002:00014430       ??$Destruct@PAVCShaderParam@DEBUG_RADIOSITY_GRID@@@@YAXPAPAVCShaderParam@DEBUG_RADIOSITY_GRID@@@Z 1007d430 f i debug_radiosity_grid.obj
 0002:00014490       ??0?$CUtlVector@PAVCShaderParam@DEBUG_SHADOW@@V?$CUtlMemory@PAVCShaderParam@DEBUG_SHADOW@@H@@@@QAE@HH@Z 1007d490 f i debug_shadow.obj
 0002:00014510       ?ResetDbgInfo@?$CUtlVector@PAVCShaderParam@DEBUG_SHADOW@@V?$CUtlMemory@PAVCShaderParam@DEBUG_SHADOW@@H@@@@IAEXXZ 1007d510 f i debug_shadow.obj
 0002:00014570       ?Base@?$CUtlVector@PAVCShaderParam@DEBUG_SHADOW@@V?$CUtlMemory@PAVCShaderParam@DEBUG_SHADOW@@H@@@@QAEPAPAVCShaderParam@DEBUG_SHADOW@@XZ 1007d570 f i debug_shadow.obj
 0002:000145c0       ??0?$CUtlMemory@PAVCShaderParam@DEBUG_SHADOW@@H@@QAE@HH@Z 1007d5c0 f i debug_shadow.obj
 0002:000147b0       ?Base@?$CUtlMemory@PAVCShaderParam@DEBUG_SHADOW@@H@@QAEPAPAVCShaderParam@DEBUG_SHADOW@@XZ 1007d7b0 f i debug_shadow.obj
 0002:000148d0       ?ValidateGrowSize@?$CUtlMemory@PAVCShaderParam@DEBUG_SHADOW@@H@@IAEXXZ 1007d8d0 f i debug_shadow.obj
 0002:00014910       ?IsReadOnly@?$CUtlMemory@PAVCShaderParam@DEBUG_SHADOW@@H@@QBE_NXZ 1007d910 f i debug_shadow.obj
 0002:00014960       ??$MemAllocClassName@V?$CUtlMemory@PAVCShaderParam@DEBUG_SHADOW@@H@@@@YAPBDPAV?$CUtlMemory@PAVCShaderParam@DEBUG_SHADOW@@H@@@Z 1007d960 f i debug_shadow.obj
 0002:000149e0       ??0CShader@DEBUG_SHADOW@@QAE@XZ 1007d9e0 f i debug_shadow.obj
 0002:00014a40       ?OnInitShaderParams@CShader@DEBUG_SHADOW@@UAEXPAPAVIMaterialVar@@PBD@Z 1007da40 f i debug_shadow.obj
 0002:00014a80       ?GetName@CShader@DEBUG_SHADOW@@UBEPBDXZ 1007da80 f i debug_shadow.obj
 0002:00014ac0       ?GetFlags@CShader@DEBUG_SHADOW@@UBEHXZ 1007dac0 f i debug_shadow.obj
 0002:00014b00       ?GetParamCount@CShader@DEBUG_SHADOW@@UBEHXZ 1007db00 f i debug_shadow.obj
 0002:00014b60       ?GetParamInfo@CShader@DEBUG_SHADOW@@UBEABUShaderParamInfo_t@@H@Z 1007db60 f i debug_shadow.obj
 0002:00014c00       ?GetInfo@CShaderParam@DEBUG_SHADOW@@QBEABUShaderParamInfo_t@@XZ 1007dc00 f i debug_shadow.obj
 0002:00014c40       ?OnInitShaderInstance@CShader@DEBUG_SHADOW@@UAEXPAPAVIMaterialVar@@PAVIShaderInit@@PBD@Z 1007dc40 f i debug_shadow.obj
 0002:00014c80       ?GetFallbackShader@CShader@DEBUG_SHADOW@@UBEPBDPAPAVIMaterialVar@@@Z 1007dc80 f i debug_shadow.obj
 0002:00014cc0       ?OnDrawElements@CShader@DEBUG_SHADOW@@UAEXPAPAVIMaterialVar@@PAVIShaderShadow@@PAVIShaderDynamicAPI@@W4VertexCompressionType_t@@PAPAVCBasePerMaterialContextData@@@Z 1007dcc0 f i debug_shadow.obj
 0002:000152d0       ?GetTexture_ShadowDepth_Ortho@CDeferredExtension@@QAEPAVITexture@@ABH@Z 1007e2d0 f i debug_shadow.obj
 0002:00015410       ?CommitGlobalLightForward@@YAXPAVIShaderDynamicAPI@@H@Z 1007e410 f i debug_shadow.obj
 0002:00015500       ??0Vector4D@@QAE@ABV0@@Z   1007e500 f i debug_shadow.obj
 0002:00015670       ?GetLightData_Global@CDeferredExtension@@QAEABUlightData_Global_t@@XZ 1007e670 f i debug_shadow.obj
 0002:000156b0       ?CommitShadowProjectionConstants_Ortho_Composite@@YAXPAVIShaderDynamicAPI@@HH@Z 1007e6b0 f i debug_shadow.obj
 0002:00015940       ?Base@Vector4D@@QBEPBMXZ   1007e940 f i debug_shadow.obj
 0002:00015980       ?Base@VMatrix@@QBEPBMXZ    1007e980 f i debug_shadow.obj
 0002:000159c0       ?GetShadowData_Ortho@CDeferredExtension@@QAEABUshadowData_ortho_t@@ABH@Z 1007e9c0 f i debug_shadow.obj
 0002:00015b00       ?MakeShadowProjectionConstants@@YAXPAM0HH@Z 1007eb00 f i debug_shadow.obj
 0002:00015b90       ??0debug_shadow_ortho_ps30_Static_Index@@QAE@PAVIShaderShadow@@PAPAVIMaterialVar@@@Z 1007eb90 f i debug_shadow.obj
 0002:00015bd0       ?GetIndex@debug_shadow_ortho_ps30_Static_Index@@QAEHXZ 1007ebd0 f i debug_shadow.obj
 0002:00015c10       ??0debug_shadow_ortho_ps30_Dynamic_Index@@QAE@PAVIShaderDynamicAPI@@@Z 1007ec10 f i debug_shadow.obj
 0002:00015c50       ?GetIndex@debug_shadow_ortho_ps30_Dynamic_Index@@QAEHXZ 1007ec50 f i debug_shadow.obj
 0002:00015c90       ??A?$CUtlVector@PAVCShaderParam@DEBUG_SHADOW@@V?$CUtlMemory@PAVCShaderParam@DEBUG_SHADOW@@H@@@@QAEAAPAVCShaderParam@DEBUG_SHADOW@@H@Z 1007ec90 f i debug_shadow.obj
 0002:00015dc0       ?Count@?$CUtlVector@PAVCShaderParam@DEBUG_SHADOW@@V?$CUtlMemory@PAVCShaderParam@DEBUG_SHADOW@@H@@@@QBEHXZ 1007edc0 f i debug_shadow.obj
 0002:00015e00       ??A?$CUtlMemory@PAVCShaderParam@DEBUG_SHADOW@@H@@QAEAAPAVCShaderParam@DEBUG_SHADOW@@H@Z 1007ee00 f i debug_shadow.obj
 0002:00016000       ?IsIdxValid@?$CUtlMemory@PAVCShaderParam@DEBUG_SHADOW@@H@@QBE_NH@Z 1007f000 f i debug_shadow.obj
 0002:00016080       ??1?$CUtlVector@PAVCShaderParam@DEBUG_SHADOW@@V?$CUtlMemory@PAVCShaderParam@DEBUG_SHADOW@@H@@@@QAE@XZ 1007f080 f i debug_shadow.obj
 0002:000160e0       ?Purge@?$CUtlVector@PAVCShaderParam@DEBUG_SHADOW@@V?$CUtlMemory@PAVCShaderParam@DEBUG_SHADOW@@H@@@@QAEXXZ 1007f0e0 f i debug_shadow.obj
 0002:00016150       ??1?$CUtlMemory@PAVCShaderParam@DEBUG_SHADOW@@H@@QAE@XZ 1007f150 f i debug_shadow.obj
 0002:000161a0       ?RemoveAll@?$CUtlVector@PAVCShaderParam@DEBUG_SHADOW@@V?$CUtlMemory@PAVCShaderParam@DEBUG_SHADOW@@H@@@@QAEXXZ 1007f1a0 f i debug_shadow.obj
 0002:00016230       ?Element@?$CUtlVector@PAVCShaderParam@DEBUG_SHADOW@@V?$CUtlMemory@PAVCShaderParam@DEBUG_SHADOW@@H@@@@QAEAAPAVCShaderParam@DEBUG_SHADOW@@H@Z 1007f230 f i debug_shadow.obj
 0002:00016360       ?Purge@?$CUtlMemory@PAVCShaderParam@DEBUG_SHADOW@@H@@QAEXXZ 1007f360 f i debug_shadow.obj
 0002:00016410       ?IsExternallyAllocated@?$CUtlMemory@PAVCShaderParam@DEBUG_SHADOW@@H@@QBE_NXZ 1007f410 f i debug_shadow.obj
 0002:00016460       ??$Destruct@PAVCShaderParam@DEBUG_SHADOW@@@@YAXPAPAVCShaderParam@DEBUG_SHADOW@@@Z 1007f460 f i debug_shadow.obj
 0002:000164c0       ??0?$CUtlVector@PAVCShaderParam@DEFERRED_BRUSH@@V?$CUtlMemory@PAVCShaderParam@DEFERRED_BRUSH@@H@@@@QAE@HH@Z 1007f4c0 f i deferred_brush.obj
 0002:00016540       ?ResetDbgInfo@?$CUtlVector@PAVCShaderParam@DEFERRED_BRUSH@@V?$CUtlMemory@PAVCShaderParam@DEFERRED_BRUSH@@H@@@@IAEXXZ 1007f540 f i deferred_brush.obj
 0002:000165a0       ?Base@?$CUtlVector@PAVCShaderParam@DEFERRED_BRUSH@@V?$CUtlMemory@PAVCShaderParam@DEFERRED_BRUSH@@H@@@@QAEPAPAVCShaderParam@DEFERRED_BRUSH@@XZ 1007f5a0 f i deferred_brush.obj
 0002:000165f0       ??0?$CUtlMemory@PAVCShaderParam@DEFERRED_BRUSH@@H@@QAE@HH@Z 1007f5f0 f i deferred_brush.obj
 0002:000167e0       ?Base@?$CUtlMemory@PAVCShaderParam@DEFERRED_BRUSH@@H@@QAEPAPAVCShaderParam@DEFERRED_BRUSH@@XZ 1007f7e0 f i deferred_brush.obj
 0002:00016900       ?ValidateGrowSize@?$CUtlMemory@PAVCShaderParam@DEFERRED_BRUSH@@H@@IAEXXZ 1007f900 f i deferred_brush.obj
 0002:00016940       ?IsReadOnly@?$CUtlMemory@PAVCShaderParam@DEFERRED_BRUSH@@H@@QBE_NXZ 1007f940 f i deferred_brush.obj
 0002:00016990       ??$MemAllocClassName@V?$CUtlMemory@PAVCShaderParam@DEFERRED_BRUSH@@H@@@@YAPBDPAV?$CUtlMemory@PAVCShaderParam@DEFERRED_BRUSH@@H@@@Z 1007f990 f i deferred_brush.obj
 0002:00016a10       ??0CShaderParam@DEFERRED_BRUSH@@QAE@PBDW4ShaderParamType_t@@00H@Z 1007fa10 f i deferred_brush.obj
 0002:00016ad0       ?Count@?$CUtlVector@PAVCShaderParam@DEFERRED_BRUSH@@V?$CUtlMemory@PAVCShaderParam@DEFERRED_BRUSH@@H@@@@QBEHXZ 1007fad0 f i deferred_brush.obj
 0002:00016b10       ?AddToTail@?$CUtlVector@PAVCShaderParam@DEFERRED_BRUSH@@V?$CUtlMemory@PAVCShaderParam@DEFERRED_BRUSH@@H@@@@QAEHABQAVCShaderParam@DEFERRED_BRUSH@@@Z 1007fb10 f i deferred_brush.obj
 0002:00016c80       ?InsertBefore@?$CUtlVector@PAVCShaderParam@DEFERRED_BRUSH@@V?$CUtlMemory@PAVCShaderParam@DEFERRED_BRUSH@@H@@@@QAEHHABQAVCShaderParam@DEFERRED_BRUSH@@@Z 1007fc80 f i deferred_brush.obj
 0002:00016f00       ?Element@?$CUtlVector@PAVCShaderParam@DEFERRED_BRUSH@@V?$CUtlMemory@PAVCShaderParam@DEFERRED_BRUSH@@H@@@@QAEAAPAVCShaderParam@DEFERRED_BRUSH@@H@Z 1007ff00 f i deferred_brush.obj
 0002:00017030       ??A?$CUtlMemory@PAVCShaderParam@DEFERRED_BRUSH@@H@@QAEAAPAVCShaderParam@DEFERRED_BRUSH@@H@Z 10080030 f i deferred_brush.obj
 0002:00017230       ?IsValidIndex@?$CUtlVector@PAVCShaderParam@DEFERRED_BRUSH@@V?$CUtlMemory@PAVCShaderParam@DEFERRED_BRUSH@@H@@@@QBE_NH@Z 10080230 f i deferred_brush.obj
 0002:000172a0       ?GrowVector@?$CUtlVector@PAVCShaderParam@DEFERRED_BRUSH@@V?$CUtlMemory@PAVCShaderParam@DEFERRED_BRUSH@@H@@@@IAEXH@Z 100802a0 f i deferred_brush.obj
 0002:000173c0       ?ShiftElementsRight@?$CUtlVector@PAVCShaderParam@DEFERRED_BRUSH@@V?$CUtlMemory@PAVCShaderParam@DEFERRED_BRUSH@@H@@@@IAEXHH@Z 100803c0 f i deferred_brush.obj
 0002:00017560       ??$CopyConstruct@PAVCShaderParam@DEFERRED_BRUSH@@@@YAPAPAVCShaderParam@DEFERRED_BRUSH@@PAPAV01@ABQAV01@@Z 10080560 f i deferred_brush.obj
 0002:00017600       ?IsIdxValid@?$CUtlMemory@PAVCShaderParam@DEFERRED_BRUSH@@H@@QBE_NH@Z 10080600 f i deferred_brush.obj
 0002:00017680       ?NumAllocated@?$CUtlMemory@PAVCShaderParam@DEFERRED_BRUSH@@H@@QBEHXZ 10080680 f i deferred_brush.obj
 0002:000176c0       ?Grow@?$CUtlMemory@PAVCShaderParam@DEFERRED_BRUSH@@H@@QAEXH@Z 100806c0 f i deferred_brush.obj
 0002:00017d30       ?IsExternallyAllocated@?$CUtlMemory@PAVCShaderParam@DEFERRED_BRUSH@@H@@QBE_NXZ 10080d30 f i deferred_brush.obj
 0002:00017d80       ??$MemAllocClassName@V?$CUtlVector@PAVCShaderParam@DEFERRED_BRUSH@@V?$CUtlMemory@PAVCShaderParam@DEFERRED_BRUSH@@H@@@@@@YAPBDPAV?$CUtlVector@PAVCShaderParam@DEFERRED_BRUSH@@V?$CUtlMemory@PAVCShaderParam@DEFERRED_BRUSH@@H@@@@@Z 10080d80 f i deferred_brush.obj
 0002:00017e00       ??0CShader@DEFERRED_BRUSH@@QAE@XZ 10080e00 f i deferred_brush.obj
 0002:00017e60       ?OnInitShaderParams@CShader@DEFERRED_BRUSH@@UAEXPAPAVIMaterialVar@@PBD@Z 10080e60 f i deferred_brush.obj
 0002:00018070       ?CShader_SetFlags2@@YAXPAPAVIMaterialVar@@W4MaterialVarFlags2_t@@@Z 10081070 f i deferred_brush.obj
 0002:000180f0       ??0defParms_gBuffer@@QAE@XZ 100810f0 f i deferred_brush.obj
 0002:00018160       ??0defParms_shadow@@QAE@XZ 10081160 f i deferred_brush.obj
 0002:000181d0       ??0defParms_composite@@QAE@XZ 100811d0 f i deferred_brush.obj
 0002:00018240       ??BCShaderParam@DEFERRED_BRUSH@@QAEHXZ 10081240 f i deferred_brush.obj
 0002:00018280       ?SetupParmsGBuffer@CShader@DEFERRED_BRUSH@@QAEXAAUdefParms_gBuffer@@@Z 10081280 f i deferred_brush.obj
 0002:00018430       ?SetupParmsShadow@CShader@DEFERRED_BRUSH@@QAEXAAUdefParms_shadow@@@Z 10081430 f i deferred_brush.obj
 0002:000184f0       ?SetupParmsComposite@CShader@DEFERRED_BRUSH@@QAEXAAUdefParms_composite@@@Z 100814f0 f i deferred_brush.obj
 0002:00018730       ?DrawToGBuffer@CShader@DEFERRED_BRUSH@@QAE_NPAPAVIMaterialVar@@@Z 10081730 f i deferred_brush.obj
 0002:000187e0       ?CShader_IsFlagSet@@YA_NPAPAVIMaterialVar@@W4MaterialVarFlags_t@@@Z 100817e0 f i deferred_brush.obj
 0002:00018840       ?GetName@CShader@DEFERRED_BRUSH@@UBEPBDXZ 10081840 f i deferred_brush.obj
 0002:00018880       ?GetFlags@CShader@DEFERRED_BRUSH@@UBEHXZ 10081880 f i deferred_brush.obj
 0002:000188c0       ?GetParamCount@CShader@DEFERRED_BRUSH@@UBEHXZ 100818c0 f i deferred_brush.obj
 0002:00018920       ?GetParamInfo@CShader@DEFERRED_BRUSH@@UBEABUShaderParamInfo_t@@H@Z 10081920 f i deferred_brush.obj
 0002:000189c0       ?GetInfo@CShaderParam@DEFERRED_BRUSH@@QBEABUShaderParamInfo_t@@XZ 100819c0 f i deferred_brush.obj
 0002:00018a00       ?OnInitShaderInstance@CShader@DEFERRED_BRUSH@@UAEXPAPAVIMaterialVar@@PAVIShaderInit@@PBD@Z 10081a00 f i deferred_brush.obj
 0002:00018ba0       ?GetFallbackShader@CShader@DEFERRED_BRUSH@@UBEPBDPAPAVIMaterialVar@@@Z 10081ba0 f i deferred_brush.obj
 0002:00018ce0       ?OnDrawElements@CShader@DEFERRED_BRUSH@@UAEXPAPAVIMaterialVar@@PAVIShaderShadow@@PAVIShaderDynamicAPI@@W4VertexCompressionType_t@@PAPAVCBasePerMaterialContextData@@@Z 10081ce0 f i deferred_brush.obj
 0002:000190d0       ?SkipPass@CBaseVSShader@@QAEXXZ 100820d0 f i deferred_brush.obj
 0002:00019130       ??0CDeferredPerMaterialContextData@@QAE@XZ 10082130 f i deferred_brush.obj
 0002:000191b0       ??0CBasePerMaterialContextData@@QAE@XZ 100821b0 f i deferred_brush.obj
 0002:00019210       ??_GCBasePerMaterialContextData@@UAEPAXI@Z 10082210 f i deferred_brush.obj
 0002:00019210       ??_ECBasePerMaterialContextData@@UAEPAXI@Z 10082210 f i deferred_brush.obj
 0002:00019280       ??1CBasePerMaterialContextData@@UAE@XZ 10082280 f i deferred_brush.obj
 0002:000192c0       ??_GCDeferredPerMaterialContextData@@UAEPAXI@Z 100822c0 f i deferred_brush.obj
 0002:000192c0       ??_ECDeferredPerMaterialContextData@@UAEPAXI@Z 100822c0 f i deferred_brush.obj
 0002:00019330       ??1CDeferredPerMaterialContextData@@UAE@XZ 10082330 f i deferred_brush.obj
 0002:00019410       ??A?$CUtlVector@PAVCShaderParam@DEFERRED_BRUSH@@V?$CUtlMemory@PAVCShaderParam@DEFERRED_BRUSH@@H@@@@QAEAAPAVCShaderParam@DEFERRED_BRUSH@@H@Z 10082410 f i deferred_brush.obj
 0002:00019540       ??1?$CUtlVector@PAVCShaderParam@DEFERRED_BRUSH@@V?$CUtlMemory@PAVCShaderParam@DEFERRED_BRUSH@@H@@@@QAE@XZ 10082540 f i deferred_brush.obj
 0002:000195a0       ?Purge@?$CUtlVector@PAVCShaderParam@DEFERRED_BRUSH@@V?$CUtlMemory@PAVCShaderParam@DEFERRED_BRUSH@@H@@@@QAEXXZ 100825a0 f i deferred_brush.obj
 0002:00019610       ??1?$CUtlMemory@PAVCShaderParam@DEFERRED_BRUSH@@H@@QAE@XZ 10082610 f i deferred_brush.obj
 0002:00019660       ?RemoveAll@?$CUtlVector@PAVCShaderParam@DEFERRED_BRUSH@@V?$CUtlMemory@PAVCShaderParam@DEFERRED_BRUSH@@H@@@@QAEXXZ 10082660 f i deferred_brush.obj
 0002:000196f0       ?Purge@?$CUtlMemory@PAVCShaderParam@DEFERRED_BRUSH@@H@@QAEXXZ 100826f0 f i deferred_brush.obj
 0002:000197a0       ??$Destruct@PAVCShaderParam@DEFERRED_BRUSH@@@@YAXPAPAVCShaderParam@DEFERRED_BRUSH@@@Z 100827a0 f i deferred_brush.obj
 0002:00019800       ??0?$CUtlVector@PAVCShaderParam@DEFERRED_MODEL@@V?$CUtlMemory@PAVCShaderParam@DEFERRED_MODEL@@H@@@@QAE@HH@Z 10082800 f i deferred_model.obj
 0002:00019880       ?ResetDbgInfo@?$CUtlVector@PAVCShaderParam@DEFERRED_MODEL@@V?$CUtlMemory@PAVCShaderParam@DEFERRED_MODEL@@H@@@@IAEXXZ 10082880 f i deferred_model.obj
 0002:000198e0       ?Base@?$CUtlVector@PAVCShaderParam@DEFERRED_MODEL@@V?$CUtlMemory@PAVCShaderParam@DEFERRED_MODEL@@H@@@@QAEPAPAVCShaderParam@DEFERRED_MODEL@@XZ 100828e0 f i deferred_model.obj
 0002:00019930       ??0?$CUtlMemory@PAVCShaderParam@DEFERRED_MODEL@@H@@QAE@HH@Z 10082930 f i deferred_model.obj
 0002:00019b20       ?Base@?$CUtlMemory@PAVCShaderParam@DEFERRED_MODEL@@H@@QAEPAPAVCShaderParam@DEFERRED_MODEL@@XZ 10082b20 f i deferred_model.obj
 0002:00019c40       ?ValidateGrowSize@?$CUtlMemory@PAVCShaderParam@DEFERRED_MODEL@@H@@IAEXXZ 10082c40 f i deferred_model.obj
 0002:00019c80       ?IsReadOnly@?$CUtlMemory@PAVCShaderParam@DEFERRED_MODEL@@H@@QBE_NXZ 10082c80 f i deferred_model.obj
 0002:00019cd0       ??$MemAllocClassName@V?$CUtlMemory@PAVCShaderParam@DEFERRED_MODEL@@H@@@@YAPBDPAV?$CUtlMemory@PAVCShaderParam@DEFERRED_MODEL@@H@@@Z 10082cd0 f i deferred_model.obj
 0002:00019d50       ??0CShaderParam@DEFERRED_MODEL@@QAE@PBDW4ShaderParamType_t@@00H@Z 10082d50 f i deferred_model.obj
 0002:00019e10       ?Count@?$CUtlVector@PAVCShaderParam@DEFERRED_MODEL@@V?$CUtlMemory@PAVCShaderParam@DEFERRED_MODEL@@H@@@@QBEHXZ 10082e10 f i deferred_model.obj
 0002:00019e50       ?AddToTail@?$CUtlVector@PAVCShaderParam@DEFERRED_MODEL@@V?$CUtlMemory@PAVCShaderParam@DEFERRED_MODEL@@H@@@@QAEHABQAVCShaderParam@DEFERRED_MODEL@@@Z 10082e50 f i deferred_model.obj
 0002:00019fc0       ?InsertBefore@?$CUtlVector@PAVCShaderParam@DEFERRED_MODEL@@V?$CUtlMemory@PAVCShaderParam@DEFERRED_MODEL@@H@@@@QAEHHABQAVCShaderParam@DEFERRED_MODEL@@@Z 10082fc0 f i deferred_model.obj
 0002:0001a240       ?Element@?$CUtlVector@PAVCShaderParam@DEFERRED_MODEL@@V?$CUtlMemory@PAVCShaderParam@DEFERRED_MODEL@@H@@@@QAEAAPAVCShaderParam@DEFERRED_MODEL@@H@Z 10083240 f i deferred_model.obj
 0002:0001a370       ??A?$CUtlMemory@PAVCShaderParam@DEFERRED_MODEL@@H@@QAEAAPAVCShaderParam@DEFERRED_MODEL@@H@Z 10083370 f i deferred_model.obj
 0002:0001a570       ?IsValidIndex@?$CUtlVector@PAVCShaderParam@DEFERRED_MODEL@@V?$CUtlMemory@PAVCShaderParam@DEFERRED_MODEL@@H@@@@QBE_NH@Z 10083570 f i deferred_model.obj
 0002:0001a5e0       ?GrowVector@?$CUtlVector@PAVCShaderParam@DEFERRED_MODEL@@V?$CUtlMemory@PAVCShaderParam@DEFERRED_MODEL@@H@@@@IAEXH@Z 100835e0 f i deferred_model.obj
 0002:0001a700       ?ShiftElementsRight@?$CUtlVector@PAVCShaderParam@DEFERRED_MODEL@@V?$CUtlMemory@PAVCShaderParam@DEFERRED_MODEL@@H@@@@IAEXHH@Z 10083700 f i deferred_model.obj
 0002:0001a8a0       ??$CopyConstruct@PAVCShaderParam@DEFERRED_MODEL@@@@YAPAPAVCShaderParam@DEFERRED_MODEL@@PAPAV01@ABQAV01@@Z 100838a0 f i deferred_model.obj
 0002:0001a940       ?IsIdxValid@?$CUtlMemory@PAVCShaderParam@DEFERRED_MODEL@@H@@QBE_NH@Z 10083940 f i deferred_model.obj
 0002:0001a9c0       ?NumAllocated@?$CUtlMemory@PAVCShaderParam@DEFERRED_MODEL@@H@@QBEHXZ 100839c0 f i deferred_model.obj
 0002:0001aa00       ?Grow@?$CUtlMemory@PAVCShaderParam@DEFERRED_MODEL@@H@@QAEXH@Z 10083a00 f i deferred_model.obj
 0002:0001b070       ?IsExternallyAllocated@?$CUtlMemory@PAVCShaderParam@DEFERRED_MODEL@@H@@QBE_NXZ 10084070 f i deferred_model.obj
 0002:0001b0c0       ??$MemAllocClassName@V?$CUtlVector@PAVCShaderParam@DEFERRED_MODEL@@V?$CUtlMemory@PAVCShaderParam@DEFERRED_MODEL@@H@@@@@@YAPBDPAV?$CUtlVector@PAVCShaderParam@DEFERRED_MODEL@@V?$CUtlMemory@PAVCShaderParam@DEFERRED_MODEL@@H@@@@@Z 100840c0 f i deferred_model.obj
 0002:0001b140       ??0CShader@DEFERRED_MODEL@@QAE@XZ 10084140 f i deferred_model.obj
 0002:0001b1a0       ?OnInitShaderParams@CShader@DEFERRED_MODEL@@UAEXPAPAVIMaterialVar@@PBD@Z 100841a0 f i deferred_model.obj
 0002:0001b390       ?SetupParmsGBuffer@CShader@DEFERRED_MODEL@@QAEXAAUdefParms_gBuffer@@@Z 10084390 f i deferred_model.obj
 0002:0001b450       ??BCShaderParam@DEFERRED_MODEL@@QAEHXZ 10084450 f i deferred_model.obj
 0002:0001b490       ?SetupParmsShadow@CShader@DEFERRED_MODEL@@QAEXAAUdefParms_shadow@@@Z 10084490 f i deferred_model.obj
 0002:0001b500       ?SetupParmsComposite@CShader@DEFERRED_MODEL@@QAEXAAUdefParms_composite@@@Z 10084500 f i deferred_model.obj
 0002:0001b6e0       ?DrawToGBuffer@CShader@DEFERRED_MODEL@@QAE_NPAPAVIMaterialVar@@@Z 100846e0 f i deferred_model.obj
 0002:0001b790       ?GetName@CShader@DEFERRED_MODEL@@UBEPBDXZ 10084790 f i deferred_model.obj
 0002:0001b7d0       ?GetFlags@CShader@DEFERRED_MODEL@@UBEHXZ 100847d0 f i deferred_model.obj
 0002:0001b810       ?GetParamCount@CShader@DEFERRED_MODEL@@UBEHXZ 10084810 f i deferred_model.obj
 0002:0001b870       ?GetParamInfo@CShader@DEFERRED_MODEL@@UBEABUShaderParamInfo_t@@H@Z 10084870 f i deferred_model.obj
 0002:0001b910       ?GetInfo@CShaderParam@DEFERRED_MODEL@@QBEABUShaderParamInfo_t@@XZ 10084910 f i deferred_model.obj
 0002:0001b950       ?OnInitShaderInstance@CShader@DEFERRED_MODEL@@UAEXPAPAVIMaterialVar@@PAVIShaderInit@@PBD@Z 10084950 f i deferred_model.obj
 0002:0001baf0       ?GetFallbackShader@CShader@DEFERRED_MODEL@@UBEPBDPAPAVIMaterialVar@@@Z 10084af0 f i deferred_model.obj
 0002:0001bbb0       ?OnDrawElements@CShader@DEFERRED_MODEL@@UAEXPAPAVIMaterialVar@@PAVIShaderShadow@@PAVIShaderDynamicAPI@@W4VertexCompressionType_t@@PAPAVCBasePerMaterialContextData@@@Z 10084bb0 f i deferred_model.obj
 0002:0001bfa0       ??A?$CUtlVector@PAVCShaderParam@DEFERRED_MODEL@@V?$CUtlMemory@PAVCShaderParam@DEFERRED_MODEL@@H@@@@QAEAAPAVCShaderParam@DEFERRED_MODEL@@H@Z 10084fa0 f i deferred_model.obj
 0002:0001c0d0       ??1?$CUtlVector@PAVCShaderParam@DEFERRED_MODEL@@V?$CUtlMemory@PAVCShaderParam@DEFERRED_MODEL@@H@@@@QAE@XZ 100850d0 f i deferred_model.obj
 0002:0001c130       ?Purge@?$CUtlVector@PAVCShaderParam@DEFERRED_MODEL@@V?$CUtlMemory@PAVCShaderParam@DEFERRED_MODEL@@H@@@@QAEXXZ 10085130 f i deferred_model.obj
 0002:0001c1a0       ??1?$CUtlMemory@PAVCShaderParam@DEFERRED_MODEL@@H@@QAE@XZ 100851a0 f i deferred_model.obj
 0002:0001c1f0       ?RemoveAll@?$CUtlVector@PAVCShaderParam@DEFERRED_MODEL@@V?$CUtlMemory@PAVCShaderParam@DEFERRED_MODEL@@H@@@@QAEXXZ 100851f0 f i deferred_model.obj
 0002:0001c280       ?Purge@?$CUtlMemory@PAVCShaderParam@DEFERRED_MODEL@@H@@QAEXXZ 10085280 f i deferred_model.obj
 0002:0001c330       ??$Destruct@PAVCShaderParam@DEFERRED_MODEL@@@@YAXPAPAVCShaderParam@DEFERRED_MODEL@@@Z 10085330 f i deferred_model.obj
 0002:0001c390       ?GetTexcoordSettings@@YAX_N0AAHPAPAH@Z 10085390 f   deferred_utility.obj
 0002:0001c420       ?InitParmsComposite@@YAXABUdefParms_composite@@PAVCBaseVSShader@@PAPAVIMaterialVar@@@Z 10085420 f   defpass_composite.obj
 0002:0001cc30       ?InitPassComposite@@YAXABUdefParms_composite@@PAVCBaseVSShader@@PAPAVIMaterialVar@@@Z 10085c30 f   defpass_composite.obj
 0002:0001cff0       ?DrawPassComposite@@YAXABUdefParms_composite@@PAVCBaseVSShader@@PAPAVIMaterialVar@@PAVIShaderShadow@@PAVIShaderDynamicAPI@@W4VertexCompressionType_t@@PAVCDeferredPerMaterialContextData@@@Z 10085ff0 f   defpass_composite.obj
 0002:000205b0       ?GetBool@ConVar@@QBE_NXZ   100895b0 f i defpass_composite.obj
 0002:00020610       ?IsTexture@IMaterialVar@@QBE_NXZ 10089610 f i defpass_composite.obj
 0002:00020660       ?GetVecValue@IMaterialVar@@QBEPBMXZ 10089660 f i defpass_composite.obj
 0002:000206b0       ?GetVecValueFast@IMaterialVar@@QBEPBMXZ 100896b0 f i defpass_composite.obj
 0002:00020710       ?GetTexture_LightAccum@CDeferredExtension@@QAEPAVITexture@@XZ 10089710 f i defpass_composite.obj
 0002:00020750       ?SetCommands@CDeferredPerMaterialContextData@@QAEXW4DefStage_t@1@PAE@Z 10089750 f i defpass_composite.obj
 0002:00020980       ?GetCommands@CDeferredPerMaterialContextData@@QAEPAEW4DefStage_t@1@@Z 10089980 f i defpass_composite.obj
 0002:00020aa0       ?HasCommands@CDeferredPerMaterialContextData@@QAE_NW4DefStage_t@1@@Z 10089aa0 f i defpass_composite.obj
 0002:00020b00       ?SetMODEL@composite_vs30_Static_Index@@QAEX_N@Z 10089b00 f i defpass_composite.obj
 0002:00020b60       ?SetDECAL@composite_vs30_Static_Index@@QAEX_N@Z 10089b60 f i defpass_composite.obj
 0002:00020bc0       ?SetMORPHING_VTEX@composite_vs30_Static_Index@@QAEX_N@Z 10089bc0 f i defpass_composite.obj
 0002:00020c20       ?SetEYEVEC@composite_vs30_Static_Index@@QAEX_N@Z 10089c20 f i defpass_composite.obj
 0002:00020c80       ?SetBASETEXTURE2@composite_vs30_Static_Index@@QAEX_N@Z 10089c80 f i defpass_composite.obj
 0002:00020ce0       ?SetBLENDMODULATE@composite_vs30_Static_Index@@QAEX_N@Z 10089ce0 f i defpass_composite.obj
 0002:00020d40       ?SetMULTIBLEND@composite_vs30_Static_Index@@QAEX_N@Z 10089d40 f i defpass_composite.obj
 0002:00020da0       ??0composite_vs30_Static_Index@@QAE@PAVIShaderShadow@@PAPAVIMaterialVar@@@Z 10089da0 f i defpass_composite.obj
 0002:00020e70       ?GetIndex@composite_vs30_Static_Index@@QAEHXZ 10089e70 f i defpass_composite.obj
 0002:00021060       ?SetCOMPRESSED_VERTS@composite_vs30_Dynamic_Index@@QAEXH@Z 1008a060 f i defpass_composite.obj
 0002:00021190       ?SetSKINNING@composite_vs30_Dynamic_Index@@QAEXH@Z 1008a190 f i defpass_composite.obj
 0002:000212c0       ?SetMORPHING@composite_vs30_Dynamic_Index@@QAEXH@Z 1008a2c0 f i defpass_composite.obj
 0002:000213f0       ??0composite_vs30_Dynamic_Index@@QAE@PAVIShaderDynamicAPI@@@Z 1008a3f0 f i defpass_composite.obj
 0002:00021470       ?GetIndex@composite_vs30_Dynamic_Index@@QAEHXZ 1008a470 f i defpass_composite.obj
 0002:000215f0       ?SetALPHATEST@composite_ps30_Static_Index@@QAEX_N@Z 1008a5f0 f i defpass_composite.obj
 0002:00021650       ?SetTRANSLUCENT@composite_ps30_Static_Index@@QAEX_N@Z 1008a650 f i defpass_composite.obj
 0002:000216b0       ?SetREADNORMAL@composite_ps30_Static_Index@@QAEX_N@Z 1008a6b0 f i defpass_composite.obj
 0002:00021710       ?SetNOCULL@composite_ps30_Static_Index@@QAEX_N@Z 1008a710 f i defpass_composite.obj
 0002:00021770       ?SetPHONGFRESNEL@composite_ps30_Static_Index@@QAEX_N@Z 1008a770 f i defpass_composite.obj
 0002:000217d0       ?SetENVMAP@composite_ps30_Static_Index@@QAEX_N@Z 1008a7d0 f i defpass_composite.obj
 0002:00021830       ?SetENVMAPMASK@composite_ps30_Static_Index@@QAEX_N@Z 1008a830 f i defpass_composite.obj
 0002:00021890       ?SetENVMAPFRESNEL@composite_ps30_Static_Index@@QAEX_N@Z 1008a890 f i defpass_composite.obj
 0002:000218f0       ?SetRIMLIGHT@composite_ps30_Static_Index@@QAEX_N@Z 1008a8f0 f i defpass_composite.obj
 0002:00021950       ?SetRIMLIGHTMODULATELIGHT@composite_ps30_Static_Index@@QAEX_N@Z 1008a950 f i defpass_composite.obj
 0002:000219b0       ?SetBASETEXTURE2@composite_ps30_Static_Index@@QAEX_N@Z 1008a9b0 f i defpass_composite.obj
 0002:00021a10       ?SetBLENDMODULATE@composite_ps30_Static_Index@@QAEX_N@Z 1008aa10 f i defpass_composite.obj
 0002:00021a70       ?SetMULTIBLEND@composite_ps30_Static_Index@@QAEX_N@Z 1008aa70 f i defpass_composite.obj
 0002:00021ad0       ?SetSELFILLUM@composite_ps30_Static_Index@@QAEX_N@Z 1008aad0 f i defpass_composite.obj
 0002:00021b30       ?SetSELFILLUM_MASK@composite_ps30_Static_Index@@QAEX_N@Z 1008ab30 f i defpass_composite.obj
 0002:00021b90       ?SetSELFILLUM_ENVMAP_ALPHA@composite_ps30_Static_Index@@QAEX_N@Z 1008ab90 f i defpass_composite.obj
 0002:00021bf0       ??0composite_ps30_Static_Index@@QAE@PAVIShaderShadow@@PAPAVIMaterialVar@@@Z 1008abf0 f i defpass_composite.obj
 0002:00021d80       ?GetIndex@composite_ps30_Static_Index@@QAEHXZ 1008ad80 f i defpass_composite.obj
 0002:00022080       ?SetPIXELFOGTYPE@composite_ps30_Dynamic_Index@@QAEXH@Z 1008b080 f i defpass_composite.obj
 0002:000221b0       ??0composite_ps30_Dynamic_Index@@QAE@PAVIShaderDynamicAPI@@@Z 1008b1b0 f i defpass_composite.obj
 0002:00022200       ?GetIndex@composite_ps30_Dynamic_Index@@QAEHXZ 1008b200 f i defpass_composite.obj
 0002:00022320       ?End@?$CCommandBufferBuilder@V?$CFixedCommandStorageBuffer@$0CAA@@@@@QAEXXZ 1008b320 f i defpass_composite.obj
 0002:00022380       ?SetPixelShaderConstant@?$CCommandBufferBuilder@V?$CFixedCommandStorageBuffer@$0CAA@@@@@QAEXHH@Z 1008b380 f i defpass_composite.obj
 0002:000223f0       ?SetPixelShaderConstant@?$CCommandBufferBuilder@V?$CFixedCommandStorageBuffer@$0CAA@@@@@QAEXHPBM@Z 1008b3f0 f i defpass_composite.obj
 0002:00022460       ?SetPixelShaderConstant1@?$CCommandBufferBuilder@V?$CFixedCommandStorageBuffer@$0CAA@@@@@QAEXHM@Z 1008b460 f i defpass_composite.obj
 0002:000224e0       ?SetVertexShaderTextureTransform@?$CCommandBufferBuilder@V?$CFixedCommandStorageBuffer@$0CAA@@@@@QAEXHH@Z 1008b4e0 f i defpass_composite.obj
 0002:00022700       ?SetPixelShaderFogParams@?$CCommandBufferBuilder@V?$CFixedCommandStorageBuffer@$0CAA@@@@@QAEXH@Z 1008b700 f i defpass_composite.obj
 0002:00022770       ?BindStandardTexture@?$CCommandBufferBuilder@V?$CFixedCommandStorageBuffer@$0CAA@@@@@QAEXW4Sampler_t@@W4StandardTextureId_t@@@Z 1008b770 f i defpass_composite.obj
 0002:000227f0       ?BindTexture@?$CCommandBufferBuilder@V?$CFixedCommandStorageBuffer@$0CAA@@@@@QAEXPAVCBaseVSShader@@W4Sampler_t@@H@Z 1008b7f0 f i defpass_composite.obj
 0002:00022860       ?Reset@?$CCommandBufferBuilder@V?$CFixedCommandStorageBuffer@$0CAA@@@@@QAEXXZ 1008b860 f i defpass_composite.obj
 0002:000228b0       ?Copy@?$CCommandBufferBuilder@V?$CFixedCommandStorageBuffer@$0CAA@@@@@QAEPAEXZ 1008b8b0 f i defpass_composite.obj
 0002:00022900       ?Param@?$CCommandBufferBuilder@V?$CFixedCommandStorageBuffer@$0CAA@@@@@QBEPAVIMaterialVar@@H@Z 1008b900 f i defpass_composite.obj
 0002:00022960       ?GetParam@CBaseVSShader@@SAPAVIMaterialVar@@H@Z 1008b960 f i defpass_composite.obj
 0002:000229a0       ?SetPixelShaderConstants@?$CCommandBufferBuilder@V?$CFixedCommandStorageBuffer@$0CAA@@@@@QAEXHH@Z 1008b9a0 f i defpass_composite.obj
 0002:00022a20       ?OutputConstantData@?$CCommandBufferBuilder@V?$CFixedCommandStorageBuffer@$0CAA@@@@@QAEXPBM@Z 1008ba20 f i defpass_composite.obj
 0002:00022ac0       ?SetPixelShaderConstant4@?$CCommandBufferBuilder@V?$CFixedCommandStorageBuffer@$0CAA@@@@@QAEXHMMMM@Z 1008bac0 f i defpass_composite.obj
 0002:00022b50       ?SetVertexShaderConstant@?$CCommandBufferBuilder@V?$CFixedCommandStorageBuffer@$0CAA@@@@@QAEXHPBMH@Z 1008bb50 f i defpass_composite.obj
 0002:00022be0       ?BindTexture@?$CCommandBufferBuilder@V?$CFixedCommandStorageBuffer@$0CAA@@@@@QAEXPAVCBaseVSShader@@W4Sampler_t@@HH@Z 1008bbe0 f i defpass_composite.obj
 0002:00022c60       ?PutInt@?$CFixedCommandStorageBuffer@$0CAA@@@QAEXH@Z 1008bc60 f i defpass_composite.obj
 0002:00022cc0       ?Reset@?$CFixedCommandStorageBuffer@$0CAA@@@QAEXXZ 1008bcc0 f i defpass_composite.obj
 0002:00022d20       ?Copy@?$CFixedCommandStorageBuffer@$0CAA@@@QAEPAEXZ 1008bd20 f i defpass_composite.obj
 0002:00022dc0       ?OutputConstantData4@?$CCommandBufferBuilder@V?$CFixedCommandStorageBuffer@$0CAA@@@@@QAEXMMMM@Z 1008bdc0 f i defpass_composite.obj
 0002:00022e60       ?BindTexture@?$CCommandBufferBuilder@V?$CFixedCommandStorageBuffer@$0CAA@@@@@QAEXW4Sampler_t@@H@Z 1008be60 f i defpass_composite.obj
 0002:00022ee0       ?PutFloat@?$CFixedCommandStorageBuffer@$0CAA@@@QAEXM@Z 1008bee0 f i defpass_composite.obj
 0002:00022f40       ?PutMemory@?$CFixedCommandStorageBuffer@$0CAA@@@QAEXPBXI@Z 1008bf40 f i defpass_composite.obj
 0002:00022fe0       ?Size@?$CFixedCommandStorageBuffer@$0CAA@@@QBEIXZ 1008bfe0 f i defpass_composite.obj
 0002:00023030       ?EnsureCapacity@?$CFixedCommandStorageBuffer@$0CAA@@@QAEXI@Z 1008c030 f i defpass_composite.obj
 0002:00023140       ??$Put@H@?$CFixedCommandStorageBuffer@$0CAA@@@QAEXABH@Z 1008c140 f i defpass_composite.obj
 0002:000231e0       ??$Put@M@?$CFixedCommandStorageBuffer@$0CAA@@@QAEXABM@Z 1008c1e0 f i defpass_composite.obj
 0002:00023280       ??0?$CCommandBufferBuilder@V?$CFixedCommandStorageBuffer@$0CAA@@@@@QAE@XZ 1008c280 f i defpass_composite.obj
 0002:000232e0       ??0?$CFixedCommandStorageBuffer@$0CAA@@@QAE@XZ 1008c2e0 f i defpass_composite.obj
 0002:00023340       ?InitParmsGBuffer@@YAXABUdefParms_gBuffer@@PAVCBaseVSShader@@PAPAVIMaterialVar@@@Z 1008c340 f   defpass_gbuffer.obj
 0002:00023550       ?InitPassGBuffer@@YAXABUdefParms_gBuffer@@PAVCBaseVSShader@@PAPAVIMaterialVar@@@Z 1008c550 f   defpass_gbuffer.obj
 0002:000238c0       ?DrawPassGBuffer@@YAXABUdefParms_gBuffer@@PAVCBaseVSShader@@PAPAVIMaterialVar@@PAVIShaderShadow@@PAVIShaderDynamicAPI@@W4VertexCompressionType_t@@PAVCDeferredPerMaterialContextData@@@Z 1008c8c0 f   defpass_gbuffer.obj
 0002:00025df0       ?GetForwardBase@CDeferredExtension@@QAEPAMXZ 1008edf0 f i defpass_gbuffer.obj
 0002:00025e50       ?GetZScale@CDeferredExtension@@QAEMXZ 1008ee50 f i defpass_gbuffer.obj
 0002:00025e90       ?SetMODEL@gbuffer_vs30_Static_Index@@QAEX_N@Z 1008ee90 f i defpass_gbuffer.obj
 0002:00025ef0       ?SetTANGENTSPACE@gbuffer_vs30_Static_Index@@QAEX_N@Z 1008eef0 f i defpass_gbuffer.obj
 0002:00025f50       ?SetMORPHING_VTEX@gbuffer_vs30_Static_Index@@QAEX_N@Z 1008ef50 f i defpass_gbuffer.obj
 0002:00025fb0       ?SetBUMPMAP2@gbuffer_vs30_Static_Index@@QAEX_N@Z 1008efb0 f i defpass_gbuffer.obj
 0002:00026010       ?SetBLENDMODULATE@gbuffer_vs30_Static_Index@@QAEX_N@Z 1008f010 f i defpass_gbuffer.obj
 0002:00026070       ?SetMULTIBLEND@gbuffer_vs30_Static_Index@@QAEX_N@Z 1008f070 f i defpass_gbuffer.obj
 0002:000260d0       ??0gbuffer_vs30_Static_Index@@QAE@PAVIShaderShadow@@PAPAVIMaterialVar@@@Z 1008f0d0 f i defpass_gbuffer.obj
 0002:00026190       ?GetIndex@gbuffer_vs30_Static_Index@@QAEHXZ 1008f190 f i defpass_gbuffer.obj
 0002:00026370       ?SetCOMPRESSED_VERTS@gbuffer_vs30_Dynamic_Index@@QAEXH@Z 1008f370 f i defpass_gbuffer.obj
 0002:000264a0       ?SetSKINNING@gbuffer_vs30_Dynamic_Index@@QAEXH@Z 1008f4a0 f i defpass_gbuffer.obj
 0002:000265d0       ?SetMORPHING@gbuffer_vs30_Dynamic_Index@@QAEXH@Z 1008f5d0 f i defpass_gbuffer.obj
 0002:00026700       ??0gbuffer_vs30_Dynamic_Index@@QAE@PAVIShaderDynamicAPI@@@Z 1008f700 f i defpass_gbuffer.obj
 0002:00026780       ?GetIndex@gbuffer_vs30_Dynamic_Index@@QAEHXZ 1008f780 f i defpass_gbuffer.obj
 0002:00026900       ?SetALPHATEST@gbuffer_ps30_Static_Index@@QAEX_N@Z 1008f900 f i defpass_gbuffer.obj
 0002:00026960       ?SetBUMPMAP@gbuffer_ps30_Static_Index@@QAEXH@Z 1008f960 f i defpass_gbuffer.obj
 0002:00026a80       ?SetNOCULL@gbuffer_ps30_Static_Index@@QAEX_N@Z 1008fa80 f i defpass_gbuffer.obj
 0002:00026ae0       ?SetPHONGMAP@gbuffer_ps30_Static_Index@@QAEX_N@Z 1008fae0 f i defpass_gbuffer.obj
 0002:00026b40       ?SetBUMPMAP2@gbuffer_ps30_Static_Index@@QAEX_N@Z 1008fb40 f i defpass_gbuffer.obj
 0002:00026ba0       ?SetBLENDMODULATE@gbuffer_ps30_Static_Index@@QAEX_N@Z 1008fba0 f i defpass_gbuffer.obj
 0002:00026c00       ?SetMULTIBLEND@gbuffer_ps30_Static_Index@@QAEX_N@Z 1008fc00 f i defpass_gbuffer.obj
 0002:00026c60       ??0gbuffer_ps30_Static_Index@@QAE@PAVIShaderShadow@@PAPAVIMaterialVar@@@Z 1008fc60 f i defpass_gbuffer.obj
 0002:00026d30       ?GetIndex@gbuffer_ps30_Static_Index@@QAEHXZ 1008fd30 f i defpass_gbuffer.obj
 0002:00026f20       ??0gbuffer_ps30_Dynamic_Index@@QAE@PAVIShaderDynamicAPI@@@Z 1008ff20 f i defpass_gbuffer.obj
 0002:00026f60       ?GetIndex@gbuffer_ps30_Dynamic_Index@@QAEHXZ 1008ff60 f i defpass_gbuffer.obj
 0002:00026fa0       ?PackLightingControls@@YAMHHH@Z 1008ffa0 f   defpass_gbuffer.obj
 0002:00027000       ?UnpackLightingControls@@YAXMAAM00@Z 10090000 f   defpass_gbuffer.obj
 0002:00027110       ?SetPixelShaderConstant2@?$CCommandBufferBuilder@V?$CFixedCommandStorageBuffer@$0CAA@@@@@QAEXHMM@Z 10090110 f i defpass_gbuffer.obj
 0002:000272c0       ?ArgC@CCommand@@QBEHXZ     100902c0 f i defpass_gbuffer.obj
 0002:00027300       ??ACCommand@@QBEPBDH@Z     10090300 f i defpass_gbuffer.obj
 0002:00027360       ?Arg@CCommand@@QBEPBDH@Z   10090360 f i defpass_gbuffer.obj
 0002:000274f0       ?InitParmsShadowPass@@YAXABUdefParms_shadow@@PAVCBaseVSShader@@PAPAVIMaterialVar@@@Z 100904f0 f   defpass_shadow.obj
 0002:000275f0       ?InitPassShadowPass@@YAXABUdefParms_shadow@@PAVCBaseVSShader@@PAPAVIMaterialVar@@@Z 100905f0 f   defpass_shadow.obj
 0002:000277a0       ?DrawPassShadowPass@@YAXABUdefParms_shadow@@PAVCBaseVSShader@@PAPAVIMaterialVar@@PAVIShaderShadow@@PAVIShaderDynamicAPI@@W4VertexCompressionType_t@@PAVCDeferredPerMaterialContextData@@@Z 100907a0 f   defpass_shadow.obj
 0002:00028f10       ?CommitShadowcastingConstants_Ortho@@YAXPAVIShaderDynamicAPI@@HHHH@Z 10091f10 f i defpass_shadow.obj
 0002:00029070       ??DVector4D@@QBE?AV0@M@Z   10092070 f i defpass_shadow.obj
 0002:00029130       ?Vector4DMultiply@@YAXABVVector4D@@MAAV1@@Z 10092130 f i defpass_shadow.obj
 0002:000292c0       ?CommitShadowcastingConstants_Proj@@YAXPAVIShaderDynamicAPI@@HHHH@Z 100922c0 f i defpass_shadow.obj
 0002:000293b0       ?GetShadowData_Proj@CDeferredExtension@@QAEABUshadowData_proj_t@@ABH@Z 100923b0 f i defpass_shadow.obj
 0002:00029500       ?CommitViewVertexShader@@YAXPAVIShaderDynamicAPI@@H@Z 10092500 f i defpass_shadow.obj
 0002:00029610       ?Identity@VMatrix@@QAEXXZ  10092610 f i defpass_shadow.obj
 0002:00029670       ?SetMODEL@shadowpass_vs30_Static_Index@@QAEX_N@Z 10092670 f i defpass_shadow.obj
 0002:000296d0       ?SetMORPHING_VTEX@shadowpass_vs30_Static_Index@@QAEX_N@Z 100926d0 f i defpass_shadow.obj
 0002:00029730       ?SetMULTITEXTURE@shadowpass_vs30_Static_Index@@QAEXH@Z 10092730 f i defpass_shadow.obj
 0002:00029850       ??0shadowpass_vs30_Static_Index@@QAE@PAVIShaderShadow@@PAPAVIMaterialVar@@@Z 10092850 f i defpass_shadow.obj
 0002:000298d0       ?GetIndex@shadowpass_vs30_Static_Index@@QAEHXZ 100928d0 f i defpass_shadow.obj
 0002:00029a50       ?SetCOMPRESSED_VERTS@shadowpass_vs30_Dynamic_Index@@QAEXH@Z 10092a50 f i defpass_shadow.obj
 0002:00029b70       ?SetSKINNING@shadowpass_vs30_Dynamic_Index@@QAEXH@Z 10092b70 f i defpass_shadow.obj
 0002:00029ca0       ?SetMORPHING@shadowpass_vs30_Dynamic_Index@@QAEXH@Z 10092ca0 f i defpass_shadow.obj
 0002:00029dd0       ?SetSHADOW_MODE@shadowpass_vs30_Dynamic_Index@@QAEXH@Z 10092dd0 f i defpass_shadow.obj
 0002:00029f00       ?SetRADIOSITY@shadowpass_vs30_Dynamic_Index@@QAEXH@Z 10092f00 f i defpass_shadow.obj
 0002:0002a030       ??0shadowpass_vs30_Dynamic_Index@@QAE@PAVIShaderDynamicAPI@@@Z 10093030 f i defpass_shadow.obj
 0002:0002a0e0       ?GetIndex@shadowpass_vs30_Dynamic_Index@@QAEHXZ 100930e0 f i defpass_shadow.obj
 0002:0002a290       ?SetALPHATEST@shadowpass_ps30_Static_Index@@QAEX_N@Z 10093290 f i defpass_shadow.obj
 0002:0002a2f0       ?SetMULTITEXTURE@shadowpass_ps30_Static_Index@@QAEXH@Z 100932f0 f i defpass_shadow.obj
 0002:0002a410       ??0shadowpass_ps30_Static_Index@@QAE@PAVIShaderShadow@@PAPAVIMaterialVar@@@Z 10093410 f i defpass_shadow.obj
 0002:0002a480       ?GetIndex@shadowpass_ps30_Static_Index@@QAEHXZ 10093480 f i defpass_shadow.obj
 0002:0002a5e0       ?SetSHADOW_MODE@shadowpass_ps30_Dynamic_Index@@QAEXH@Z 100935e0 f i defpass_shadow.obj
 0002:0002a700       ?SetRADIOSITY@shadowpass_ps30_Dynamic_Index@@QAEXH@Z 10093700 f i defpass_shadow.obj
 0002:0002a820       ??0shadowpass_ps30_Dynamic_Index@@QAE@PAVIShaderDynamicAPI@@@Z 10093820 f i defpass_shadow.obj
 0002:0002a890       ?GetIndex@shadowpass_ps30_Dynamic_Index@@QAEHXZ 10093890 f i defpass_shadow.obj
 0002:0002aa00       ??0CDeferredExtension@@QAE@XZ 10093a00 f   IDeferredExt.obj
 0002:0002ace0       ??0lightData_Global_t@@QAE@XZ 10093ce0 f i IDeferredExt.obj
 0002:0002ae20       ??0shadowData_general_t@@QAE@XZ 10093e20 f i IDeferredExt.obj
 0002:0002ae80       ??_GCDeferredExtension@@UAEPAXI@Z 10093e80 f i IDeferredExt.obj
 0002:0002ae80       ??_ECDeferredExtension@@UAEPAXI@Z 10093e80 f i IDeferredExt.obj
 0002:0002aef0       ??0IDeferredExtension@@QAE@XZ 10093ef0 f i IDeferredExt.obj
 0002:0002af50       ??0shadowData_ortho_t@@QAE@XZ 10093f50 f i IDeferredExt.obj
 0002:0002afd0       ??0shadowData_proj_t@@QAE@XZ 10093fd0 f i IDeferredExt.obj
 0002:0002b040       ??0radiosityData_t@@QAE@XZ 10094040 f i IDeferredExt.obj
 0002:0002b0a0       ??0Vector@@QAE@XZ          100940a0 f i IDeferredExt.obj
 0002:0002b0e0       ??_EIDeferredExtension@@UAEPAXI@Z 100940e0 f i IDeferredExt.obj
 0002:0002b0e0       ??_GIDeferredExtension@@UAEPAXI@Z 100940e0 f i IDeferredExt.obj
 0002:0002b150       ??1IDeferredExtension@@UAE@XZ 10094150 f i IDeferredExt.obj
 0002:0002b1a0       ??1IBaseInterface@@UAE@XZ  100941a0 f i IDeferredExt.obj
 0002:0002b1e0       ??_EIBaseInterface@@UAEPAXI@Z 100941e0 f i IDeferredExt.obj
 0002:0002b1e0       ??_GIBaseInterface@@UAEPAXI@Z 100941e0 f i IDeferredExt.obj
 0002:0002b250       ??0IBaseInterface@@QAE@XZ  10094250 f i IDeferredExt.obj
 0002:0002b2a0       ??1CDeferredExtension@@UAE@XZ 100942a0 f   IDeferredExt.obj
 0002:0002b300       ?EnableDeferredLighting@CDeferredExtension@@UAEXXZ 10094300 f   IDeferredExt.obj
 0002:0002b340       ?IsDeferredLightingEnabled@CDeferredExtension@@QAE_NXZ 10094340 f   IDeferredExt.obj
 0002:0002b380       ?CommitOrigin@CDeferredExtension@@UAEXABVVector@@@Z 10094380 f   IDeferredExt.obj
 0002:0002b3f0       ?Base@Vector@@QBEPBMXZ     100943f0 f i IDeferredExt.obj
 0002:0002b430       ?VectorCopy@@YAXPBMPAM@Z   10094430 f i IDeferredExt.obj
 0002:0002b490       ?CommitViewForward@CDeferredExtension@@UAEXABVVector@@@Z 10094490 f   IDeferredExt.obj
 0002:0002b500       ?CommitZDists@CDeferredExtension@@UAEXABM0@Z 10094500 f   IDeferredExt.obj
 0002:0002b560       ?CommitZScale@CDeferredExtension@@UAEXABM@Z 10094560 f   IDeferredExt.obj
 0002:0002b5b0       ?CommitFrustumDeltas@CDeferredExtension@@UAEXABVVMatrix@@@Z 100945b0 f   IDeferredExt.obj
 0002:0002b610       ?CommitShadowData_Ortho@CDeferredExtension@@UAEXABHABUshadowData_ortho_t@@@Z 10094610 f   IDeferredExt.obj
 0002:0002b760       ??4shadowData_ortho_t@@QAEAAU0@ABU0@@Z 10094760 f i IDeferredExt.obj
 0002:0002b820       ??4Vector4D@@QAEAAV0@ABV0@@Z 10094820 f i IDeferredExt.obj
 0002:0002b990       ?CommitShadowData_Proj@CDeferredExtension@@UAEXABHABUshadowData_proj_t@@@Z 10094990 f   IDeferredExt.obj
 0002:0002bae0       ??4shadowData_proj_t@@QAEAAU0@ABU0@@Z 10094ae0 f i IDeferredExt.obj
 0002:0002bb70       ?CommitShadowData_General@CDeferredExtension@@UAEXABUshadowData_general_t@@@Z 10094b70 f   IDeferredExt.obj
 0002:0002bbd0       ?CommitVolumeData@CDeferredExtension@@UAEXABUvolumeData_t@@@Z 10094bd0 f   IDeferredExt.obj
 0002:0002bc40       ?CommitRadiosityData@CDeferredExtension@@UAEXABUradiosityData_t@@@Z 10094c40 f   IDeferredExt.obj
 0002:0002bca0       ??4radiosityData_t@@QAEAAU0@ABU0@@Z 10094ca0 f i IDeferredExt.obj
 0002:0002bd30       ??4Vector@@QAEAAV0@ABV0@@Z 10094d30 f i IDeferredExt.obj
 0002:0002bda0       ?CommitLightData_Global@CDeferredExtension@@UAEXABUlightData_Global_t@@@Z 10094da0 f   IDeferredExt.obj
 0002:0002be00       ??4lightData_Global_t@@QAEAAU0@ABU0@@Z 10094e00 f i IDeferredExt.obj
 0002:0002bee0       ?CommitLightData_Common@CDeferredExtension@@UAEPAMPAMHHHHH@Z 10094ee0 f   IDeferredExt.obj
 0002:0002bf90       ?CommitTexture_General@CDeferredExtension@@UAEXPAVITexture@@00@Z 10094f90 f   IDeferredExt.obj
 0002:0002c000       ?CommitTexture_CascadedDepth@CDeferredExtension@@UAEXABHPAVITexture@@@Z 10095000 f   IDeferredExt.obj
 0002:0002c150       ?CommitTexture_DualParaboloidDepth@CDeferredExtension@@UAEXABHPAVITexture@@@Z 10095150 f   IDeferredExt.obj
 0002:0002c2a0       ?CommitTexture_ProjectedDepth@CDeferredExtension@@UAEXABHPAVITexture@@@Z 100952a0 f   IDeferredExt.obj
 0002:0002c3f0       ?CommitTexture_Cookie@CDeferredExtension@@UAEXABHPAVITexture@@@Z 100953f0 f   IDeferredExt.obj
 0002:0002c540       ?CommitTexture_VolumePrePass@CDeferredExtension@@UAEXPAVITexture@@@Z 10095540 f   IDeferredExt.obj
 0002:0002c590       ?CommitTexture_ShadowRadOutput_Ortho@CDeferredExtension@@UAEXPAVITexture@@0@Z 10095590 f   IDeferredExt.obj
 0002:0002c5f0       ?CommitTexture_Radiosity@CDeferredExtension@@UAEXPAVITexture@@000@Z 100955f0 f   IDeferredExt.obj
 0002:0002c6b0       ??0?$CUtlVector@PAVCShaderParam@LIGHTING_GLOBAL@@V?$CUtlMemory@PAVCShaderParam@LIGHTING_GLOBAL@@H@@@@QAE@HH@Z 100956b0 f i lighting_global.obj
 0002:0002c730       ?ResetDbgInfo@?$CUtlVector@PAVCShaderParam@LIGHTING_GLOBAL@@V?$CUtlMemory@PAVCShaderParam@LIGHTING_GLOBAL@@H@@@@IAEXXZ 10095730 f i lighting_global.obj
 0002:0002c790       ?Base@?$CUtlVector@PAVCShaderParam@LIGHTING_GLOBAL@@V?$CUtlMemory@PAVCShaderParam@LIGHTING_GLOBAL@@H@@@@QAEPAPAVCShaderParam@LIGHTING_GLOBAL@@XZ 10095790 f i lighting_global.obj
 0002:0002c7e0       ??0?$CUtlMemory@PAVCShaderParam@LIGHTING_GLOBAL@@H@@QAE@HH@Z 100957e0 f i lighting_global.obj
 0002:0002c9d0       ?Base@?$CUtlMemory@PAVCShaderParam@LIGHTING_GLOBAL@@H@@QAEPAPAVCShaderParam@LIGHTING_GLOBAL@@XZ 100959d0 f i lighting_global.obj
 0002:0002caf0       ?ValidateGrowSize@?$CUtlMemory@PAVCShaderParam@LIGHTING_GLOBAL@@H@@IAEXXZ 10095af0 f i lighting_global.obj
 0002:0002cb30       ?IsReadOnly@?$CUtlMemory@PAVCShaderParam@LIGHTING_GLOBAL@@H@@QBE_NXZ 10095b30 f i lighting_global.obj
 0002:0002cb80       ??$MemAllocClassName@V?$CUtlMemory@PAVCShaderParam@LIGHTING_GLOBAL@@H@@@@YAPBDPAV?$CUtlMemory@PAVCShaderParam@LIGHTING_GLOBAL@@H@@@Z 10095b80 f i lighting_global.obj
 0002:0002cc00       ??0CShader@LIGHTING_GLOBAL@@QAE@XZ 10095c00 f i lighting_global.obj
 0002:0002cc60       ?OnInitShaderParams@CShader@LIGHTING_GLOBAL@@UAEXPAPAVIMaterialVar@@PBD@Z 10095c60 f i lighting_global.obj
 0002:0002cca0       ?GetName@CShader@LIGHTING_GLOBAL@@UBEPBDXZ 10095ca0 f i lighting_global.obj
 0002:0002cce0       ?GetFlags@CShader@LIGHTING_GLOBAL@@UBEHXZ 10095ce0 f i lighting_global.obj
 0002:0002cd20       ?GetParamCount@CShader@LIGHTING_GLOBAL@@UBEHXZ 10095d20 f i lighting_global.obj
 0002:0002cd80       ?GetParamInfo@CShader@LIGHTING_GLOBAL@@UBEABUShaderParamInfo_t@@H@Z 10095d80 f i lighting_global.obj
 0002:0002ce20       ?GetInfo@CShaderParam@LIGHTING_GLOBAL@@QBEABUShaderParamInfo_t@@XZ 10095e20 f i lighting_global.obj
 0002:0002ce60       ?OnInitShaderInstance@CShader@LIGHTING_GLOBAL@@UAEXPAPAVIMaterialVar@@PAVIShaderInit@@PBD@Z 10095e60 f i lighting_global.obj
 0002:0002cea0       ?GetFallbackShader@CShader@LIGHTING_GLOBAL@@UBEPBDPAPAVIMaterialVar@@@Z 10095ea0 f i lighting_global.obj
 0002:0002cee0       ?OnDrawElements@CShader@LIGHTING_GLOBAL@@UAEXPAPAVIMaterialVar@@PAVIShaderShadow@@PAVIShaderDynamicAPI@@W4VertexCompressionType_t@@PAPAVCBasePerMaterialContextData@@@Z 10095ee0 f i lighting_global.obj
 0002:0002d760       ?MakeHalfAmbient@@YA?AVVector4D@@V1@0@Z 10096760 f i lighting_global.obj
 0002:0002d8c0       ??HVector4D@@QBE?AV0@ABV0@@Z 100968c0 f i lighting_global.obj
 0002:0002d980       ??GVector4D@@QBE?AV0@ABV0@@Z 10096980 f i lighting_global.obj
 0002:0002da40       ?Vector4DAdd@@YAXABVVector4D@@0AAV1@@Z 10096a40 f i lighting_global.obj
 0002:0002dbd0       ?Vector4DSubtract@@YAXABVVector4D@@0AAV1@@Z 10096bd0 f i lighting_global.obj
 0002:0002dd60       ??0lightingpass_global_ps30_Static_Index@@QAE@PAVIShaderShadow@@PAPAVIMaterialVar@@@Z 10096d60 f i lighting_global.obj
 0002:0002dda0       ?GetIndex@lightingpass_global_ps30_Static_Index@@QAEHXZ 10096da0 f i lighting_global.obj
 0002:0002dde0       ?SetHAS_SHADOW@lightingpass_global_ps30_Dynamic_Index@@QAEX_N@Z 10096de0 f i lighting_global.obj
 0002:0002de40       ??0lightingpass_global_ps30_Dynamic_Index@@QAE@PAVIShaderDynamicAPI@@@Z 10096e40 f i lighting_global.obj
 0002:0002de90       ?GetIndex@lightingpass_global_ps30_Dynamic_Index@@QAEHXZ 10096e90 f i lighting_global.obj
 0002:0002dfb0       ??0lightData_Global_t@@QAE@ABU0@@Z 10096fb0 f i lighting_global.obj
 0002:0002e090       ??A?$CUtlVector@PAVCShaderParam@LIGHTING_GLOBAL@@V?$CUtlMemory@PAVCShaderParam@LIGHTING_GLOBAL@@H@@@@QAEAAPAVCShaderParam@LIGHTING_GLOBAL@@H@Z 10097090 f i lighting_global.obj
 0002:0002e1c0       ?Count@?$CUtlVector@PAVCShaderParam@LIGHTING_GLOBAL@@V?$CUtlMemory@PAVCShaderParam@LIGHTING_GLOBAL@@H@@@@QBEHXZ 100971c0 f i lighting_global.obj
 0002:0002e200       ??A?$CUtlMemory@PAVCShaderParam@LIGHTING_GLOBAL@@H@@QAEAAPAVCShaderParam@LIGHTING_GLOBAL@@H@Z 10097200 f i lighting_global.obj
 0002:0002e400       ?IsIdxValid@?$CUtlMemory@PAVCShaderParam@LIGHTING_GLOBAL@@H@@QBE_NH@Z 10097400 f i lighting_global.obj
 0002:0002e480       ??1?$CUtlVector@PAVCShaderParam@LIGHTING_GLOBAL@@V?$CUtlMemory@PAVCShaderParam@LIGHTING_GLOBAL@@H@@@@QAE@XZ 10097480 f i lighting_global.obj
 0002:0002e4e0       ?Purge@?$CUtlVector@PAVCShaderParam@LIGHTING_GLOBAL@@V?$CUtlMemory@PAVCShaderParam@LIGHTING_GLOBAL@@H@@@@QAEXXZ 100974e0 f i lighting_global.obj
 0002:0002e550       ??1?$CUtlMemory@PAVCShaderParam@LIGHTING_GLOBAL@@H@@QAE@XZ 10097550 f i lighting_global.obj
 0002:0002e5a0       ?RemoveAll@?$CUtlVector@PAVCShaderParam@LIGHTING_GLOBAL@@V?$CUtlMemory@PAVCShaderParam@LIGHTING_GLOBAL@@H@@@@QAEXXZ 100975a0 f i lighting_global.obj
 0002:0002e630       ?Element@?$CUtlVector@PAVCShaderParam@LIGHTING_GLOBAL@@V?$CUtlMemory@PAVCShaderParam@LIGHTING_GLOBAL@@H@@@@QAEAAPAVCShaderParam@LIGHTING_GLOBAL@@H@Z 10097630 f i lighting_global.obj
 0002:0002e760       ?Purge@?$CUtlMemory@PAVCShaderParam@LIGHTING_GLOBAL@@H@@QAEXXZ 10097760 f i lighting_global.obj
 0002:0002e810       ?IsExternallyAllocated@?$CUtlMemory@PAVCShaderParam@LIGHTING_GLOBAL@@H@@QBE_NXZ 10097810 f i lighting_global.obj
 0002:0002e860       ??$Destruct@PAVCShaderParam@LIGHTING_GLOBAL@@@@YAXPAPAVCShaderParam@LIGHTING_GLOBAL@@@Z 10097860 f i lighting_global.obj
 0002:0002e8c0       ?InitParmsLightPass@@YAXABUlightPassParms@@PAVCBaseVSShader@@PAPAVIMaterialVar@@@Z 100978c0 f   lighting_pass_basic.obj
 0002:0002e980       ?InitPassLightPass@@YAXABUlightPassParms@@PAVCBaseVSShader@@PAPAVIMaterialVar@@@Z 10097980 f   lighting_pass_basic.obj
 0002:0002e9b0       ?DrawPassLightPass@@YAXABUlightPassParms@@PAVCBaseVSShader@@PAPAVIMaterialVar@@PAVIShaderShadow@@PAVIShaderDynamicAPI@@W4VertexCompressionType_t@@@Z 100979b0 f   lighting_pass_basic.obj
 0002:0002fce0       ?GetNumActiveLights_ShadowedCookied@CDeferredExtension@@QAEHXZ 10098ce0 f i lighting_pass_basic.obj
 0002:0002fd20       ?GetNumActiveLights_Shadowed@CDeferredExtension@@QAEHXZ 10098d20 f i lighting_pass_basic.obj
 0002:0002fd60       ?GetNumActiveLights_Cookied@CDeferredExtension@@QAEHXZ 10098d60 f i lighting_pass_basic.obj
 0002:0002fda0       ?GetNumActiveLights_Simple@CDeferredExtension@@QAEHXZ 10098da0 f i lighting_pass_basic.obj
 0002:0002fde0       ?GetActiveLightData@CDeferredExtension@@QAEPAMXZ 10098de0 f i lighting_pass_basic.obj
 0002:0002fe20       ?GetActiveLights_NumRows@CDeferredExtension@@QAEHXZ 10098e20 f i lighting_pass_basic.obj
 0002:0002fe60       ?GetTexture_ShadowDepth_DP@CDeferredExtension@@QAEPAVITexture@@ABH@Z 10098e60 f i lighting_pass_basic.obj
 0002:0002ffa0       ?GetTexture_ShadowDepth_Proj@CDeferredExtension@@QAEPAVITexture@@ABH@Z 10098fa0 f i lighting_pass_basic.obj
 0002:000300e0       ?GetTexture_Cookie@CDeferredExtension@@QAEPAVITexture@@ABH@Z 100990e0 f i lighting_pass_basic.obj
 0002:00030220       ?CommitShadowProjectionConstants_DPSM@@YAXPAVIShaderDynamicAPI@@H@Z 10099220 f i lighting_pass_basic.obj
 0002:000303b0       ?GetShadowData_General@CDeferredExtension@@QAEABUshadowData_general_t@@XZ 100993b0 f i lighting_pass_basic.obj
 0002:000303f0       ?CommitShadowProjectionConstants_Proj@@YAXPAVIShaderDynamicAPI@@H@Z 100993f0 f i lighting_pass_basic.obj
 0002:00030580       ?CommitHalfScreenTexel@@YAXPAVIShaderDynamicAPI@@HM@Z 10099580 f i lighting_pass_basic.obj
 0002:000305f0       ?CommitFullScreenTexel@@YAXPAVIShaderDynamicAPI@@HM@Z 100995f0 f i lighting_pass_basic.obj
 0002:00030700       ?SetUSEWORLDTRANSFORM@lightingpass_point_ps30_Static_Index@@QAEXH@Z 10099700 f i lighting_pass_basic.obj
 0002:00030820       ??0lightingpass_point_ps30_Static_Index@@QAE@PAVIShaderShadow@@PAPAVIMaterialVar@@@Z 10099820 f i lighting_pass_basic.obj
 0002:00030870       ?GetIndex@lightingpass_point_ps30_Static_Index@@QAEHXZ 10099870 f i lighting_pass_basic.obj
 0002:00030990       ?SetNUM_SHADOWED_COOKIE@lightingpass_point_ps30_Dynamic_Index@@QAEXH@Z 10099990 f i lighting_pass_basic.obj
 0002:00030ab0       ?SetNUM_SHADOWED@lightingpass_point_ps30_Dynamic_Index@@QAEXH@Z 10099ab0 f i lighting_pass_basic.obj
 0002:00030bd0       ?SetNUM_COOKIE@lightingpass_point_ps30_Dynamic_Index@@QAEXH@Z 10099bd0 f i lighting_pass_basic.obj
 0002:00030cf0       ?SetNUM_SIMPLE@lightingpass_point_ps30_Dynamic_Index@@QAEXH@Z 10099cf0 f i lighting_pass_basic.obj
 0002:00030e20       ??0lightingpass_point_ps30_Dynamic_Index@@QAE@PAVIShaderDynamicAPI@@@Z 10099e20 f i lighting_pass_basic.obj
 0002:00030eb0       ?GetIndex@lightingpass_point_ps30_Dynamic_Index@@QAEHXZ 10099eb0 f i lighting_pass_basic.obj
 0002:00031050       ?SetUSEWORLDTRANSFORM@lightingpass_spot_ps30_Static_Index@@QAEXH@Z 1009a050 f i lighting_pass_basic.obj
 0002:00031170       ??0lightingpass_spot_ps30_Static_Index@@QAE@PAVIShaderShadow@@PAPAVIMaterialVar@@@Z 1009a170 f i lighting_pass_basic.obj
 0002:000311c0       ?GetIndex@lightingpass_spot_ps30_Static_Index@@QAEHXZ 1009a1c0 f i lighting_pass_basic.obj
 0002:000312e0       ?SetNUM_SHADOWED_COOKIE@lightingpass_spot_ps30_Dynamic_Index@@QAEXH@Z 1009a2e0 f i lighting_pass_basic.obj
 0002:00031400       ?SetNUM_SHADOWED@lightingpass_spot_ps30_Dynamic_Index@@QAEXH@Z 1009a400 f i lighting_pass_basic.obj
 0002:00031520       ?SetNUM_COOKIE@lightingpass_spot_ps30_Dynamic_Index@@QAEXH@Z 1009a520 f i lighting_pass_basic.obj
 0002:00031640       ?SetNUM_SIMPLE@lightingpass_spot_ps30_Dynamic_Index@@QAEXH@Z 1009a640 f i lighting_pass_basic.obj
 0002:00031770       ??0lightingpass_spot_ps30_Dynamic_Index@@QAE@PAVIShaderDynamicAPI@@@Z 1009a770 f i lighting_pass_basic.obj
 0002:00031800       ?GetIndex@lightingpass_spot_ps30_Dynamic_Index@@QAEHXZ 1009a800 f i lighting_pass_basic.obj
 0002:000319a0       ?InitParmsLightPassVolum@@YAXABUlightPassParms@@PAVCBaseVSShader@@PAPAVIMaterialVar@@@Z 1009a9a0 f   lighting_pass_volum.obj
 0002:00031a60       ?InitPassLightPassVolum@@YAXABUlightPassParms@@PAVCBaseVSShader@@PAPAVIMaterialVar@@@Z 1009aa60 f   lighting_pass_volum.obj
 0002:00031a90       ?DrawPassLightPassVolum@@YAXABUlightPassParms@@PAVCBaseVSShader@@PAPAVIMaterialVar@@PAVIShaderShadow@@PAVIShaderDynamicAPI@@W4VertexCompressionType_t@@@Z 1009aa90 f   lighting_pass_volum.obj
 0002:00032e20       ?GetVolumeData@CDeferredExtension@@QAEABUvolumeData_t@@XZ 1009be20 f i lighting_pass_volum.obj
 0002:00032e60       ?GetTexture_VolumePrePass@CDeferredExtension@@QAEPAVITexture@@XZ 1009be60 f i lighting_pass_volum.obj
 0002:00032ea0       ?SetUSEWORLDTRANSFORM@volumpass_point_ps30_Static_Index@@QAEXH@Z 1009bea0 f i lighting_pass_volum.obj
 0002:00032fc0       ??0volumpass_point_ps30_Static_Index@@QAE@PAVIShaderShadow@@PAPAVIMaterialVar@@@Z 1009bfc0 f i lighting_pass_volum.obj
 0002:00033010       ?GetIndex@volumpass_point_ps30_Static_Index@@QAEHXZ 1009c010 f i lighting_pass_volum.obj
 0002:00033130       ?SetNUM_SHADOWED_COOKIE@volumpass_point_ps30_Dynamic_Index@@QAEXH@Z 1009c130 f i lighting_pass_volum.obj
 0002:00033250       ?SetNUM_SHADOWED@volumpass_point_ps30_Dynamic_Index@@QAEXH@Z 1009c250 f i lighting_pass_volum.obj
 0002:00033370       ??0volumpass_point_ps30_Dynamic_Index@@QAE@PAVIShaderDynamicAPI@@@Z 1009c370 f i lighting_pass_volum.obj
 0002:000333e0       ?GetIndex@volumpass_point_ps30_Dynamic_Index@@QAEHXZ 1009c3e0 f i lighting_pass_volum.obj
 0002:00033540       ?SetUSEWORLDTRANSFORM@volumpass_spot_ps30_Static_Index@@QAEXH@Z 1009c540 f i lighting_pass_volum.obj
 0002:00033660       ??0volumpass_spot_ps30_Static_Index@@QAE@PAVIShaderShadow@@PAPAVIMaterialVar@@@Z 1009c660 f i lighting_pass_volum.obj
 0002:000336b0       ?GetIndex@volumpass_spot_ps30_Static_Index@@QAEHXZ 1009c6b0 f i lighting_pass_volum.obj
 0002:000337d0       ?SetNUM_SHADOWED_COOKIE@volumpass_spot_ps30_Dynamic_Index@@QAEXH@Z 1009c7d0 f i lighting_pass_volum.obj
 0002:000338f0       ?SetNUM_SHADOWED@volumpass_spot_ps30_Dynamic_Index@@QAEXH@Z 1009c8f0 f i lighting_pass_volum.obj
 0002:00033a10       ??0volumpass_spot_ps30_Dynamic_Index@@QAE@PAVIShaderDynamicAPI@@@Z 1009ca10 f i lighting_pass_volum.obj
 0002:00033a80       ?GetIndex@volumpass_spot_ps30_Dynamic_Index@@QAEHXZ 1009ca80 f i lighting_pass_volum.obj
 0002:00033be0       ??0?$CUtlVector@PAVCShaderParam@LIGHTING_WORLD@@V?$CUtlMemory@PAVCShaderParam@LIGHTING_WORLD@@H@@@@QAE@HH@Z 1009cbe0 f i lighting_world.obj
 0002:00033c60       ?ResetDbgInfo@?$CUtlVector@PAVCShaderParam@LIGHTING_WORLD@@V?$CUtlMemory@PAVCShaderParam@LIGHTING_WORLD@@H@@@@IAEXXZ 1009cc60 f i lighting_world.obj
 0002:00033cc0       ?Base@?$CUtlVector@PAVCShaderParam@LIGHTING_WORLD@@V?$CUtlMemory@PAVCShaderParam@LIGHTING_WORLD@@H@@@@QAEPAPAVCShaderParam@LIGHTING_WORLD@@XZ 1009ccc0 f i lighting_world.obj
 0002:00033d10       ??0?$CUtlMemory@PAVCShaderParam@LIGHTING_WORLD@@H@@QAE@HH@Z 1009cd10 f i lighting_world.obj
 0002:00033f00       ?Base@?$CUtlMemory@PAVCShaderParam@LIGHTING_WORLD@@H@@QAEPAPAVCShaderParam@LIGHTING_WORLD@@XZ 1009cf00 f i lighting_world.obj
 0002:00034020       ?ValidateGrowSize@?$CUtlMemory@PAVCShaderParam@LIGHTING_WORLD@@H@@IAEXXZ 1009d020 f i lighting_world.obj
 0002:00034060       ?IsReadOnly@?$CUtlMemory@PAVCShaderParam@LIGHTING_WORLD@@H@@QBE_NXZ 1009d060 f i lighting_world.obj
 0002:000340b0       ??$MemAllocClassName@V?$CUtlMemory@PAVCShaderParam@LIGHTING_WORLD@@H@@@@YAPBDPAV?$CUtlMemory@PAVCShaderParam@LIGHTING_WORLD@@H@@@Z 1009d0b0 f i lighting_world.obj
 0002:00034130       ??0CShaderParam@LIGHTING_WORLD@@QAE@PBDW4ShaderParamType_t@@00H@Z 1009d130 f i lighting_world.obj
 0002:000341f0       ?Count@?$CUtlVector@PAVCShaderParam@LIGHTING_WORLD@@V?$CUtlMemory@PAVCShaderParam@LIGHTING_WORLD@@H@@@@QBEHXZ 1009d1f0 f i lighting_world.obj
 0002:00034230       ?AddToTail@?$CUtlVector@PAVCShaderParam@LIGHTING_WORLD@@V?$CUtlMemory@PAVCShaderParam@LIGHTING_WORLD@@H@@@@QAEHABQAVCShaderParam@LIGHTING_WORLD@@@Z 1009d230 f i lighting_world.obj
 0002:000343a0       ?InsertBefore@?$CUtlVector@PAVCShaderParam@LIGHTING_WORLD@@V?$CUtlMemory@PAVCShaderParam@LIGHTING_WORLD@@H@@@@QAEHHABQAVCShaderParam@LIGHTING_WORLD@@@Z 1009d3a0 f i lighting_world.obj
 0002:00034620       ?Element@?$CUtlVector@PAVCShaderParam@LIGHTING_WORLD@@V?$CUtlMemory@PAVCShaderParam@LIGHTING_WORLD@@H@@@@QAEAAPAVCShaderParam@LIGHTING_WORLD@@H@Z 1009d620 f i lighting_world.obj
 0002:00034750       ??A?$CUtlMemory@PAVCShaderParam@LIGHTING_WORLD@@H@@QAEAAPAVCShaderParam@LIGHTING_WORLD@@H@Z 1009d750 f i lighting_world.obj
 0002:00034950       ?IsValidIndex@?$CUtlVector@PAVCShaderParam@LIGHTING_WORLD@@V?$CUtlMemory@PAVCShaderParam@LIGHTING_WORLD@@H@@@@QBE_NH@Z 1009d950 f i lighting_world.obj
 0002:000349c0       ?GrowVector@?$CUtlVector@PAVCShaderParam@LIGHTING_WORLD@@V?$CUtlMemory@PAVCShaderParam@LIGHTING_WORLD@@H@@@@IAEXH@Z 1009d9c0 f i lighting_world.obj
 0002:00034ae0       ?ShiftElementsRight@?$CUtlVector@PAVCShaderParam@LIGHTING_WORLD@@V?$CUtlMemory@PAVCShaderParam@LIGHTING_WORLD@@H@@@@IAEXHH@Z 1009dae0 f i lighting_world.obj
 0002:00034c80       ??$CopyConstruct@PAVCShaderParam@LIGHTING_WORLD@@@@YAPAPAVCShaderParam@LIGHTING_WORLD@@PAPAV01@ABQAV01@@Z 1009dc80 f i lighting_world.obj
 0002:00034d20       ?IsIdxValid@?$CUtlMemory@PAVCShaderParam@LIGHTING_WORLD@@H@@QBE_NH@Z 1009dd20 f i lighting_world.obj
 0002:00034da0       ?NumAllocated@?$CUtlMemory@PAVCShaderParam@LIGHTING_WORLD@@H@@QBEHXZ 1009dda0 f i lighting_world.obj
 0002:00034de0       ?Grow@?$CUtlMemory@PAVCShaderParam@LIGHTING_WORLD@@H@@QAEXH@Z 1009dde0 f i lighting_world.obj
 0002:00035450       ?IsExternallyAllocated@?$CUtlMemory@PAVCShaderParam@LIGHTING_WORLD@@H@@QBE_NXZ 1009e450 f i lighting_world.obj
 0002:000354a0       ??$MemAllocClassName@V?$CUtlVector@PAVCShaderParam@LIGHTING_WORLD@@V?$CUtlMemory@PAVCShaderParam@LIGHTING_WORLD@@H@@@@@@YAPBDPAV?$CUtlVector@PAVCShaderParam@LIGHTING_WORLD@@V?$CUtlMemory@PAVCShaderParam@LIGHTING_WORLD@@H@@@@@Z 1009e4a0 f i lighting_world.obj
 0002:00035520       ??0CShader@LIGHTING_WORLD@@QAE@XZ 1009e520 f i lighting_world.obj
 0002:00035580       ?OnInitShaderParams@CShader@LIGHTING_WORLD@@UAEXPAPAVIMaterialVar@@PBD@Z 1009e580 f i lighting_world.obj
 0002:00035640       ??0lightPassParms@@QAE@XZ  1009e640 f i lighting_world.obj
 0002:000356a0       ?SetupParmsLightPass@CShader@LIGHTING_WORLD@@QAEXAAUlightPassParms@@@Z 1009e6a0 f i lighting_world.obj
 0002:00035710       ??BCShaderParam@LIGHTING_WORLD@@QAEHXZ 1009e710 f i lighting_world.obj
 0002:00035750       ?GetName@CShader@LIGHTING_WORLD@@UBEPBDXZ 1009e750 f i lighting_world.obj
 0002:00035790       ?GetFlags@CShader@LIGHTING_WORLD@@UBEHXZ 1009e790 f i lighting_world.obj
 0002:000357d0       ?GetParamCount@CShader@LIGHTING_WORLD@@UBEHXZ 1009e7d0 f i lighting_world.obj
 0002:00035830       ?GetParamInfo@CShader@LIGHTING_WORLD@@UBEABUShaderParamInfo_t@@H@Z 1009e830 f i lighting_world.obj
 0002:000358d0       ?GetInfo@CShaderParam@LIGHTING_WORLD@@QBEABUShaderParamInfo_t@@XZ 1009e8d0 f i lighting_world.obj
 0002:00035910       ?OnInitShaderInstance@CShader@LIGHTING_WORLD@@UAEXPAPAVIMaterialVar@@PAVIShaderInit@@PBD@Z 1009e910 f i lighting_world.obj
 0002:000359d0       ?GetFallbackShader@CShader@LIGHTING_WORLD@@UBEPBDPAPAVIMaterialVar@@@Z 1009e9d0 f i lighting_world.obj
 0002:00035a10       ?OnDrawElements@CShader@LIGHTING_WORLD@@UAEXPAPAVIMaterialVar@@PAVIShaderShadow@@PAVIShaderDynamicAPI@@W4VertexCompressionType_t@@PAPAVCBasePerMaterialContextData@@@Z 1009ea10 f i lighting_world.obj
 0002:00035ad0       ??A?$CUtlVector@PAVCShaderParam@LIGHTING_WORLD@@V?$CUtlMemory@PAVCShaderParam@LIGHTING_WORLD@@H@@@@QAEAAPAVCShaderParam@LIGHTING_WORLD@@H@Z 1009ead0 f i lighting_world.obj
 0002:00035c00       ??1?$CUtlVector@PAVCShaderParam@LIGHTING_WORLD@@V?$CUtlMemory@PAVCShaderParam@LIGHTING_WORLD@@H@@@@QAE@XZ 1009ec00 f i lighting_world.obj
 0002:00035c60       ?Purge@?$CUtlVector@PAVCShaderParam@LIGHTING_WORLD@@V?$CUtlMemory@PAVCShaderParam@LIGHTING_WORLD@@H@@@@QAEXXZ 1009ec60 f i lighting_world.obj
 0002:00035cd0       ??1?$CUtlMemory@PAVCShaderParam@LIGHTING_WORLD@@H@@QAE@XZ 1009ecd0 f i lighting_world.obj
 0002:00035d20       ?RemoveAll@?$CUtlVector@PAVCShaderParam@LIGHTING_WORLD@@V?$CUtlMemory@PAVCShaderParam@LIGHTING_WORLD@@H@@@@QAEXXZ 1009ed20 f i lighting_world.obj
 0002:00035db0       ?Purge@?$CUtlMemory@PAVCShaderParam@LIGHTING_WORLD@@H@@QAEXXZ 1009edb0 f i lighting_world.obj
 0002:00035e60       ??$Destruct@PAVCShaderParam@LIGHTING_WORLD@@@@YAXPAPAVCShaderParam@LIGHTING_WORLD@@@Z 1009ee60 f i lighting_world.obj
 0002:00035ec0       ??0?$CUtlVector@PAVCShaderParam@LIGHTING_VOLUME@@V?$CUtlMemory@PAVCShaderParam@LIGHTING_VOLUME@@H@@@@QAE@HH@Z 1009eec0 f i lighting_volume.obj
 0002:00035f40       ?ResetDbgInfo@?$CUtlVector@PAVCShaderParam@LIGHTING_VOLUME@@V?$CUtlMemory@PAVCShaderParam@LIGHTING_VOLUME@@H@@@@IAEXXZ 1009ef40 f i lighting_volume.obj
 0002:00035fa0       ?Base@?$CUtlVector@PAVCShaderParam@LIGHTING_VOLUME@@V?$CUtlMemory@PAVCShaderParam@LIGHTING_VOLUME@@H@@@@QAEPAPAVCShaderParam@LIGHTING_VOLUME@@XZ 1009efa0 f i lighting_volume.obj
 0002:00035ff0       ??0?$CUtlMemory@PAVCShaderParam@LIGHTING_VOLUME@@H@@QAE@HH@Z 1009eff0 f i lighting_volume.obj
 0002:000361e0       ?Base@?$CUtlMemory@PAVCShaderParam@LIGHTING_VOLUME@@H@@QAEPAPAVCShaderParam@LIGHTING_VOLUME@@XZ 1009f1e0 f i lighting_volume.obj
 0002:00036300       ?ValidateGrowSize@?$CUtlMemory@PAVCShaderParam@LIGHTING_VOLUME@@H@@IAEXXZ 1009f300 f i lighting_volume.obj
 0002:00036340       ?IsReadOnly@?$CUtlMemory@PAVCShaderParam@LIGHTING_VOLUME@@H@@QBE_NXZ 1009f340 f i lighting_volume.obj
 0002:00036390       ??$MemAllocClassName@V?$CUtlMemory@PAVCShaderParam@LIGHTING_VOLUME@@H@@@@YAPBDPAV?$CUtlMemory@PAVCShaderParam@LIGHTING_VOLUME@@H@@@Z 1009f390 f i lighting_volume.obj
 0002:00036410       ??0CShaderParam@LIGHTING_VOLUME@@QAE@PBDW4ShaderParamType_t@@00H@Z 1009f410 f i lighting_volume.obj
 0002:000364d0       ?Count@?$CUtlVector@PAVCShaderParam@LIGHTING_VOLUME@@V?$CUtlMemory@PAVCShaderParam@LIGHTING_VOLUME@@H@@@@QBEHXZ 1009f4d0 f i lighting_volume.obj
 0002:00036510       ?AddToTail@?$CUtlVector@PAVCShaderParam@LIGHTING_VOLUME@@V?$CUtlMemory@PAVCShaderParam@LIGHTING_VOLUME@@H@@@@QAEHABQAVCShaderParam@LIGHTING_VOLUME@@@Z 1009f510 f i lighting_volume.obj
 0002:00036680       ?InsertBefore@?$CUtlVector@PAVCShaderParam@LIGHTING_VOLUME@@V?$CUtlMemory@PAVCShaderParam@LIGHTING_VOLUME@@H@@@@QAEHHABQAVCShaderParam@LIGHTING_VOLUME@@@Z 1009f680 f i lighting_volume.obj
 0002:00036900       ?Element@?$CUtlVector@PAVCShaderParam@LIGHTING_VOLUME@@V?$CUtlMemory@PAVCShaderParam@LIGHTING_VOLUME@@H@@@@QAEAAPAVCShaderParam@LIGHTING_VOLUME@@H@Z 1009f900 f i lighting_volume.obj
 0002:00036a30       ??A?$CUtlMemory@PAVCShaderParam@LIGHTING_VOLUME@@H@@QAEAAPAVCShaderParam@LIGHTING_VOLUME@@H@Z 1009fa30 f i lighting_volume.obj
 0002:00036c30       ?IsValidIndex@?$CUtlVector@PAVCShaderParam@LIGHTING_VOLUME@@V?$CUtlMemory@PAVCShaderParam@LIGHTING_VOLUME@@H@@@@QBE_NH@Z 1009fc30 f i lighting_volume.obj
 0002:00036ca0       ?GrowVector@?$CUtlVector@PAVCShaderParam@LIGHTING_VOLUME@@V?$CUtlMemory@PAVCShaderParam@LIGHTING_VOLUME@@H@@@@IAEXH@Z 1009fca0 f i lighting_volume.obj
 0002:00036dc0       ?ShiftElementsRight@?$CUtlVector@PAVCShaderParam@LIGHTING_VOLUME@@V?$CUtlMemory@PAVCShaderParam@LIGHTING_VOLUME@@H@@@@IAEXHH@Z 1009fdc0 f i lighting_volume.obj
 0002:00036f60       ??$CopyConstruct@PAVCShaderParam@LIGHTING_VOLUME@@@@YAPAPAVCShaderParam@LIGHTING_VOLUME@@PAPAV01@ABQAV01@@Z 1009ff60 f i lighting_volume.obj
 0002:00037000       ?IsIdxValid@?$CUtlMemory@PAVCShaderParam@LIGHTING_VOLUME@@H@@QBE_NH@Z 100a0000 f i lighting_volume.obj
 0002:00037080       ?NumAllocated@?$CUtlMemory@PAVCShaderParam@LIGHTING_VOLUME@@H@@QBEHXZ 100a0080 f i lighting_volume.obj
 0002:000370c0       ?Grow@?$CUtlMemory@PAVCShaderParam@LIGHTING_VOLUME@@H@@QAEXH@Z 100a00c0 f i lighting_volume.obj
 0002:00037730       ?IsExternallyAllocated@?$CUtlMemory@PAVCShaderParam@LIGHTING_VOLUME@@H@@QBE_NXZ 100a0730 f i lighting_volume.obj
 0002:00037780       ??$MemAllocClassName@V?$CUtlVector@PAVCShaderParam@LIGHTING_VOLUME@@V?$CUtlMemory@PAVCShaderParam@LIGHTING_VOLUME@@H@@@@@@YAPBDPAV?$CUtlVector@PAVCShaderParam@LIGHTING_VOLUME@@V?$CUtlMemory@PAVCShaderParam@LIGHTING_VOLUME@@H@@@@@Z 100a0780 f i lighting_volume.obj
 0002:00037800       ??0CShader@LIGHTING_VOLUME@@QAE@XZ 100a0800 f i lighting_volume.obj
 0002:00037860       ?OnInitShaderParams@CShader@LIGHTING_VOLUME@@UAEXPAPAVIMaterialVar@@PBD@Z 100a0860 f i lighting_volume.obj
 0002:00037920       ?SetupParmsLightPassVolum@CShader@LIGHTING_VOLUME@@QAEXAAUlightPassParms@@@Z 100a0920 f i lighting_volume.obj
 0002:00037990       ??BCShaderParam@LIGHTING_VOLUME@@QAEHXZ 100a0990 f i lighting_volume.obj
 0002:000379d0       ?GetName@CShader@LIGHTING_VOLUME@@UBEPBDXZ 100a09d0 f i lighting_volume.obj
 0002:00037a10       ?GetFlags@CShader@LIGHTING_VOLUME@@UBEHXZ 100a0a10 f i lighting_volume.obj
 0002:00037a50       ?GetParamCount@CShader@LIGHTING_VOLUME@@UBEHXZ 100a0a50 f i lighting_volume.obj
 0002:00037ab0       ?GetParamInfo@CShader@LIGHTING_VOLUME@@UBEABUShaderParamInfo_t@@H@Z 100a0ab0 f i lighting_volume.obj
 0002:00037b50       ?GetInfo@CShaderParam@LIGHTING_VOLUME@@QBEABUShaderParamInfo_t@@XZ 100a0b50 f i lighting_volume.obj
 0002:00037b90       ?OnInitShaderInstance@CShader@LIGHTING_VOLUME@@UAEXPAPAVIMaterialVar@@PAVIShaderInit@@PBD@Z 100a0b90 f i lighting_volume.obj
 0002:00037c50       ?GetFallbackShader@CShader@LIGHTING_VOLUME@@UBEPBDPAPAVIMaterialVar@@@Z 100a0c50 f i lighting_volume.obj
 0002:00037c90       ?OnDrawElements@CShader@LIGHTING_VOLUME@@UAEXPAPAVIMaterialVar@@PAVIShaderShadow@@PAVIShaderDynamicAPI@@W4VertexCompressionType_t@@PAPAVCBasePerMaterialContextData@@@Z 100a0c90 f i lighting_volume.obj
 0002:00037d50       ??A?$CUtlVector@PAVCShaderParam@LIGHTING_VOLUME@@V?$CUtlMemory@PAVCShaderParam@LIGHTING_VOLUME@@H@@@@QAEAAPAVCShaderParam@LIGHTING_VOLUME@@H@Z 100a0d50 f i lighting_volume.obj
 0002:00037e80       ??1?$CUtlVector@PAVCShaderParam@LIGHTING_VOLUME@@V?$CUtlMemory@PAVCShaderParam@LIGHTING_VOLUME@@H@@@@QAE@XZ 100a0e80 f i lighting_volume.obj
 0002:00037ee0       ?Purge@?$CUtlVector@PAVCShaderParam@LIGHTING_VOLUME@@V?$CUtlMemory@PAVCShaderParam@LIGHTING_VOLUME@@H@@@@QAEXXZ 100a0ee0 f i lighting_volume.obj
 0002:00037f50       ??1?$CUtlMemory@PAVCShaderParam@LIGHTING_VOLUME@@H@@QAE@XZ 100a0f50 f i lighting_volume.obj
 0002:00037fa0       ?RemoveAll@?$CUtlVector@PAVCShaderParam@LIGHTING_VOLUME@@V?$CUtlMemory@PAVCShaderParam@LIGHTING_VOLUME@@H@@@@QAEXXZ 100a0fa0 f i lighting_volume.obj
 0002:00038030       ?Purge@?$CUtlMemory@PAVCShaderParam@LIGHTING_VOLUME@@H@@QAEXXZ 100a1030 f i lighting_volume.obj
 0002:000380e0       ??$Destruct@PAVCShaderParam@LIGHTING_VOLUME@@@@YAXPAPAVCShaderParam@LIGHTING_VOLUME@@@Z 100a10e0 f i lighting_volume.obj
 0002:00038140       ??0?$CUtlVector@PAVCShaderParam@RADIOSITY_BLEND@@V?$CUtlMemory@PAVCShaderParam@RADIOSITY_BLEND@@H@@@@QAE@HH@Z 100a1140 f i radiosity_blend.obj
 0002:000381c0       ?ResetDbgInfo@?$CUtlVector@PAVCShaderParam@RADIOSITY_BLEND@@V?$CUtlMemory@PAVCShaderParam@RADIOSITY_BLEND@@H@@@@IAEXXZ 100a11c0 f i radiosity_blend.obj
 0002:00038220       ?Base@?$CUtlVector@PAVCShaderParam@RADIOSITY_BLEND@@V?$CUtlMemory@PAVCShaderParam@RADIOSITY_BLEND@@H@@@@QAEPAPAVCShaderParam@RADIOSITY_BLEND@@XZ 100a1220 f i radiosity_blend.obj
 0002:00038270       ??0?$CUtlMemory@PAVCShaderParam@RADIOSITY_BLEND@@H@@QAE@HH@Z 100a1270 f i radiosity_blend.obj
 0002:00038460       ?Base@?$CUtlMemory@PAVCShaderParam@RADIOSITY_BLEND@@H@@QAEPAPAVCShaderParam@RADIOSITY_BLEND@@XZ 100a1460 f i radiosity_blend.obj
 0002:00038580       ?ValidateGrowSize@?$CUtlMemory@PAVCShaderParam@RADIOSITY_BLEND@@H@@IAEXXZ 100a1580 f i radiosity_blend.obj
 0002:000385c0       ?IsReadOnly@?$CUtlMemory@PAVCShaderParam@RADIOSITY_BLEND@@H@@QBE_NXZ 100a15c0 f i radiosity_blend.obj
 0002:00038610       ??$MemAllocClassName@V?$CUtlMemory@PAVCShaderParam@RADIOSITY_BLEND@@H@@@@YAPBDPAV?$CUtlMemory@PAVCShaderParam@RADIOSITY_BLEND@@H@@@Z 100a1610 f i radiosity_blend.obj
 0002:00038690       ??0CShader@RADIOSITY_BLEND@@QAE@XZ 100a1690 f i radiosity_blend.obj
 0002:000386f0       ?OnInitShaderParams@CShader@RADIOSITY_BLEND@@UAEXPAPAVIMaterialVar@@PBD@Z 100a16f0 f i radiosity_blend.obj
 0002:00038730       ?GetName@CShader@RADIOSITY_BLEND@@UBEPBDXZ 100a1730 f i radiosity_blend.obj
 0002:00038770       ?GetFlags@CShader@RADIOSITY_BLEND@@UBEHXZ 100a1770 f i radiosity_blend.obj
 0002:000387b0       ?GetParamCount@CShader@RADIOSITY_BLEND@@UBEHXZ 100a17b0 f i radiosity_blend.obj
 0002:00038810       ?GetParamInfo@CShader@RADIOSITY_BLEND@@UBEABUShaderParamInfo_t@@H@Z 100a1810 f i radiosity_blend.obj
 0002:000388b0       ?GetInfo@CShaderParam@RADIOSITY_BLEND@@QBEABUShaderParamInfo_t@@XZ 100a18b0 f i radiosity_blend.obj
 0002:000388f0       ?OnInitShaderInstance@CShader@RADIOSITY_BLEND@@UAEXPAPAVIMaterialVar@@PAVIShaderInit@@PBD@Z 100a18f0 f i radiosity_blend.obj
 0002:00038930       ?GetFallbackShader@CShader@RADIOSITY_BLEND@@UBEPBDPAPAVIMaterialVar@@@Z 100a1930 f i radiosity_blend.obj
 0002:00038970       ?OnDrawElements@CShader@RADIOSITY_BLEND@@UAEXPAPAVIMaterialVar@@PAVIShaderShadow@@PAVIShaderDynamicAPI@@W4VertexCompressionType_t@@PAPAVCBasePerMaterialContextData@@@Z 100a1970 f i radiosity_blend.obj
 0002:000390d0       ?GetRadiosityData@CDeferredExtension@@QAEABUradiosityData_t@@XZ 100a20d0 f i radiosity_blend.obj
 0002:00039110       ??0radiosity_blend_ps30_Static_Index@@QAE@PAVIShaderShadow@@PAPAVIMaterialVar@@@Z 100a2110 f i radiosity_blend.obj
 0002:00039150       ?GetIndex@radiosity_blend_ps30_Static_Index@@QAEHXZ 100a2150 f i radiosity_blend.obj
 0002:00039190       ??0radiosity_blend_ps30_Dynamic_Index@@QAE@PAVIShaderDynamicAPI@@@Z 100a2190 f i radiosity_blend.obj
 0002:000391d0       ?GetIndex@radiosity_blend_ps30_Dynamic_Index@@QAEHXZ 100a21d0 f i radiosity_blend.obj
 0002:00039210       ??A?$CUtlVector@PAVCShaderParam@RADIOSITY_BLEND@@V?$CUtlMemory@PAVCShaderParam@RADIOSITY_BLEND@@H@@@@QAEAAPAVCShaderParam@RADIOSITY_BLEND@@H@Z 100a2210 f i radiosity_blend.obj
 0002:00039340       ?Count@?$CUtlVector@PAVCShaderParam@RADIOSITY_BLEND@@V?$CUtlMemory@PAVCShaderParam@RADIOSITY_BLEND@@H@@@@QBEHXZ 100a2340 f i radiosity_blend.obj
 0002:00039380       ??A?$CUtlMemory@PAVCShaderParam@RADIOSITY_BLEND@@H@@QAEAAPAVCShaderParam@RADIOSITY_BLEND@@H@Z 100a2380 f i radiosity_blend.obj
 0002:00039580       ?IsIdxValid@?$CUtlMemory@PAVCShaderParam@RADIOSITY_BLEND@@H@@QBE_NH@Z 100a2580 f i radiosity_blend.obj
 0002:00039600       ??1?$CUtlVector@PAVCShaderParam@RADIOSITY_BLEND@@V?$CUtlMemory@PAVCShaderParam@RADIOSITY_BLEND@@H@@@@QAE@XZ 100a2600 f i radiosity_blend.obj
 0002:00039660       ?Purge@?$CUtlVector@PAVCShaderParam@RADIOSITY_BLEND@@V?$CUtlMemory@PAVCShaderParam@RADIOSITY_BLEND@@H@@@@QAEXXZ 100a2660 f i radiosity_blend.obj
 0002:000396d0       ??1?$CUtlMemory@PAVCShaderParam@RADIOSITY_BLEND@@H@@QAE@XZ 100a26d0 f i radiosity_blend.obj
 0002:00039720       ?RemoveAll@?$CUtlVector@PAVCShaderParam@RADIOSITY_BLEND@@V?$CUtlMemory@PAVCShaderParam@RADIOSITY_BLEND@@H@@@@QAEXXZ 100a2720 f i radiosity_blend.obj
 0002:000397b0       ?Element@?$CUtlVector@PAVCShaderParam@RADIOSITY_BLEND@@V?$CUtlMemory@PAVCShaderParam@RADIOSITY_BLEND@@H@@@@QAEAAPAVCShaderParam@RADIOSITY_BLEND@@H@Z 100a27b0 f i radiosity_blend.obj
 0002:000398e0       ?Purge@?$CUtlMemory@PAVCShaderParam@RADIOSITY_BLEND@@H@@QAEXXZ 100a28e0 f i radiosity_blend.obj
 0002:00039990       ?IsExternallyAllocated@?$CUtlMemory@PAVCShaderParam@RADIOSITY_BLEND@@H@@QBE_NXZ 100a2990 f i radiosity_blend.obj
 0002:000399e0       ??$Destruct@PAVCShaderParam@RADIOSITY_BLEND@@@@YAXPAPAVCShaderParam@RADIOSITY_BLEND@@@Z 100a29e0 f i radiosity_blend.obj
 0002:00039a40       ??0?$CUtlVector@PAVCShaderParam@RADIOSITY_GLOBAL@@V?$CUtlMemory@PAVCShaderParam@RADIOSITY_GLOBAL@@H@@@@QAE@HH@Z 100a2a40 f i radiosity_global.obj
 0002:00039ac0       ?ResetDbgInfo@?$CUtlVector@PAVCShaderParam@RADIOSITY_GLOBAL@@V?$CUtlMemory@PAVCShaderParam@RADIOSITY_GLOBAL@@H@@@@IAEXXZ 100a2ac0 f i radiosity_global.obj
 0002:00039b20       ?Base@?$CUtlVector@PAVCShaderParam@RADIOSITY_GLOBAL@@V?$CUtlMemory@PAVCShaderParam@RADIOSITY_GLOBAL@@H@@@@QAEPAPAVCShaderParam@RADIOSITY_GLOBAL@@XZ 100a2b20 f i radiosity_global.obj
 0002:00039b70       ??0?$CUtlMemory@PAVCShaderParam@RADIOSITY_GLOBAL@@H@@QAE@HH@Z 100a2b70 f i radiosity_global.obj
 0002:00039d60       ?Base@?$CUtlMemory@PAVCShaderParam@RADIOSITY_GLOBAL@@H@@QAEPAPAVCShaderParam@RADIOSITY_GLOBAL@@XZ 100a2d60 f i radiosity_global.obj
 0002:00039e80       ?ValidateGrowSize@?$CUtlMemory@PAVCShaderParam@RADIOSITY_GLOBAL@@H@@IAEXXZ 100a2e80 f i radiosity_global.obj
 0002:00039ec0       ?IsReadOnly@?$CUtlMemory@PAVCShaderParam@RADIOSITY_GLOBAL@@H@@QBE_NXZ 100a2ec0 f i radiosity_global.obj
 0002:00039f10       ??$MemAllocClassName@V?$CUtlMemory@PAVCShaderParam@RADIOSITY_GLOBAL@@H@@@@YAPBDPAV?$CUtlMemory@PAVCShaderParam@RADIOSITY_GLOBAL@@H@@@Z 100a2f10 f i radiosity_global.obj
 0002:00039f90       ??0CShader@RADIOSITY_GLOBAL@@QAE@XZ 100a2f90 f i radiosity_global.obj
 0002:00039ff0       ?OnInitShaderParams@CShader@RADIOSITY_GLOBAL@@UAEXPAPAVIMaterialVar@@PBD@Z 100a2ff0 f i radiosity_global.obj
 0002:0003a030       ?GetName@CShader@RADIOSITY_GLOBAL@@UBEPBDXZ 100a3030 f i radiosity_global.obj
 0002:0003a070       ?GetFlags@CShader@RADIOSITY_GLOBAL@@UBEHXZ 100a3070 f i radiosity_global.obj
 0002:0003a0b0       ?GetParamCount@CShader@RADIOSITY_GLOBAL@@UBEHXZ 100a30b0 f i radiosity_global.obj
 0002:0003a110       ?GetParamInfo@CShader@RADIOSITY_GLOBAL@@UBEABUShaderParamInfo_t@@H@Z 100a3110 f i radiosity_global.obj
 0002:0003a1b0       ?GetInfo@CShaderParam@RADIOSITY_GLOBAL@@QBEABUShaderParamInfo_t@@XZ 100a31b0 f i radiosity_global.obj
 0002:0003a1f0       ?OnInitShaderInstance@CShader@RADIOSITY_GLOBAL@@UAEXPAPAVIMaterialVar@@PAVIShaderInit@@PBD@Z 100a31f0 f i radiosity_global.obj
 0002:0003a230       ?GetFallbackShader@CShader@RADIOSITY_GLOBAL@@UBEPBDPAPAVIMaterialVar@@@Z 100a3230 f i radiosity_global.obj
 0002:0003a270       ?OnDrawElements@CShader@RADIOSITY_GLOBAL@@UAEXPAPAVIMaterialVar@@PAVIShaderShadow@@PAVIShaderDynamicAPI@@W4VertexCompressionType_t@@PAPAVCBasePerMaterialContextData@@@Z 100a3270 f i radiosity_global.obj
 0002:0003a8e0       ?GetTexture_ShadowRad_Ortho_Albedo@CDeferredExtension@@QAEPAVITexture@@XZ 100a38e0 f i radiosity_global.obj
 0002:0003a920       ?GetTexture_ShadowRad_Ortho_Normal@CDeferredExtension@@QAEPAVITexture@@XZ 100a3920 f i radiosity_global.obj
 0002:0003a960       ?CommitShadowProjectionConstants_Ortho_Single@@YAXPAVIShaderDynamicAPI@@HH@Z 100a3960 f i radiosity_global.obj
 0002:0003ab80       ??0radiosity_gen_global_ps30_Static_Index@@QAE@PAVIShaderShadow@@PAPAVIMaterialVar@@@Z 100a3b80 f i radiosity_global.obj
 0002:0003abc0       ?GetIndex@radiosity_gen_global_ps30_Static_Index@@QAEHXZ 100a3bc0 f i radiosity_global.obj
 0002:0003ac00       ?SetCASCADE@radiosity_gen_global_ps30_Dynamic_Index@@QAEXH@Z 100a3c00 f i radiosity_global.obj
 0002:0003ad20       ??0radiosity_gen_global_ps30_Dynamic_Index@@QAE@PAVIShaderDynamicAPI@@@Z 100a3d20 f i radiosity_global.obj
 0002:0003ad70       ?GetIndex@radiosity_gen_global_ps30_Dynamic_Index@@QAEHXZ 100a3d70 f i radiosity_global.obj
 0002:0003ae90       ??0radiosity_gen_vs30_Static_Index@@QAE@PAVIShaderShadow@@PAPAVIMaterialVar@@@Z 100a3e90 f i radiosity_global.obj
 0002:0003aed0       ?GetIndex@radiosity_gen_vs30_Static_Index@@QAEHXZ 100a3ed0 f i radiosity_global.obj
 0002:0003af10       ??0radiosity_gen_vs30_Dynamic_Index@@QAE@PAVIShaderDynamicAPI@@@Z 100a3f10 f i radiosity_global.obj
 0002:0003af50       ?GetIndex@radiosity_gen_vs30_Dynamic_Index@@QAEHXZ 100a3f50 f i radiosity_global.obj
 0002:0003af90       ??A?$CUtlVector@PAVCShaderParam@RADIOSITY_GLOBAL@@V?$CUtlMemory@PAVCShaderParam@RADIOSITY_GLOBAL@@H@@@@QAEAAPAVCShaderParam@RADIOSITY_GLOBAL@@H@Z 100a3f90 f i radiosity_global.obj
 0002:0003b0c0       ?Count@?$CUtlVector@PAVCShaderParam@RADIOSITY_GLOBAL@@V?$CUtlMemory@PAVCShaderParam@RADIOSITY_GLOBAL@@H@@@@QBEHXZ 100a40c0 f i radiosity_global.obj
 0002:0003b100       ??A?$CUtlMemory@PAVCShaderParam@RADIOSITY_GLOBAL@@H@@QAEAAPAVCShaderParam@RADIOSITY_GLOBAL@@H@Z 100a4100 f i radiosity_global.obj
 0002:0003b300       ?IsIdxValid@?$CUtlMemory@PAVCShaderParam@RADIOSITY_GLOBAL@@H@@QBE_NH@Z 100a4300 f i radiosity_global.obj
 0002:0003b380       ??1?$CUtlVector@PAVCShaderParam@RADIOSITY_GLOBAL@@V?$CUtlMemory@PAVCShaderParam@RADIOSITY_GLOBAL@@H@@@@QAE@XZ 100a4380 f i radiosity_global.obj
 0002:0003b3e0       ?Purge@?$CUtlVector@PAVCShaderParam@RADIOSITY_GLOBAL@@V?$CUtlMemory@PAVCShaderParam@RADIOSITY_GLOBAL@@H@@@@QAEXXZ 100a43e0 f i radiosity_global.obj
 0002:0003b450       ??1?$CUtlMemory@PAVCShaderParam@RADIOSITY_GLOBAL@@H@@QAE@XZ 100a4450 f i radiosity_global.obj
 0002:0003b4a0       ?RemoveAll@?$CUtlVector@PAVCShaderParam@RADIOSITY_GLOBAL@@V?$CUtlMemory@PAVCShaderParam@RADIOSITY_GLOBAL@@H@@@@QAEXXZ 100a44a0 f i radiosity_global.obj
 0002:0003b530       ?Element@?$CUtlVector@PAVCShaderParam@RADIOSITY_GLOBAL@@V?$CUtlMemory@PAVCShaderParam@RADIOSITY_GLOBAL@@H@@@@QAEAAPAVCShaderParam@RADIOSITY_GLOBAL@@H@Z 100a4530 f i radiosity_global.obj
 0002:0003b660       ?Purge@?$CUtlMemory@PAVCShaderParam@RADIOSITY_GLOBAL@@H@@QAEXXZ 100a4660 f i radiosity_global.obj
 0002:0003b710       ?IsExternallyAllocated@?$CUtlMemory@PAVCShaderParam@RADIOSITY_GLOBAL@@H@@QBE_NXZ 100a4710 f i radiosity_global.obj
 0002:0003b760       ??$Destruct@PAVCShaderParam@RADIOSITY_GLOBAL@@@@YAXPAPAVCShaderParam@RADIOSITY_GLOBAL@@@Z 100a4760 f i radiosity_global.obj
 0002:0003b7c0       ??0?$CUtlVector@PAVCShaderParam@RADIOSITY_PROPAGATE@@V?$CUtlMemory@PAVCShaderParam@RADIOSITY_PROPAGATE@@H@@@@QAE@HH@Z 100a47c0 f i radiosity_propagate.obj
 0002:0003b840       ?ResetDbgInfo@?$CUtlVector@PAVCShaderParam@RADIOSITY_PROPAGATE@@V?$CUtlMemory@PAVCShaderParam@RADIOSITY_PROPAGATE@@H@@@@IAEXXZ 100a4840 f i radiosity_propagate.obj
 0002:0003b8a0       ?Base@?$CUtlVector@PAVCShaderParam@RADIOSITY_PROPAGATE@@V?$CUtlMemory@PAVCShaderParam@RADIOSITY_PROPAGATE@@H@@@@QAEPAPAVCShaderParam@RADIOSITY_PROPAGATE@@XZ 100a48a0 f i radiosity_propagate.obj
 0002:0003b8f0       ??0?$CUtlMemory@PAVCShaderParam@RADIOSITY_PROPAGATE@@H@@QAE@HH@Z 100a48f0 f i radiosity_propagate.obj
 0002:0003bae0       ?Base@?$CUtlMemory@PAVCShaderParam@RADIOSITY_PROPAGATE@@H@@QAEPAPAVCShaderParam@RADIOSITY_PROPAGATE@@XZ 100a4ae0 f i radiosity_propagate.obj
 0002:0003bc00       ?ValidateGrowSize@?$CUtlMemory@PAVCShaderParam@RADIOSITY_PROPAGATE@@H@@IAEXXZ 100a4c00 f i radiosity_propagate.obj
 0002:0003bc40       ?IsReadOnly@?$CUtlMemory@PAVCShaderParam@RADIOSITY_PROPAGATE@@H@@QBE_NXZ 100a4c40 f i radiosity_propagate.obj
 0002:0003bc90       ??$MemAllocClassName@V?$CUtlMemory@PAVCShaderParam@RADIOSITY_PROPAGATE@@H@@@@YAPBDPAV?$CUtlMemory@PAVCShaderParam@RADIOSITY_PROPAGATE@@H@@@Z 100a4c90 f i radiosity_propagate.obj
 0002:0003bd10       ??0CShaderParam@RADIOSITY_PROPAGATE@@QAE@PBDW4ShaderParamType_t@@00H@Z 100a4d10 f i radiosity_propagate.obj
 0002:0003bdd0       ?Count@?$CUtlVector@PAVCShaderParam@RADIOSITY_PROPAGATE@@V?$CUtlMemory@PAVCShaderParam@RADIOSITY_PROPAGATE@@H@@@@QBEHXZ 100a4dd0 f i radiosity_propagate.obj
 0002:0003be10       ?AddToTail@?$CUtlVector@PAVCShaderParam@RADIOSITY_PROPAGATE@@V?$CUtlMemory@PAVCShaderParam@RADIOSITY_PROPAGATE@@H@@@@QAEHABQAVCShaderParam@RADIOSITY_PROPAGATE@@@Z 100a4e10 f i radiosity_propagate.obj
 0002:0003bf80       ?InsertBefore@?$CUtlVector@PAVCShaderParam@RADIOSITY_PROPAGATE@@V?$CUtlMemory@PAVCShaderParam@RADIOSITY_PROPAGATE@@H@@@@QAEHHABQAVCShaderParam@RADIOSITY_PROPAGATE@@@Z 100a4f80 f i radiosity_propagate.obj
 0002:0003c200       ?Element@?$CUtlVector@PAVCShaderParam@RADIOSITY_PROPAGATE@@V?$CUtlMemory@PAVCShaderParam@RADIOSITY_PROPAGATE@@H@@@@QAEAAPAVCShaderParam@RADIOSITY_PROPAGATE@@H@Z 100a5200 f i radiosity_propagate.obj
 0002:0003c330       ??A?$CUtlMemory@PAVCShaderParam@RADIOSITY_PROPAGATE@@H@@QAEAAPAVCShaderParam@RADIOSITY_PROPAGATE@@H@Z 100a5330 f i radiosity_propagate.obj
 0002:0003c530       ?IsValidIndex@?$CUtlVector@PAVCShaderParam@RADIOSITY_PROPAGATE@@V?$CUtlMemory@PAVCShaderParam@RADIOSITY_PROPAGATE@@H@@@@QBE_NH@Z 100a5530 f i radiosity_propagate.obj
 0002:0003c5a0       ?GrowVector@?$CUtlVector@PAVCShaderParam@RADIOSITY_PROPAGATE@@V?$CUtlMemory@PAVCShaderParam@RADIOSITY_PROPAGATE@@H@@@@IAEXH@Z 100a55a0 f i radiosity_propagate.obj
 0002:0003c6c0       ?ShiftElementsRight@?$CUtlVector@PAVCShaderParam@RADIOSITY_PROPAGATE@@V?$CUtlMemory@PAVCShaderParam@RADIOSITY_PROPAGATE@@H@@@@IAEXHH@Z 100a56c0 f i radiosity_propagate.obj
 0002:0003c860       ??$CopyConstruct@PAVCShaderParam@RADIOSITY_PROPAGATE@@@@YAPAPAVCShaderParam@RADIOSITY_PROPAGATE@@PAPAV01@ABQAV01@@Z 100a5860 f i radiosity_propagate.obj
 0002:0003c900       ?IsIdxValid@?$CUtlMemory@PAVCShaderParam@RADIOSITY_PROPAGATE@@H@@QBE_NH@Z 100a5900 f i radiosity_propagate.obj
 0002:0003c980       ?NumAllocated@?$CUtlMemory@PAVCShaderParam@RADIOSITY_PROPAGATE@@H@@QBEHXZ 100a5980 f i radiosity_propagate.obj
 0002:0003c9c0       ?Grow@?$CUtlMemory@PAVCShaderParam@RADIOSITY_PROPAGATE@@H@@QAEXH@Z 100a59c0 f i radiosity_propagate.obj
 0002:0003d030       ?IsExternallyAllocated@?$CUtlMemory@PAVCShaderParam@RADIOSITY_PROPAGATE@@H@@QBE_NXZ 100a6030 f i radiosity_propagate.obj
 0002:0003d080       ??$MemAllocClassName@V?$CUtlVector@PAVCShaderParam@RADIOSITY_PROPAGATE@@V?$CUtlMemory@PAVCShaderParam@RADIOSITY_PROPAGATE@@H@@@@@@YAPBDPAV?$CUtlVector@PAVCShaderParam@RADIOSITY_PROPAGATE@@V?$CUtlMemory@PAVCShaderParam@RADIOSITY_PROPAGATE@@H@@@@@Z 100a6080 f i radiosity_propagate.obj
 0002:0003d100       ??0CShader@RADIOSITY_PROPAGATE@@QAE@XZ 100a6100 f i radiosity_propagate.obj
 0002:0003d160       ?OnInitShaderParams@CShader@RADIOSITY_PROPAGATE@@UAEXPAPAVIMaterialVar@@PBD@Z 100a6160 f i radiosity_propagate.obj
 0002:0003d1a0       ?GetName@CShader@RADIOSITY_PROPAGATE@@UBEPBDXZ 100a61a0 f i radiosity_propagate.obj
 0002:0003d1e0       ?GetFlags@CShader@RADIOSITY_PROPAGATE@@UBEHXZ 100a61e0 f i radiosity_propagate.obj
 0002:0003d220       ?GetParamCount@CShader@RADIOSITY_PROPAGATE@@UBEHXZ 100a6220 f i radiosity_propagate.obj
 0002:0003d280       ?GetParamInfo@CShader@RADIOSITY_PROPAGATE@@UBEABUShaderParamInfo_t@@H@Z 100a6280 f i radiosity_propagate.obj
 0002:0003d320       ?GetInfo@CShaderParam@RADIOSITY_PROPAGATE@@QBEABUShaderParamInfo_t@@XZ 100a6320 f i radiosity_propagate.obj
 0002:0003d360       ?OnInitShaderInstance@CShader@RADIOSITY_PROPAGATE@@UAEXPAPAVIMaterialVar@@PAVIShaderInit@@PBD@Z 100a6360 f i radiosity_propagate.obj
 0002:0003d630       ??BCShaderParam@RADIOSITY_PROPAGATE@@QAEHXZ 100a6630 f i radiosity_propagate.obj
 0002:0003d670       ?GetFallbackShader@CShader@RADIOSITY_PROPAGATE@@UBEPBDPAPAVIMaterialVar@@@Z 100a6670 f i radiosity_propagate.obj
 0002:0003d6b0       ?OnDrawElements@CShader@RADIOSITY_PROPAGATE@@UAEXPAPAVIMaterialVar@@PAVIShaderShadow@@PAVIShaderDynamicAPI@@W4VertexCompressionType_t@@PAPAVCBasePerMaterialContextData@@@Z 100a66b0 f i radiosity_propagate.obj
 0002:0003dc10       ?SetBLUR@radiosity_propagate_ps30_Static_Index@@QAEXH@Z 100a6c10 f i radiosity_propagate.obj
 0002:0003dd30       ??0radiosity_propagate_ps30_Static_Index@@QAE@PAVIShaderShadow@@PAPAVIMaterialVar@@@Z 100a6d30 f i radiosity_propagate.obj
 0002:0003dd80       ?GetIndex@radiosity_propagate_ps30_Static_Index@@QAEHXZ 100a6d80 f i radiosity_propagate.obj
 0002:0003dea0       ??0radiosity_propagate_ps30_Dynamic_Index@@QAE@PAVIShaderDynamicAPI@@@Z 100a6ea0 f i radiosity_propagate.obj
 0002:0003dee0       ?GetIndex@radiosity_propagate_ps30_Dynamic_Index@@QAEHXZ 100a6ee0 f i radiosity_propagate.obj
 0002:0003df20       ??0radiosity_propagate_vs30_Static_Index@@QAE@PAVIShaderShadow@@PAPAVIMaterialVar@@@Z 100a6f20 f i radiosity_propagate.obj
 0002:0003df60       ?GetIndex@radiosity_propagate_vs30_Static_Index@@QAEHXZ 100a6f60 f i radiosity_propagate.obj
 0002:0003dfa0       ??0radiosity_propagate_vs30_Dynamic_Index@@QAE@PAVIShaderDynamicAPI@@@Z 100a6fa0 f i radiosity_propagate.obj
 0002:0003dfe0       ?GetIndex@radiosity_propagate_vs30_Dynamic_Index@@QAEHXZ 100a6fe0 f i radiosity_propagate.obj
 0002:0003e020       ??A?$CUtlVector@PAVCShaderParam@RADIOSITY_PROPAGATE@@V?$CUtlMemory@PAVCShaderParam@RADIOSITY_PROPAGATE@@H@@@@QAEAAPAVCShaderParam@RADIOSITY_PROPAGATE@@H@Z 100a7020 f i radiosity_propagate.obj
 0002:0003e150       ??1?$CUtlVector@PAVCShaderParam@RADIOSITY_PROPAGATE@@V?$CUtlMemory@PAVCShaderParam@RADIOSITY_PROPAGATE@@H@@@@QAE@XZ 100a7150 f i radiosity_propagate.obj
 0002:0003e1b0       ?Purge@?$CUtlVector@PAVCShaderParam@RADIOSITY_PROPAGATE@@V?$CUtlMemory@PAVCShaderParam@RADIOSITY_PROPAGATE@@H@@@@QAEXXZ 100a71b0 f i radiosity_propagate.obj
 0002:0003e220       ??1?$CUtlMemory@PAVCShaderParam@RADIOSITY_PROPAGATE@@H@@QAE@XZ 100a7220 f i radiosity_propagate.obj
 0002:0003e270       ?RemoveAll@?$CUtlVector@PAVCShaderParam@RADIOSITY_PROPAGATE@@V?$CUtlMemory@PAVCShaderParam@RADIOSITY_PROPAGATE@@H@@@@QAEXXZ 100a7270 f i radiosity_propagate.obj
 0002:0003e300       ?Purge@?$CUtlMemory@PAVCShaderParam@RADIOSITY_PROPAGATE@@H@@QAEXXZ 100a7300 f i radiosity_propagate.obj
 0002:0003e3b0       ??$Destruct@PAVCShaderParam@RADIOSITY_PROPAGATE@@@@YAXPAPAVCShaderParam@RADIOSITY_PROPAGATE@@@Z 100a73b0 f i radiosity_propagate.obj
 0002:0003e410       ??0?$CUtlVector@PAVCShaderParam@VOLUME_BLEND@@V?$CUtlMemory@PAVCShaderParam@VOLUME_BLEND@@H@@@@QAE@HH@Z 100a7410 f i volume_blend.obj
 0002:0003e490       ?ResetDbgInfo@?$CUtlVector@PAVCShaderParam@VOLUME_BLEND@@V?$CUtlMemory@PAVCShaderParam@VOLUME_BLEND@@H@@@@IAEXXZ 100a7490 f i volume_blend.obj
 0002:0003e4f0       ?Base@?$CUtlVector@PAVCShaderParam@VOLUME_BLEND@@V?$CUtlMemory@PAVCShaderParam@VOLUME_BLEND@@H@@@@QAEPAPAVCShaderParam@VOLUME_BLEND@@XZ 100a74f0 f i volume_blend.obj
 0002:0003e540       ??0?$CUtlMemory@PAVCShaderParam@VOLUME_BLEND@@H@@QAE@HH@Z 100a7540 f i volume_blend.obj
 0002:0003e730       ?Base@?$CUtlMemory@PAVCShaderParam@VOLUME_BLEND@@H@@QAEPAPAVCShaderParam@VOLUME_BLEND@@XZ 100a7730 f i volume_blend.obj
 0002:0003e850       ?ValidateGrowSize@?$CUtlMemory@PAVCShaderParam@VOLUME_BLEND@@H@@IAEXXZ 100a7850 f i volume_blend.obj
 0002:0003e890       ?IsReadOnly@?$CUtlMemory@PAVCShaderParam@VOLUME_BLEND@@H@@QBE_NXZ 100a7890 f i volume_blend.obj
 0002:0003e8e0       ??$MemAllocClassName@V?$CUtlMemory@PAVCShaderParam@VOLUME_BLEND@@H@@@@YAPBDPAV?$CUtlMemory@PAVCShaderParam@VOLUME_BLEND@@H@@@Z 100a78e0 f i volume_blend.obj
 0002:0003e960       ??0CShader@VOLUME_BLEND@@QAE@XZ 100a7960 f i volume_blend.obj
 0002:0003e9c0       ?OnInitShaderParams@CShader@VOLUME_BLEND@@UAEXPAPAVIMaterialVar@@PBD@Z 100a79c0 f i volume_blend.obj
 0002:0003ea00       ?GetName@CShader@VOLUME_BLEND@@UBEPBDXZ 100a7a00 f i volume_blend.obj
 0002:0003ea40       ?GetFlags@CShader@VOLUME_BLEND@@UBEHXZ 100a7a40 f i volume_blend.obj
 0002:0003ea80       ?GetParamCount@CShader@VOLUME_BLEND@@UBEHXZ 100a7a80 f i volume_blend.obj
 0002:0003eae0       ?GetParamInfo@CShader@VOLUME_BLEND@@UBEABUShaderParamInfo_t@@H@Z 100a7ae0 f i volume_blend.obj
 0002:0003eb80       ?GetInfo@CShaderParam@VOLUME_BLEND@@QBEABUShaderParamInfo_t@@XZ 100a7b80 f i volume_blend.obj
 0002:0003ebc0       ?OnInitShaderInstance@CShader@VOLUME_BLEND@@UAEXPAPAVIMaterialVar@@PAVIShaderInit@@PBD@Z 100a7bc0 f i volume_blend.obj
 0002:0003ed30       ?GetFallbackShader@CShader@VOLUME_BLEND@@UBEPBDPAPAVIMaterialVar@@@Z 100a7d30 f i volume_blend.obj
 0002:0003ed70       ?OnDrawElements@CShader@VOLUME_BLEND@@UAEXPAPAVIMaterialVar@@PAVIShaderShadow@@PAVIShaderDynamicAPI@@W4VertexCompressionType_t@@PAPAVCBasePerMaterialContextData@@@Z 100a7d70 f i volume_blend.obj
 0002:0003f1c0       ??0volume_blend_ps30_Static_Index@@QAE@PAVIShaderShadow@@PAPAVIMaterialVar@@@Z 100a81c0 f i volume_blend.obj
 0002:0003f200       ?GetIndex@volume_blend_ps30_Static_Index@@QAEHXZ 100a8200 f i volume_blend.obj
 0002:0003f240       ??0volume_blend_ps30_Dynamic_Index@@QAE@PAVIShaderDynamicAPI@@@Z 100a8240 f i volume_blend.obj
 0002:0003f280       ?GetIndex@volume_blend_ps30_Dynamic_Index@@QAEHXZ 100a8280 f i volume_blend.obj
 0002:0003f2c0       ??A?$CUtlVector@PAVCShaderParam@VOLUME_BLEND@@V?$CUtlMemory@PAVCShaderParam@VOLUME_BLEND@@H@@@@QAEAAPAVCShaderParam@VOLUME_BLEND@@H@Z 100a82c0 f i volume_blend.obj
 0002:0003f3f0       ?Count@?$CUtlVector@PAVCShaderParam@VOLUME_BLEND@@V?$CUtlMemory@PAVCShaderParam@VOLUME_BLEND@@H@@@@QBEHXZ 100a83f0 f i volume_blend.obj
 0002:0003f430       ??A?$CUtlMemory@PAVCShaderParam@VOLUME_BLEND@@H@@QAEAAPAVCShaderParam@VOLUME_BLEND@@H@Z 100a8430 f i volume_blend.obj
 0002:0003f630       ?IsIdxValid@?$CUtlMemory@PAVCShaderParam@VOLUME_BLEND@@H@@QBE_NH@Z 100a8630 f i volume_blend.obj
 0002:0003f6b0       ??1?$CUtlVector@PAVCShaderParam@VOLUME_BLEND@@V?$CUtlMemory@PAVCShaderParam@VOLUME_BLEND@@H@@@@QAE@XZ 100a86b0 f i volume_blend.obj
 0002:0003f710       ?Purge@?$CUtlVector@PAVCShaderParam@VOLUME_BLEND@@V?$CUtlMemory@PAVCShaderParam@VOLUME_BLEND@@H@@@@QAEXXZ 100a8710 f i volume_blend.obj
 0002:0003f780       ??1?$CUtlMemory@PAVCShaderParam@VOLUME_BLEND@@H@@QAE@XZ 100a8780 f i volume_blend.obj
 0002:0003f7d0       ?RemoveAll@?$CUtlVector@PAVCShaderParam@VOLUME_BLEND@@V?$CUtlMemory@PAVCShaderParam@VOLUME_BLEND@@H@@@@QAEXXZ 100a87d0 f i volume_blend.obj
 0002:0003f860       ?Element@?$CUtlVector@PAVCShaderParam@VOLUME_BLEND@@V?$CUtlMemory@PAVCShaderParam@VOLUME_BLEND@@H@@@@QAEAAPAVCShaderParam@VOLUME_BLEND@@H@Z 100a8860 f i volume_blend.obj
 0002:0003f990       ?Purge@?$CUtlMemory@PAVCShaderParam@VOLUME_BLEND@@H@@QAEXXZ 100a8990 f i volume_blend.obj
 0002:0003fa40       ?IsExternallyAllocated@?$CUtlMemory@PAVCShaderParam@VOLUME_BLEND@@H@@QBE_NXZ 100a8a40 f i volume_blend.obj
 0002:0003fa90       ??$Destruct@PAVCShaderParam@VOLUME_BLEND@@@@YAXPAPAVCShaderParam@VOLUME_BLEND@@@Z 100a8a90 f i volume_blend.obj
 0002:0003faf0       ??0?$CUtlVector@PAVCShaderParam@VOLUME_PREPASS@@V?$CUtlMemory@PAVCShaderParam@VOLUME_PREPASS@@H@@@@QAE@HH@Z 100a8af0 f i volume_prepass.obj
 0002:0003fb70       ?ResetDbgInfo@?$CUtlVector@PAVCShaderParam@VOLUME_PREPASS@@V?$CUtlMemory@PAVCShaderParam@VOLUME_PREPASS@@H@@@@IAEXXZ 100a8b70 f i volume_prepass.obj
 0002:0003fbd0       ?Base@?$CUtlVector@PAVCShaderParam@VOLUME_PREPASS@@V?$CUtlMemory@PAVCShaderParam@VOLUME_PREPASS@@H@@@@QAEPAPAVCShaderParam@VOLUME_PREPASS@@XZ 100a8bd0 f i volume_prepass.obj
 0002:0003fc20       ??0?$CUtlMemory@PAVCShaderParam@VOLUME_PREPASS@@H@@QAE@HH@Z 100a8c20 f i volume_prepass.obj
 0002:0003fe10       ?Base@?$CUtlMemory@PAVCShaderParam@VOLUME_PREPASS@@H@@QAEPAPAVCShaderParam@VOLUME_PREPASS@@XZ 100a8e10 f i volume_prepass.obj
 0002:0003ff30       ?ValidateGrowSize@?$CUtlMemory@PAVCShaderParam@VOLUME_PREPASS@@H@@IAEXXZ 100a8f30 f i volume_prepass.obj
 0002:0003ff70       ?IsReadOnly@?$CUtlMemory@PAVCShaderParam@VOLUME_PREPASS@@H@@QBE_NXZ 100a8f70 f i volume_prepass.obj
 0002:0003ffc0       ??$MemAllocClassName@V?$CUtlMemory@PAVCShaderParam@VOLUME_PREPASS@@H@@@@YAPBDPAV?$CUtlMemory@PAVCShaderParam@VOLUME_PREPASS@@H@@@Z 100a8fc0 f i volume_prepass.obj
 0002:00040040       ??0CShader@VOLUME_PREPASS@@QAE@XZ 100a9040 f i volume_prepass.obj
 0002:000400a0       ?OnInitShaderParams@CShader@VOLUME_PREPASS@@UAEXPAPAVIMaterialVar@@PBD@Z 100a90a0 f i volume_prepass.obj
 0002:000400e0       ?GetName@CShader@VOLUME_PREPASS@@UBEPBDXZ 100a90e0 f i volume_prepass.obj
 0002:00040120       ?GetFlags@CShader@VOLUME_PREPASS@@UBEHXZ 100a9120 f i volume_prepass.obj
 0002:00040160       ?GetParamCount@CShader@VOLUME_PREPASS@@UBEHXZ 100a9160 f i volume_prepass.obj
 0002:000401c0       ?GetParamInfo@CShader@VOLUME_PREPASS@@UBEABUShaderParamInfo_t@@H@Z 100a91c0 f i volume_prepass.obj
 0002:00040260       ?GetInfo@CShaderParam@VOLUME_PREPASS@@QBEABUShaderParamInfo_t@@XZ 100a9260 f i volume_prepass.obj
 0002:000402a0       ?OnInitShaderInstance@CShader@VOLUME_PREPASS@@UAEXPAPAVIMaterialVar@@PAVIShaderInit@@PBD@Z 100a92a0 f i volume_prepass.obj
 0002:000402e0       ?GetFallbackShader@CShader@VOLUME_PREPASS@@UBEPBDPAPAVIMaterialVar@@@Z 100a92e0 f i volume_prepass.obj
 0002:00040320       ?OnDrawElements@CShader@VOLUME_PREPASS@@UAEXPAPAVIMaterialVar@@PAVIShaderShadow@@PAVIShaderDynamicAPI@@W4VertexCompressionType_t@@PAPAVCBasePerMaterialContextData@@@Z 100a9320 f i volume_prepass.obj
 0002:00040890       ??0volume_prepass_vs30_Static_Index@@QAE@PAVIShaderShadow@@PAPAVIMaterialVar@@@Z 100a9890 f i volume_prepass.obj
 0002:000408d0       ?GetIndex@volume_prepass_vs30_Static_Index@@QAEHXZ 100a98d0 f i volume_prepass.obj
 0002:00040910       ??0volume_prepass_vs30_Dynamic_Index@@QAE@PAVIShaderDynamicAPI@@@Z 100a9910 f i volume_prepass.obj
 0002:00040950       ?GetIndex@volume_prepass_vs30_Dynamic_Index@@QAEHXZ 100a9950 f i volume_prepass.obj
 0002:00040990       ??0volume_prepass_ps30_Static_Index@@QAE@PAVIShaderShadow@@PAPAVIMaterialVar@@@Z 100a9990 f i volume_prepass.obj
 0002:000409d0       ?GetIndex@volume_prepass_ps30_Static_Index@@QAEHXZ 100a99d0 f i volume_prepass.obj
 0002:00040a10       ??0volume_prepass_ps30_Dynamic_Index@@QAE@PAVIShaderDynamicAPI@@@Z 100a9a10 f i volume_prepass.obj
 0002:00040a50       ?GetIndex@volume_prepass_ps30_Dynamic_Index@@QAEHXZ 100a9a50 f i volume_prepass.obj
 0002:00040a90       ??A?$CUtlVector@PAVCShaderParam@VOLUME_PREPASS@@V?$CUtlMemory@PAVCShaderParam@VOLUME_PREPASS@@H@@@@QAEAAPAVCShaderParam@VOLUME_PREPASS@@H@Z 100a9a90 f i volume_prepass.obj
 0002:00040bc0       ?Count@?$CUtlVector@PAVCShaderParam@VOLUME_PREPASS@@V?$CUtlMemory@PAVCShaderParam@VOLUME_PREPASS@@H@@@@QBEHXZ 100a9bc0 f i volume_prepass.obj
 0002:00040c00       ??A?$CUtlMemory@PAVCShaderParam@VOLUME_PREPASS@@H@@QAEAAPAVCShaderParam@VOLUME_PREPASS@@H@Z 100a9c00 f i volume_prepass.obj
 0002:00040e00       ?IsIdxValid@?$CUtlMemory@PAVCShaderParam@VOLUME_PREPASS@@H@@QBE_NH@Z 100a9e00 f i volume_prepass.obj
 0002:00040e80       ??1?$CUtlVector@PAVCShaderParam@VOLUME_PREPASS@@V?$CUtlMemory@PAVCShaderParam@VOLUME_PREPASS@@H@@@@QAE@XZ 100a9e80 f i volume_prepass.obj
 0002:00040ee0       ?Purge@?$CUtlVector@PAVCShaderParam@VOLUME_PREPASS@@V?$CUtlMemory@PAVCShaderParam@VOLUME_PREPASS@@H@@@@QAEXXZ 100a9ee0 f i volume_prepass.obj
 0002:00040f50       ??1?$CUtlMemory@PAVCShaderParam@VOLUME_PREPASS@@H@@QAE@XZ 100a9f50 f i volume_prepass.obj
 0002:00040fa0       ?RemoveAll@?$CUtlVector@PAVCShaderParam@VOLUME_PREPASS@@V?$CUtlMemory@PAVCShaderParam@VOLUME_PREPASS@@H@@@@QAEXXZ 100a9fa0 f i volume_prepass.obj
 0002:00041030       ?Element@?$CUtlVector@PAVCShaderParam@VOLUME_PREPASS@@V?$CUtlMemory@PAVCShaderParam@VOLUME_PREPASS@@H@@@@QAEAAPAVCShaderParam@VOLUME_PREPASS@@H@Z 100aa030 f i volume_prepass.obj
 0002:00041160       ?Purge@?$CUtlMemory@PAVCShaderParam@VOLUME_PREPASS@@H@@QAEXXZ 100aa160 f i volume_prepass.obj
 0002:00041210       ?IsExternallyAllocated@?$CUtlMemory@PAVCShaderParam@VOLUME_PREPASS@@H@@QBE_NXZ 100aa210 f i volume_prepass.obj
 0002:00041260       ??$Destruct@PAVCShaderParam@VOLUME_PREPASS@@@@YAXPAPAVCShaderParam@VOLUME_PREPASS@@@Z 100aa260 f i volume_prepass.obj
 0002:000412c0       _floorf                    100aa2c0 f i mathlib:color_conversion.obj
 0002:000412e0       _powf                      100aa2e0 f i mathlib:color_conversion.obj
 0002:000412f0       ?floor@@YAMM@Z             100aa2f0 f i mathlib:color_conversion.obj
 0002:00041310       ?pow@@YAMMM@Z              100aa310 f i mathlib:color_conversion.obj
 0002:00041320       ?TexLightToLinear@@YAMHH@Z 100aa320 f i mathlib:color_conversion.obj
 0002:00041340       ?RoundFloatToInt@@YAHM@Z   100aa340 f i mathlib:color_conversion.obj
 0002:00041350       ?GammaToLinearFullRange@@YAMM@Z 100aa350 f   mathlib:color_conversion.obj
 0002:00041370       ?LinearToGammaFullRange@@YAMM@Z 100aa370 f   mathlib:color_conversion.obj
 0002:00041390       ?GammaToLinear@@YAMM@Z     100aa390 f   mathlib:color_conversion.obj
 0002:000413f0       ?LinearToGamma@@YAMM@Z     100aa3f0 f   mathlib:color_conversion.obj
 0002:00041450       ?SrgbGammaToLinear@@YAMM@Z 100aa450 f   mathlib:color_conversion.obj
 0002:000414e0       ?SrgbLinearToGamma@@YAMM@Z 100aa4e0 f   mathlib:color_conversion.obj
 0002:00041570       ?X360GammaToLinear@@YAMM@Z 100aa570 f   mathlib:color_conversion.obj
 0002:000416f0       ?X360LinearToGamma@@YAMM@Z 100aa6f0 f   mathlib:color_conversion.obj
 0002:000417e0       ?SrgbGammaTo360Gamma@@YAMM@Z 100aa7e0 f   mathlib:color_conversion.obj
 0002:00041870       ?TextureToLinear@@YAMH@Z   100aa870 f   mathlib:color_conversion.obj
 0002:000418a0       ?LinearToTexture@@YAHM@Z   100aa8a0 f   mathlib:color_conversion.obj
 0002:000418f0       ?LinearToScreenGamma@@YAHM@Z 100aa8f0 f   mathlib:color_conversion.obj
 0002:00041940       ?ColorRGBExp32ToVector@@YAXABUColorRGBExp32@@AAVVector@@@Z 100aa940 f   mathlib:color_conversion.obj
 0002:00041a00       ?VectorToColorRGBExp32@@YAXABVVector@@AAUColorRGBExp32@@@Z 100aaa00 f   mathlib:color_conversion.obj
 0002:00041ad0       ?BuildGammaTable@@YAXMMMH@Z 100aaad0 f   mathlib:color_conversion.obj
 0002:00041f00       ?FloatMakePositive@@YAMM@Z 100aaf00 f i mathlib:vmatrix.obj
 0002:00041f10       _acosf                     100aaf10 f i mathlib:vmatrix.obj
 0002:00041f20       _atan2f                    100aaf20 f i mathlib:vmatrix.obj
 0002:00041f30       _cosf                      100aaf30 f i mathlib:vmatrix.obj
 0002:00041f40       _sinf                      100aaf40 f i mathlib:vmatrix.obj
 0002:00041f50       _sqrtf                     100aaf50 f i mathlib:vmatrix.obj
 0002:00041f60       _tanf                      100aaf60 f i mathlib:vmatrix.obj
 0002:00041f70       ?acos@@YAMM@Z              100aaf70 f i mathlib:vmatrix.obj
 0002:00041f80       ?cos@@YAMM@Z               100aaf80 f i mathlib:vmatrix.obj
 0002:00041f90       ?sin@@YAMM@Z               100aaf90 f i mathlib:vmatrix.obj
 0002:00041fa0       ?sqrt@@YAMM@Z              100aafa0 f i mathlib:vmatrix.obj
 0002:00041fb0       ?FastSqrt@@YAMM@Z          100aafb0 f i mathlib:vmatrix.obj
 0002:00041fe0       ?LengthSqr@Vector@@QBEMXZ  100aafe0 f i mathlib:vmatrix.obj
 0002:00042000       ??0Vector@@QAE@MMM@Z       100ab000 f i mathlib:vmatrix.obj
 0002:00042030       ?Init@Vector@@QAEXMMM@Z    100ab030 f i mathlib:vmatrix.obj
 0002:00042060       ??AVector@@QAEAAMH@Z       100ab060 f i mathlib:vmatrix.obj
 0002:00042070       ?VectorCopy@@YAXABVVector@@AAV1@@Z 100ab070 f i mathlib:vmatrix.obj
 0002:00042090       ??XVector@@QAEAAV0@M@Z     100ab090 f i mathlib:vmatrix.obj
 0002:000420d0       ??_0Vector@@QAEAAV0@M@Z    100ab0d0 f i mathlib:vmatrix.obj
 0002:00042120       ?VectorSubtract@@YAXABVVector@@0AAV1@@Z 100ab120 f i mathlib:vmatrix.obj
 0002:00042170       ?VectorMultiply@@YAXABVVector@@MAAV1@@Z 100ab170 f i mathlib:vmatrix.obj
 0002:000421c0       ?DotProduct@@YAMABVVector@@0@Z 100ab1c0 f i mathlib:vmatrix.obj
 0002:000421f0       ?Dot@Vector@@QBEMABV1@@Z   100ab1f0 f i mathlib:vmatrix.obj
 0002:00042220       ?CrossProduct@@YAXABVVector@@0AAV1@@Z 100ab220 f i mathlib:vmatrix.obj
 0002:000422a0       ?VectorLength@@YAMABVVector@@@Z 100ab2a0 f i mathlib:vmatrix.obj
 0002:00042300       ?Length@Vector@@QBEMXZ     100ab300 f i mathlib:vmatrix.obj
 0002:00042360       ??GVector@@QBE?AV0@XZ      100ab360 f i mathlib:vmatrix.obj
 0002:000423a0       ??DVector@@QBE?AV0@M@Z     100ab3a0 f i mathlib:vmatrix.obj
 0002:000423f0       ?Cross@Vector@@QBE?AV1@ABV1@@Z 100ab3f0 f i mathlib:vmatrix.obj
 0002:00042470       ??AQAngle@@QAEAAMH@Z       100ab470 f i mathlib:vmatrix.obj
 0002:00042480       ??AQAngle@@QBEMH@Z         100ab480 f i mathlib:vmatrix.obj
 0002:00042490       ??0VPlane@@QAE@XZ          100ab490 f i mathlib:vmatrix.obj
 0002:000424a0       ?GetPointOnPlane@VPlane@@QBE?AVVector@@XZ 100ab4a0 f i mathlib:vmatrix.obj
 0002:000424f0       ?AsVector3D@Vector4D@@QAEAAVVector@@XZ 100ab4f0 f i mathlib:vmatrix.obj
 0002:00042500       ?Vector4DCopy@@YAXABVVector4D@@AAV1@@Z 100ab500 f i mathlib:vmatrix.obj
 0002:00042530       ?Base@matrix3x4_t@@QAEPAMXZ 100ab530 f i mathlib:vmatrix.obj
 0002:00042540       ?Base@matrix3x4_t@@QBEPBMXZ 100ab540 f i mathlib:vmatrix.obj
 0002:00042550       ?VectorMAInline@@YAXABVVector@@M0AAV1@@Z 100ab550 f i mathlib:vmatrix.obj
 0002:000425b0       ?VectorMA@@YAXABVVector@@M0AAV1@@Z 100ab5b0 f i mathlib:vmatrix.obj
 0002:00042610       ?SinCos@@YAXMPAM0@Z        100ab610 f i mathlib:vmatrix.obj
 0002:00042630       ?Init@VMatrix@@QAEXMMMMMMMMMMMMMMMM@Z 100ab630 f i mathlib:vmatrix.obj
 0002:00042710       ?SetForward@VMatrix@@QAEXABVVector@@@Z 100ab710 f i mathlib:vmatrix.obj
 0002:00042730       ?SetLeft@VMatrix@@QAEXABVVector@@@Z 100ab730 f i mathlib:vmatrix.obj
 0002:00042750       ?SetUp@VMatrix@@QAEXABVVector@@@Z 100ab750 f i mathlib:vmatrix.obj
 0002:00042770       ?GetBasisVectors@VMatrix@@QBEXAAVVector@@00@Z 100ab770 f i mathlib:vmatrix.obj
 0002:000427e0       ?SetBasisVectors@VMatrix@@QAEXABVVector@@00@Z 100ab7e0 f i mathlib:vmatrix.obj
 0002:00042840       ?GetTranslation@VMatrix@@QBEAAVVector@@AAV2@@Z 100ab840 f i mathlib:vmatrix.obj
 0002:00042860       ?SetTranslation@VMatrix@@QAEXABVVector@@@Z 100ab860 f i mathlib:vmatrix.obj
 0002:00042880       ?As3x4@VMatrix@@QAEAAUmatrix3x4_t@@XZ 100ab880 f i mathlib:vmatrix.obj
 0002:00042890       ?CopyFrom3x4@VMatrix@@QAEXABUmatrix3x4_t@@@Z 100ab890 f i mathlib:vmatrix.obj
 0002:00042910       ?Set3x4@VMatrix@@QBEXAAUmatrix3x4_t@@@Z 100ab910 f i mathlib:vmatrix.obj
 0002:00042970       ?MatrixSetColumn@@YAXAAVVMatrix@@HABVVector@@@Z 100ab970 f i mathlib:vmatrix.obj
 0002:000429a0       ?SetupMatrixProjection@@YA?AVVMatrix@@ABVVector@@ABVVPlane@@@Z 100ab9a0 f   mathlib:vmatrix.obj
 0002:00042b60       ??4VMatrix@@QAEAAV0@ABV0@@Z 100abb60 f   mathlib:vmatrix.obj
 0002:00042be0       ??8VMatrix@@QBE_NABV0@@Z   100abbe0 f   mathlib:vmatrix.obj
 0002:00042cb0       ?MatrixMul@VMatrix@@QBEXABV1@AAV1@@Z 100abcb0 f   mathlib:vmatrix.obj
 0002:000434a0       ??DVMatrix@@QBE?AV0@ABV0@@Z 100ac4a0 f   mathlib:vmatrix.obj
 0002:000434c0       ?MatrixInverseGeneral@@YA_NABVVMatrix@@AAV1@@Z 100ac4c0 f   mathlib:vmatrix.obj
 0002:000438a0       ?GetScale@VMatrix@@QBE?AVVector@@XZ 100ac8a0 f   mathlib:vmatrix.obj
 0002:000439b0       ?NormalizeBasisVectors@VMatrix@@QBE?AV1@XZ 100ac9b0 f   mathlib:vmatrix.obj
 0002:00043b10       ?IsRotationMatrix@VMatrix@@QBE_NXZ 100acb10 f   mathlib:vmatrix.obj
 0002:00043d40       ?SetupMatrixOrgAngles@VMatrix@@QAEXABVVector@@ABVQAngle@@@Z 100acd40 f   mathlib:vmatrix.obj
 0002:00043f60       ?MatrixSetIdentity@@YAXAAVVMatrix@@@Z 100acf60 f   mathlib:vmatrix.obj
 0002:00043fe0       ?MatrixFromAngles@@YAXABVQAngle@@AAVVMatrix@@@Z 100acfe0 f   mathlib:vmatrix.obj
 0002:00044000       ?MatrixToAngles@@YAXABVVMatrix@@AAVQAngle@@@Z 100ad000 f   mathlib:vmatrix.obj
 0002:00044190       ?Swap@@YAXAAM0@Z           100ad190 f i mathlib:vmatrix.obj
 0002:000441b0       ?MatrixTranspose@@YAXABVVMatrix@@AAV1@@Z 100ad1b0 f   mathlib:vmatrix.obj
 0002:000442b0       ?MatrixCopy@@YAXABVVMatrix@@AAV1@@Z 100ad2b0 f   mathlib:vmatrix.obj
 0002:000442d0       ?MatrixMultiply@@YAXABVVMatrix@@0AAV1@@Z 100ad2d0 f   mathlib:vmatrix.obj
 0002:000447d0       ?Vector4DMultiply@@YAXABVVMatrix@@ABVVector4D@@AAV2@@Z 100ad7d0 f   mathlib:vmatrix.obj
 0002:00044940       ?Vector4DMultiplyPosition@@YAXABVVMatrix@@ABVVector@@AAVVector4D@@@Z 100ad940 f   mathlib:vmatrix.obj
 0002:00044a90       ?Vector3DMultiply@@YAXABVVMatrix@@ABVVector@@AAV2@@Z 100ada90 f   mathlib:vmatrix.obj
 0002:00044b90       ?Vector3DMultiplyPositionProjective@@YAXABVVMatrix@@ABVVector@@AAV2@@Z 100adb90 f   mathlib:vmatrix.obj
 0002:00044d20       ?Vector3DMultiplyProjective@@YAXABVVMatrix@@ABVVector@@AAV2@@Z 100add20 f   mathlib:vmatrix.obj
 0002:00044ed0       ?Vector4DMultiplyTranspose@@YAXABVVMatrix@@ABVVector4D@@AAV2@@Z 100aded0 f   mathlib:vmatrix.obj
 0002:00045050       ?Vector3DMultiplyTranspose@@YAXABVVMatrix@@ABVVector@@AAV2@@Z 100ae050 f   mathlib:vmatrix.obj
 0002:00045150       ?MatrixTransformPlane@@YAXABVVMatrix@@ABUcplane_t@@AAU2@@Z 100ae150 f   mathlib:vmatrix.obj
 0002:000452d0       ?MatrixBuildTranslation@@YAXAAVVMatrix@@MMM@Z 100ae2d0 f   mathlib:vmatrix.obj
 0002:00045360       ?MatrixBuildTranslation@@YAXAAVVMatrix@@ABVVector@@@Z 100ae360 f   mathlib:vmatrix.obj
 0002:00045400       ?MatrixBuildRotationAboutAxis@@YAXAAVVMatrix@@ABVVector@@M@Z 100ae400 f   mathlib:vmatrix.obj
 0002:00045450       ?MatrixBuildRotation@@YAXAAVVMatrix@@ABVVector@@1@Z 100ae450 f   mathlib:vmatrix.obj
 0002:00045770       ?MatrixBuildRotateZ@@YAXAAVVMatrix@@M@Z 100ae770 f   mathlib:vmatrix.obj
 0002:00045850       ?MatrixBuildScale@@YAXAAVVMatrix@@MMM@Z 100ae850 f   mathlib:vmatrix.obj
 0002:000458e0       ?MatrixBuildScale@@YAXAAVVMatrix@@ABVVector@@@Z 100ae8e0 f   mathlib:vmatrix.obj
 0002:000459d0       ?CalculateAABBFromProjectionMatrixInverse@@YAXABVVMatrix@@PAVVector@@1@Z 100ae9d0 f   mathlib:vmatrix.obj
 0002:00045c30       ?CalculateAABBFromProjectionMatrix@@YAXABVVMatrix@@PAVVector@@1@Z 100aec30 f   mathlib:vmatrix.obj
 0002:00045da0       ?FrustumPlanesFromMatrix@@YAXABVVMatrix@@AAVFrustum_t@@@Z 100aeda0 f   mathlib:vmatrix.obj
 0002:00046770       ?MatrixBuildOrtho@@YAXAAVVMatrix@@NNNNNN@Z 100af770 f   mathlib:vmatrix.obj
 0002:000468a0       ?MatrixBuildPerspectiveX@@YAXAAVVMatrix@@NNNN@Z 100af8a0 f   mathlib:vmatrix.obj
 0002:000469e0       ?MatrixBuildPerspectiveOffCenterX@@YAXAAVVMatrix@@NNNNNNNN@Z 100af9e0 f   mathlib:vmatrix.obj
 0002:00046c30       ?DistToSqr@Vector@@QBEMABV1@@Z 100afc30 f i mathlib:vmatrix.obj
 0002:00046c60       ??0VMatrix@@QAE@MMMMMMMMMMMMMMMM@Z 100afc60 f i mathlib:vmatrix.obj
 0002:00046d50       ?TransformPlane@VMatrix@@QBEXABVVPlane@@AAV2@@Z 100afd50 f i mathlib:vmatrix.obj
 0002:00046ed0       ?SetupMatrixIdentity@@YA?AVVMatrix@@XZ 100afed0 f   mathlib:vmatrix.obj
 0002:00046f50       ?SetupMatrixTranslation@@YA?AVVMatrix@@ABVVector@@@Z 100aff50 f   mathlib:vmatrix.obj
 0002:00046fd0       ?SetupMatrixScale@@YA?AVVMatrix@@ABVVector@@@Z 100affd0 f   mathlib:vmatrix.obj
 0002:00047050       ?SetupMatrixReflection@@YA?AVVMatrix@@ABVVPlane@@@Z 100b0050 f   mathlib:vmatrix.obj
 0002:00047350       ?SetupMatrixAxisRot@@YA?AVVMatrix@@ABVVector@@M@Z 100b0350 f   mathlib:vmatrix.obj
 0002:00047510       ?SetupMatrixAxisToAxisRot@@YA?AVVMatrix@@ABVVector@@0@Z 100b0510 f   mathlib:vmatrix.obj
 0002:000477c0       ?SetupMatrixAngles@@YA?AVVMatrix@@ABVQAngle@@@Z 100b07c0 f   mathlib:vmatrix.obj
 0002:000477e0       ?SetupMatrixOrgAngles@@YA?AVVMatrix@@ABVVector@@ABVQAngle@@@Z 100b07e0 f   mathlib:vmatrix.obj
 0002:00047800       ?InverseGeneral@VMatrix@@QBE_NAAV1@@Z 100b0800 f   mathlib:vmatrix.obj
 0002:00047820       ?MatrixInverseTR@@YAXABVVMatrix@@AAV1@@Z 100b0820 f   mathlib:vmatrix.obj
 0002:00047950       ?InverseTR@VMatrix@@QBEXAAV1@@Z 100b0950 f   mathlib:vmatrix.obj
 0002:00047970       ?MatrixInverseTranspose@@YAXABVVMatrix@@AAV1@@Z 100b0970 f   mathlib:vmatrix.obj
 0002:000479a0       ?MatrixInverseTranspose@@YAXABUmatrix3x4_t@@AAU1@@Z 100b09a0 f   mathlib:vmatrix.obj
 0002:00047ac0       ?InverseTR@VMatrix@@QBE?AV1@XZ 100b0ac0 f   mathlib:vmatrix.obj
 0002:00047ae0       ?Scale@VMatrix@@QAE?AV1@ABVVector@@@Z 100b0ae0 f   mathlib:vmatrix.obj
 0002:00047c00       ?Transpose@VMatrix@@QBE?AV1@XZ 100b0c00 f   mathlib:vmatrix.obj
 0002:00047c80       ?Transpose3x3@VMatrix@@QBE?AV1@XZ 100b0c80 f   mathlib:vmatrix.obj
 0002:00047d00       ??DVMatrix@@QBE?AVVPlane@@ABV1@@Z 100b0d00 f   mathlib:vmatrix.obj
 0002:00047d20       ?MatrixBuildPerspective@@YAXAAVVMatrix@@MMMM@Z 100b0d20 f   mathlib:vmatrix.obj
 0002:00047ff0       ?CalculateSphereFromProjectionMatrixInverse@@YAXABVVMatrix@@PAVVector@@PAM@Z 100b0ff0 f   mathlib:vmatrix.obj
 0002:00048260       ?CalculateSphereFromProjectionMatrix@@YAXABVVMatrix@@PAVVector@@PAM@Z 100b1260 f   mathlib:vmatrix.obj
 0002:000482a0       ?PlaneIntersection@@YA_NABVVPlane@@00AAVVector@@@Z 100b12a0 f   mathlib:vmatrix.obj
 0002:00048410       _fabsf                     100b1410 f i mathlib:mathlib_base.obj
 0002:00048420       _asinf                     100b1420 f i mathlib:mathlib_base.obj
 0002:00048430       _atanf                     100b1430 f i mathlib:mathlib_base.obj
 0002:00048440       _expf                      100b1440 f i mathlib:mathlib_base.obj
 0002:00048470       _logf                      100b1470 f i mathlib:mathlib_base.obj
 0002:00048480       ?asin@@YAMM@Z              100b1480 f i mathlib:mathlib_base.obj
 0002:00048490       ?atan@@YAMM@Z              100b1490 f i mathlib:mathlib_base.obj
 0002:000484a0       ?atan2@@YAMMM@Z            100b14a0 f i mathlib:mathlib_base.obj
 0002:000484b0       ?exp@@YAMM@Z               100b14b0 f i mathlib:mathlib_base.obj
 0002:000484e0       ?fabs@@YAMM@Z              100b14e0 f i mathlib:mathlib_base.obj
 0002:000484f0       ?log@@YAMM@Z               100b14f0 f i mathlib:mathlib_base.obj
 0002:00048500       ?tan@@YAMM@Z               100b1500 f i mathlib:mathlib_base.obj
 0002:00048510       ?FastRSqrtFast@@YAMM@Z     100b1510 f i mathlib:mathlib_base.obj
 0002:00048540       ?FastRSqrt@@YAMM@Z         100b1540 f i mathlib:mathlib_base.obj
 0002:00048590       ??0Vector2D@@QAE@XZ        100b1590 f i mathlib:mathlib_base.obj
 0002:000485a0       ?Vector2DSubtract@@YAXABVVector2D@@0AAV1@@Z 100b15a0 f i mathlib:mathlib_base.obj
 0002:000485e0       ?MulAdd@Vector2D@@QAEXABV1@0M@Z 100b15e0 f i mathlib:mathlib_base.obj
 0002:00048630       ?DotProduct2D@@YAMABVVector2D@@0@Z 100b1630 f i mathlib:mathlib_base.obj
 0002:00048650       ?Dot@Vector2D@@QBEMABV1@@Z 100b1650 f i mathlib:mathlib_base.obj
 0002:00048670       ?Vector2DLength@@YAMABVVector2D@@@Z 100b1670 f i mathlib:mathlib_base.obj
 0002:000486c0       ?LengthSqr@Vector2D@@QBEMXZ 100b16c0 f i mathlib:mathlib_base.obj
 0002:000486e0       ?Length@Vector2D@@QBEMXZ   100b16e0 f i mathlib:mathlib_base.obj
 0002:00048730       ?DistTo@Vector2D@@QBEMABV1@@Z 100b1730 f i mathlib:mathlib_base.obj
 0002:00048790       ?DistToSqr@Vector2D@@QBEMABV1@@Z 100b1790 f i mathlib:mathlib_base.obj
 0002:000487b0       ??ZVector@@QAEAAV0@ABV0@@Z 100b17b0 f i mathlib:mathlib_base.obj
 0002:000487f0       ?VectorAdd@@YAXABVVector@@0AAV1@@Z 100b17f0 f i mathlib:mathlib_base.obj
 0002:00048840       ?VectorScale@@YAXABVVector@@MAAV1@@Z 100b1840 f i mathlib:mathlib_base.obj
 0002:00048890       ?VectorDivide@@YAXABVVector@@MAAV1@@Z 100b1890 f i mathlib:mathlib_base.obj
 0002:000488e0       ?MulAdd@Vector@@QAEXABV1@0M@Z 100b18e0 f i mathlib:mathlib_base.obj
 0002:00048940       ?VectorLerp@@YAXABVVector@@0MAAV1@@Z 100b1940 f i mathlib:mathlib_base.obj
 0002:000489c0       ?DotProductAbs@@YAMABVVector@@PBM@Z 100b19c0 f i mathlib:mathlib_base.obj
 0002:000489f0       ?DistTo@Vector@@QBEMABV1@@Z 100b19f0 f i mathlib:mathlib_base.obj
 0002:00048a60       ??HVector@@QBE?AV0@ABV0@@Z 100b1a60 f i mathlib:mathlib_base.obj
 0002:00048ab0       ??GVector@@QBE?AV0@ABV0@@Z 100b1ab0 f i mathlib:mathlib_base.obj
 0002:00048b00       ??KVector@@QBE?AV0@M@Z     100b1b00 f i mathlib:mathlib_base.obj
 0002:00048b50       ??D@YA?AVVector@@MABV0@@Z  100b1b50 f i mathlib:mathlib_base.obj
 0002:00048ba0       ?CrossProduct@@YA?AVVector@@ABV1@0@Z 100b1ba0 f i mathlib:mathlib_base.obj
 0002:00048c20       ??0Quaternion@@QAE@XZ      100b1c20 f i mathlib:mathlib_base.obj
 0002:00048c30       ??0Quaternion@@QAE@MMMM@Z  100b1c30 f i mathlib:mathlib_base.obj
 0002:00048c70       ?Init@Quaternion@@QAEXMMMM@Z 100b1c70 f i mathlib:mathlib_base.obj
 0002:00048cb0       ??AQuaternion@@QAEAAMH@Z   100b1cb0 f i mathlib:mathlib_base.obj
 0002:00048cc0       ??AQuaternion@@QBEMH@Z     100b1cc0 f i mathlib:mathlib_base.obj
 0002:00048cd0       ?Init@RadianEuler@@QAEXMMM@Z 100b1cd0 f i mathlib:mathlib_base.obj
 0002:00048d00       ??0QAngle@@QAE@XZ          100b1d00 f i mathlib:mathlib_base.obj
 0002:00048d10       ??0QAngle@@QAE@MMM@Z       100b1d10 f i mathlib:mathlib_base.obj
 0002:00048d40       ??4QAngle@@QAEAAV0@ABV0@@Z 100b1d40 f i mathlib:mathlib_base.obj
 0002:00048d60       ?VectorNormalizeFast@@YAXAAVVector@@@Z 100b1d60 f i mathlib:mathlib_base.obj
 0002:00048e20       ??0matrix3x4_t@@QAE@XZ     100b1e20 f i mathlib:mathlib_base.obj
 0002:00048e30       ??Amatrix3x4_t@@QAEPAMH@Z  100b1e30 f i mathlib:mathlib_base.obj
 0002:00048e40       ??Amatrix3x4_t@@QBEPBMH@Z  100b1e40 f i mathlib:mathlib_base.obj
 0002:00048e50       ?DotProduct@@YAMPBM0@Z     100b1e50 f i mathlib:mathlib_base.obj
 0002:00048e80       ?VectorScale@@YAXPBMMPAM@Z 100b1e80 f i mathlib:mathlib_base.obj
 0002:00048ed0       ?anglemod@@YAMM@Z          100b1ed0 f i mathlib:mathlib_base.obj
 0002:00048f00       ?RemapVal@@YAMMMMMM@Z      100b1f00 f i mathlib:mathlib_base.obj
 0002:00048fc0       ?Floor2Int@@YAHM@Z         100b1fc0 f i mathlib:mathlib_base.obj
 0002:00049000       ?Init@VPlane@@QAEXABVVector@@M@Z 100b2000 f i mathlib:mathlib_base.obj
 0002:00049030       ?StoreAlignedSIMD@@YAXPIAMABT__m128@@@Z 100b2030 f i mathlib:mathlib_base.obj
 0002:00049050       ?StoreUnalignedSIMD@@YAXPIAMABT__m128@@@Z 100b2050 f i mathlib:mathlib_base.obj
 0002:00049070       ?LoadAlignedSIMD@@YA?AT__m128@@PBX@Z 100b2070 f i mathlib:mathlib_base.obj
 0002:00049090       ?AndSIMD@@YA?AT__m128@@ABT1@0@Z 100b2090 f i mathlib:mathlib_base.obj
 0002:000490b0       ?AndNotSIMD@@YA?AT__m128@@ABT1@0@Z 100b20b0 f i mathlib:mathlib_base.obj
 0002:000490d0       ?OrSIMD@@YA?AT__m128@@ABT1@0@Z 100b20d0 f i mathlib:mathlib_base.obj
 0002:000490f0       ?LoadUnalignedSIMD@@YA?AT__m128@@PBX@Z 100b20f0 f i mathlib:mathlib_base.obj
 0002:00049110       ?SubFloat@@YAMABT__m128@@H@Z 100b2110 f i mathlib:mathlib_base.obj
 0002:00049120       ?SubFloat@@YAAAMAAT__m128@@H@Z 100b2120 f i mathlib:mathlib_base.obj
 0002:00049130       ?MaskedAssign@@YA?AT__m128@@ABT1@00@Z 100b2130 f i mathlib:mathlib_base.obj
 0002:00049160       ?SplatXSIMD@@YA?AT__m128@@ABT1@@Z 100b2160 f i mathlib:mathlib_base.obj
 0002:00049180       ?SplatYSIMD@@YA?AT__m128@@ABT1@@Z 100b2180 f i mathlib:mathlib_base.obj
 0002:000491a0       ?SplatZSIMD@@YA?AT__m128@@ABT1@@Z 100b21a0 f i mathlib:mathlib_base.obj
 0002:000491c0       ?AddSIMD@@YA?AT__m128@@ABT1@0@Z 100b21c0 f i mathlib:mathlib_base.obj
 0002:000491e0       ?MulSIMD@@YA?AT__m128@@ABT1@0@Z 100b21e0 f i mathlib:mathlib_base.obj
 0002:00049200       ?TestSignSIMD@@YAHABT__m128@@@Z 100b2200 f i mathlib:mathlib_base.obj
 0002:00049220       ?IsAnyNegative@@YA_NABT__m128@@@Z 100b2220 f i mathlib:mathlib_base.obj
 0002:00049240       ?CmpLtSIMD@@YA?AT__m128@@ABT1@0@Z 100b2240 f i mathlib:mathlib_base.obj
 0002:00049260       ?TransposeSIMD@@YAXAAT__m128@@000@Z 100b2260 f i mathlib:mathlib_base.obj
 0002:000492e0       ?fabs@@YA?AT__m128@@ABT1@@Z 100b22e0 f i mathlib:mathlib_base.obj
 0002:00049300       ?_sqrtf@@YAMM@Z            100b2300 f   mathlib:mathlib_base.obj
 0002:00049310       ?_rsqrtf@@YAMM@Z           100b2310 f   mathlib:mathlib_base.obj
 0002:00049320       ?VectorNormalize@@YAMAAVVector@@@Z 100b2320 f   mathlib:mathlib_base.obj
 0002:000493b0       ?_VectorNormalizeFast@@YIXAAVVector@@@Z 100b23b0 f   mathlib:mathlib_base.obj
 0002:00049430       ?_InvRSquared@@YAMPBM@Z    100b2430 f   mathlib:mathlib_base.obj
 0002:00049490       ?InitSinCosTable@@YAXXZ    100b2490 f   mathlib:mathlib_base.obj
 0002:000494d0       ?VectorsEqual@@YAHPBM0@Z   100b24d0 f   mathlib:mathlib_base.obj
 0002:00049520       ?MatrixAngles@@YAXABUmatrix3x4_t@@PAM@Z 100b2520 f   mathlib:mathlib_base.obj
 0002:000496b0       ?VectorTransform@@YAXPBMABUmatrix3x4_t@@PAM@Z 100b26b0 f   mathlib:mathlib_base.obj
 0002:00049780       ?VectorITransform@@YAXPBMABUmatrix3x4_t@@PAM@Z 100b2780 f   mathlib:mathlib_base.obj
 0002:00049850       ?VectorRotate@@YAXPBMABUmatrix3x4_t@@PAM@Z 100b2850 f   mathlib:mathlib_base.obj
 0002:00049910       ?VectorIRotate@@YAXPBMABUmatrix3x4_t@@PAM@Z 100b2910 f   mathlib:mathlib_base.obj
 0002:000499d0       ?MatrixCopy@@YAXABUmatrix3x4_t@@AAU1@@Z 100b29d0 f   mathlib:mathlib_base.obj
 0002:00049a30       ?MatricesAreEqual@@YA_NABUmatrix3x4_t@@0M@Z 100b2a30 f   mathlib:mathlib_base.obj
 0002:00049aa0       ?MatrixGetColumn@@YAXABUmatrix3x4_t@@HAAVVector@@@Z 100b2aa0 f   mathlib:mathlib_base.obj
 0002:00049ad0       ?MatrixSetColumn@@YAXABVVector@@HAAUmatrix3x4_t@@@Z 100b2ad0 f   mathlib:mathlib_base.obj
 0002:00049b00       ?VectorCompare@@YAHPBM0@Z  100b2b00 f   mathlib:mathlib_base.obj
 0002:00049b50       ?CrossProduct@@YAXPBM0PAM@Z 100b2b50 f   mathlib:mathlib_base.obj
 0002:00049bd0       ?Q_log2@@YAII@Z            100b2bd0 f   mathlib:mathlib_base.obj
 0002:00049bf0       ?MatrixVectors@@YAXABUmatrix3x4_t@@PAVVector@@11@Z 100b2bf0 f   mathlib:mathlib_base.obj
 0002:00049c80       ?VectorVectors@@YAXABVVector@@AAV1@1@Z 100b2c80 f   mathlib:mathlib_base.obj
 0002:00049ec0       ?VectorMatrix@@YAXABVVector@@AAUmatrix3x4_t@@@Z 100b2ec0 f   mathlib:mathlib_base.obj
 0002:00049f70       ?VectorAngles@@YAXPBMPAM@Z 100b2f70 f   mathlib:mathlib_base.obj
 0002:0004a0e0       ?ConcatRotations@@YAXQAY02$$CBM0QAY02M@Z 100b30e0 f   mathlib:mathlib_base.obj
 0002:0004a2d0       ?ConcatTransforms_Aligned@@YAXABVmatrix3x4a_t@@0AAV1@@Z 100b32d0 f   mathlib:mathlib_base.obj
 0002:0004a3d0       ?ConcatTransforms@@YAXABUmatrix3x4_t@@0AAU1@@Z 100b33d0 f   mathlib:mathlib_base.obj
 0002:0004a4d0       ?FloorDivMod@@YAXNNPAH0@Z  100b34d0 f   mathlib:mathlib_base.obj
 0002:0004a6c0       ?GreatestCommonDivisor@@YAHHH@Z 100b36c0 f   mathlib:mathlib_base.obj
 0002:0004a700       ?IsDenormal@@YA_NABM@Z     100b3700 f   mathlib:mathlib_base.obj
 0002:0004a730       ?SignbitsForPlane@@YAHPAUcplane_t@@@Z 100b3730 f   mathlib:mathlib_base.obj
 0002:0004a760       ?BoxOnPlaneSide@@YAHPBM0PBUcplane_t@@@Z 100b3760 f   mathlib:mathlib_base.obj
 0002:0004ab10       ?AngleVectors@@YAXABVQAngle@@PAVVector@@@Z 100b3b10 f   mathlib:mathlib_base.obj
 0002:0004abe0       ?AngleVectors@@YAXABVQAngle@@PAVVector@@11@Z 100b3be0 f   mathlib:mathlib_base.obj
 0002:0004ade0       ?AngleVectorsTranspose@@YAXABVQAngle@@PAVVector@@11@Z 100b3de0 f   mathlib:mathlib_base.obj
 0002:0004afd0       ?VectorAngles@@YAXABVVector@@AAVQAngle@@@Z 100b3fd0 f   mathlib:mathlib_base.obj
 0002:0004b140       ?VectorAngles@@YAXABVVector@@0AAVQAngle@@@Z 100b4140 f   mathlib:mathlib_base.obj
 0002:0004b3c0       ?SetIdentityMatrix@@YAXAAUmatrix3x4_t@@@Z 100b43c0 f   mathlib:mathlib_base.obj
 0002:0004b400       ?SetScaleMatrix@@YAXMMMAAUmatrix3x4_t@@@Z 100b4400 f   mathlib:mathlib_base.obj
 0002:0004b470       ?MatrixBuildRotationAboutAxis@@YAXABVVector@@MAAUmatrix3x4_t@@@Z 100b4470 f   mathlib:mathlib_base.obj
 0002:0004b640       ?MatrixTranspose@@YAXAAUmatrix3x4_t@@@Z 100b4640 f   mathlib:mathlib_base.obj
 0002:0004b690       ?MatrixTranspose@@YAXABUmatrix3x4_t@@AAU1@@Z 100b4690 f   mathlib:mathlib_base.obj
 0002:0004b700       ?AngleMatrix@@YAXABVQAngle@@AAUmatrix3x4_t@@@Z 100b4700 f   mathlib:mathlib_base.obj
 0002:0004b8e0       ?AngleIMatrix@@YAXABVQAngle@@AAUmatrix3x4_t@@@Z 100b48e0 f   mathlib:mathlib_base.obj
 0002:0004bac0       ?ClearBounds@@YAXAAVVector@@0@Z 100b4ac0 f   mathlib:mathlib_base.obj
 0002:0004bb10       ?AddPointToBounds@@YAXABVVector@@AAV1@1@Z 100b4b10 f   mathlib:mathlib_base.obj
 0002:0004bb90       ?AreBoundsValid@@YA_NABVVector@@0@Z 100b4b90 f   mathlib:mathlib_base.obj
 0002:0004bbd0       ?IsPointInBounds@@YA_NABVVector@@00@Z 100b4bd0 f   mathlib:mathlib_base.obj
 0002:0004bc20       ?SolveQuadratic@@YA_NMMMAAM0@Z 100b4c20 f   mathlib:mathlib_base.obj
 0002:0004bd30       ?SolveInverseQuadratic@@YA_NMMMMMMAAM00@Z 100b4d30 f   mathlib:mathlib_base.obj
 0002:0004bec0       ?SolveInverseReciprocalQuadratic@@YA_NMMMMMMAAM00@Z 100b4ec0 f   mathlib:mathlib_base.obj
 0002:0004c0a0       ?VectorYawRotate@@YAXABVVector@@MAAV1@@Z 100b50a0 f   mathlib:mathlib_base.obj
 0002:0004c1a0       ?Bias@@YAMMM@Z             100b51a0 f   mathlib:mathlib_base.obj
 0002:0004c200       ?Gain@@YAMMM@Z             100b5200 f   mathlib:mathlib_base.obj
 0002:0004c2e0       ?SmoothCurve@@YAMM@Z       100b52e0 f   mathlib:mathlib_base.obj
 0002:0004c300       ?MovePeak@@YAMMM@Z         100b5300 f i mathlib:mathlib_base.obj
 0002:0004c350       ?SmoothCurve_Tweak@@YAMMMM@Z 100b5350 f   mathlib:mathlib_base.obj
 0002:0004c3f0       ?QuaternionAlign@@YAXABVQuaternion@@0AAV1@@Z 100b53f0 f   mathlib:mathlib_base.obj
 0002:0004c560       ?QuaternionSlerpNoAlign@@YAXABVQuaternion@@0MAAV1@@Z 100b5560 f   mathlib:mathlib_base.obj
 0002:0004c830       ?QuaternionConjugate@@YAXABVQuaternion@@AAV1@@Z 100b5830 f   mathlib:mathlib_base.obj
 0002:0004c880       ?QuaternionNormalize@@YAMAAVQuaternion@@@Z 100b5880 f   mathlib:mathlib_base.obj
 0002:0004c950       ?QuaternionScale@@YAXABVQuaternion@@MAAV1@@Z 100b5950 f   mathlib:mathlib_base.obj
 0002:0004ca90       ?QuaternionAdd@@YAXABVQuaternion@@0AAV1@@Z 100b5a90 f   mathlib:mathlib_base.obj
 0002:0004cb10       ?QuaternionDotProduct@@YAMABVQuaternion@@0@Z 100b5b10 f   mathlib:mathlib_base.obj
 0002:0004cb40       ?QuaternionMult@@YAXABVQuaternion@@0AAV1@@Z 100b5b40 f   mathlib:mathlib_base.obj
 0002:0004ccd0       ?QuaternionExp@@YAXABVQuaternion@@AAV1@@Z 100b5cd0 f   mathlib:mathlib_base.obj
 0002:0004cdd0       ?QuaternionLn@@YAXABVQuaternion@@AAV1@@Z 100b5dd0 f   mathlib:mathlib_base.obj
 0002:0004cf00       ?QuaternionAverageExponential@@YAXAAVQuaternion@@HPBV1@PBM@Z 100b5f00 f   mathlib:mathlib_base.obj
 0002:0004d490       ?QuaternionMatrix@@YAXABVQuaternion@@AAUmatrix3x4_t@@@Z 100b6490 f   mathlib:mathlib_base.obj
 0002:0004d6b0       ?QuaternionAxisAngle@@YAXABVQuaternion@@AAVVector@@AAM@Z 100b66b0 f   mathlib:mathlib_base.obj
 0002:0004d7a0       ?AxisAngleQuaternion@@YAXABVVector@@MAAVQuaternion@@@Z 100b67a0 f   mathlib:mathlib_base.obj
 0002:0004d850       ?AngleQuaternion@@YAXABVRadianEuler@@AAVQuaternion@@@Z 100b6850 f   mathlib:mathlib_base.obj
 0002:0004d9d0       ?AngleQuaternion@@YAXABVQAngle@@AAVQuaternion@@@Z 100b69d0 f   mathlib:mathlib_base.obj
 0002:0004db70       ?Spline_Normalize@@YAXABVVector@@000AAV1@1@Z 100b6b70 f   mathlib:mathlib_base.obj
 0002:0004dce0       ?Catmull_Rom_Spline@@YAXABVVector@@000MAAV1@@Z 100b6ce0 f   mathlib:mathlib_base.obj
 0002:0004e090       ?Catmull_Rom_Spline_Tangent@@YAXABVVector@@000MAAV1@@Z 100b7090 f   mathlib:mathlib_base.obj
 0002:0004e400       ?Catmull_Rom_Spline_Integral@@YAXABVVector@@000MAAV1@@Z 100b7400 f   mathlib:mathlib_base.obj
 0002:0004e900       ?Catmull_Rom_Spline_Integral@@YAXABVVector@@000AAV1@@Z 100b7900 f   mathlib:mathlib_base.obj
 0002:0004ea50       ?Catmull_Rom_Spline_Normalize@@YAXABVVector@@000MAAV1@@Z 100b7a50 f   mathlib:mathlib_base.obj
 0002:0004ec90       ?Catmull_Rom_Spline_Integral_Normalize@@YAXABVVector@@000MAAV1@@Z 100b7c90 f   mathlib:mathlib_base.obj
 0002:0004eed0       ?Catmull_Rom_Spline_NormalizeX@@YAXABVVector@@000MAAV1@@Z 100b7ed0 f   mathlib:mathlib_base.obj
 0002:0004ef40       ?Hermite_Spline@@YAXABVVector@@000MAAV1@@Z 100b7f40 f   mathlib:mathlib_base.obj
 0002:0004f0d0       ?Hermite_Spline@@YAMMMMMM@Z 100b80d0 f   mathlib:mathlib_base.obj
 0002:0004f180       ?Hermite_SplineBasis@@YAXMQAM@Z 100b8180 f   mathlib:mathlib_base.obj
 0002:0004f210       ?Hermite_Spline@@YAXABVVector@@00MAAV1@@Z 100b8210 f   mathlib:mathlib_base.obj
 0002:0004f300       ?Hermite_Spline@@YAMMMMM@Z 100b8300 f   mathlib:mathlib_base.obj
 0002:0004f3b0       ?Hermite_Spline@@YAXABVQuaternion@@00MAAV1@@Z 100b83b0 f   mathlib:mathlib_base.obj
 0002:0004f560       ?Kochanek_Bartels_Spline@@YAXMMMABVVector@@000MAAV1@@Z 100b8560 f   mathlib:mathlib_base.obj
 0002:0004fa90       ?Kochanek_Bartels_Spline_NormalizeX@@YAXMMMABVVector@@000MAAV1@@Z 100b8a90 f   mathlib:mathlib_base.obj
 0002:0004fb20       ?Cubic_Spline@@YAXABVVector@@000MAAV1@@Z 100b8b20 f   mathlib:mathlib_base.obj
 0002:0004fcb0       ?Cubic_Spline_NormalizeX@@YAXABVVector@@000MAAV1@@Z 100b8cb0 f   mathlib:mathlib_base.obj
 0002:0004fe70       ?BSpline@@YAXABVVector@@000MAAV1@@Z 100b8e70 f   mathlib:mathlib_base.obj
 0002:00050240       ?BSpline_NormalizeX@@YAXABVVector@@000MAAV1@@Z 100b9240 f   mathlib:mathlib_base.obj
 0002:000502b0       ?Parabolic_Spline@@YAXABVVector@@000MAAV1@@Z 100b92b0 f   mathlib:mathlib_base.obj
 0002:000504f0       ?Parabolic_Spline_NormalizeX@@YAXABVVector@@000MAAV1@@Z 100b94f0 f   mathlib:mathlib_base.obj
 0002:00050780       ?CubicBasis0@@YAMM@Z       100b9780 f   mathlib:mathlib_base.obj
 0002:00050790       ?CubicBasis1@@YAMM@Z       100b9790 f   mathlib:mathlib_base.obj
 0002:000507b0       ?CubicBasis2@@YAMM@Z       100b97b0 f   mathlib:mathlib_base.obj
 0002:000507d0       ?CubicBasis3@@YAMM@Z       100b97d0 f   mathlib:mathlib_base.obj
 0002:000507e0       ?RangeCompressor@@YAMMMMM@Z 100b97e0 f   mathlib:mathlib_base.obj
 0002:00050950       ?CalcSqrDistanceToAABB@@YAMABVVector@@00@Z 100b9950 f   mathlib:mathlib_base.obj
 0002:00050a60       ?CalcClosestPointOnAABB@@YAXABVVector@@00AAV1@@Z 100b9a60 f   mathlib:mathlib_base.obj
 0002:00050b00       ?CalcSqrDistAndClosestPointOnAABB@@YAXABVVector@@00AAV1@AAM@Z 100b9b00 f   mathlib:mathlib_base.obj
 0002:00050c50       ?CalcClosestPointToLineT@@YAMABVVector@@00AAV1@@Z 100b9c50 f   mathlib:mathlib_base.obj
 0002:00050d50       ?CalcClosestPointOnLine@@YAXABVVector@@00AAV1@PAM@Z 100b9d50 f   mathlib:mathlib_base.obj
 0002:00050df0       ?CalcDistanceToLine@@YAMABVVector@@00PAM@Z 100b9df0 f   mathlib:mathlib_base.obj
 0002:00050ed0       ?CalcClosestPointOnLineSegment@@YAXABVVector@@00AAV1@PAM@Z 100b9ed0 f   mathlib:mathlib_base.obj
 0002:00050f90       ?CalcDistanceToLineSegment@@YAMABVVector@@00PAM@Z 100b9f90 f   mathlib:mathlib_base.obj
 0002:00051030       ?CalcClosestPointToLineT2D@@YAMABVVector2D@@00AAV1@@Z 100ba030 f   mathlib:mathlib_base.obj
 0002:000510e0       ?CalcClosestPointOnLine2D@@YAXABVVector2D@@00AAV1@PAM@Z 100ba0e0 f   mathlib:mathlib_base.obj
 0002:000511b0       ?CalcDistanceToLine2D@@YAMABVVector2D@@00PAM@Z 100ba1b0 f   mathlib:mathlib_base.obj
 0002:000512b0       ?CalcDistanceSqrToLine2D@@YAMABVVector2D@@00PAM@Z 100ba2b0 f   mathlib:mathlib_base.obj
 0002:000513a0       ?CalcClosestPointOnLineSegment2D@@YAXABVVector2D@@00AAV1@PAM@Z 100ba3a0 f   mathlib:mathlib_base.obj
 0002:00051490       ?CalcDistanceToLineSegment2D@@YAMABVVector2D@@00PAM@Z 100ba490 f   mathlib:mathlib_base.obj
 0002:000515b0       ?CalcDistanceSqrToLineSegment2D@@YAMABVVector2D@@00PAM@Z 100ba5b0 f   mathlib:mathlib_base.obj
 0002:000516c0       ?CalcLineToLineIntersectionSegment@@YA_NABVVector@@000PAV1@1PAM2@Z 100ba6c0 f   mathlib:mathlib_base.obj
 0002:00051a70       ?MathLib_Init@@YAXMMMH_N000@Z 100baa70 f   mathlib:mathlib_base.obj
 0002:00051b40       ?MathLib_MMXEnabled@@YA_NXZ 100bab40 f   mathlib:mathlib_base.obj
 0002:00051b50       ?MathLib_SSEEnabled@@YA_NXZ 100bab50 f   mathlib:mathlib_base.obj
 0002:00051b60       ?MathLib_SSE2Enabled@@YA_NXZ 100bab60 f   mathlib:mathlib_base.obj
 0002:00051b70       ?ApproachAngle@@YAMMMM@Z   100bab70 f   mathlib:mathlib_base.obj
 0002:00051c70       ?AngleDiff@@YAMMM@Z        100bac70 f   mathlib:mathlib_base.obj
 0002:00051cf0       ?AngleDistance@@YAMMM@Z    100bacf0 f   mathlib:mathlib_base.obj
 0002:00051d60       ?AngleNormalize@@YAMM@Z    100bad60 f   mathlib:mathlib_base.obj
 0002:00051de0       ?AngleNormalizePositive@@YAMM@Z 100bade0 f   mathlib:mathlib_base.obj
 0002:00051e30       ?AnglesAreEqual@@YA_NMMM@Z 100bae30 f   mathlib:mathlib_base.obj
 0002:00051ec0       ?RotationDeltaAxisAngle@@YAXABVQAngle@@0AAVVector@@AAM@Z 100baec0 f   mathlib:mathlib_base.obj
 0002:000521b0       ?ClipLineSegmentToPlane@@YAXABVVector@@0PAV1@1M@Z 100bb1b0 f   mathlib:mathlib_base.obj
 0002:00052470       ?ComputeTrianglePlane@@YAXABVVector@@00AAV1@AAM@Z 100bb470 f   mathlib:mathlib_base.obj
 0002:000525a0       ?TetrahedronVolume@@YAMABVVector@@000@Z 100bb5a0 f   mathlib:mathlib_base.obj
 0002:000526c0       ?TriangleArea@@YAMABVVector@@00@Z 100bb6c0 f   mathlib:mathlib_base.obj
 0002:000527a0       ?PolyFromPlane@@YAHPAVVector@@ABV1@MM@Z 100bb7a0 f   mathlib:mathlib_base.obj
 0002:00052b50       ?ClipPolyToPlane@@YAHPAVVector@@H0ABV1@MM@Z 100bbb50 f   mathlib:mathlib_base.obj
 0002:00052f80       ?ClipPolyToPlane_Precise@@YAHPANH0PBNNN@Z 100bbf80 f   mathlib:mathlib_base.obj
 0002:000532b0       ?CeilPow2@@YAHH@Z          100bc2b0 f   mathlib:mathlib_base.obj
 0002:000532d0       ?FloorPow2@@YAHH@Z         100bc2d0 f   mathlib:mathlib_base.obj
 0002:000532f0       ?CalcFovY@@YAMMM@Z         100bc2f0 f   mathlib:mathlib_base.obj
 0002:00053360       ?CalcFovX@@YAMMM@Z         100bc360 f   mathlib:mathlib_base.obj
 0002:00053390       ?GeneratePerspectiveFrustum@@YAXABVVector@@000MMMMPAVVPlane@@@Z 100bc390 f   mathlib:mathlib_base.obj
 0002:00053810       ?GenerateOrthoFrustum@@YAXABVVector@@000MMMMMMPAVVPlane@@@Z 100bc810 f   mathlib:mathlib_base.obj
 0002:00053a10       ?ComputeSignbits@fourplanes_t@@QAEXXZ 100bca10 f   mathlib:mathlib_base.obj
 0002:00053aa0       ?GetPlane@fourplanes_t@@QBEXHPAVVector@@PAM@Z 100bcaa0 f   mathlib:mathlib_base.obj
 0002:00053ae0       ?SetPlane@fourplanes_t@@QAEXHABVVector@@M@Z 100bcae0 f   mathlib:mathlib_base.obj
 0002:00053b20       ?Set4Planes@fourplanes_t@@QAEXPBVVPlane@@@Z 100bcb20 f   mathlib:mathlib_base.obj
 0002:00053bc0       ?Set2Planes@fourplanes_t@@QAEXPBVVPlane@@@Z 100bcbc0 f   mathlib:mathlib_base.obj
 0002:00053c70       ?Get4Planes@fourplanes_t@@QAEXPAVVPlane@@@Z 100bcc70 f   mathlib:mathlib_base.obj
 0002:00053ce0       ?Get2Planes@fourplanes_t@@QAEXPAVVPlane@@@Z 100bcce0 f   mathlib:mathlib_base.obj
 0002:00053d30       ??0Frustum_t@@QAE@XZ       100bcd30 f   mathlib:mathlib_base.obj
 0002:00053d50       ?SetPlane@Frustum_t@@QAEXHABVVector@@M@Z 100bcd50 f   mathlib:mathlib_base.obj
 0002:00053dc0       ?GetPlane@Frustum_t@@QBEXHPAVVector@@PAM@Z 100bcdc0 f   mathlib:mathlib_base.obj
 0002:00053e30       ?SetPlanes@Frustum_t@@QAEXPBVVPlane@@@Z 100bce30 f   mathlib:mathlib_base.obj
 0002:00053e60       ?GetPlanes@Frustum_t@@QAEXPAVVPlane@@@Z 100bce60 f   mathlib:mathlib_base.obj
 0002:00053ed0       ?CullBox@Frustum_t@@QBE_NABVVector@@0@Z 100bced0 f   mathlib:mathlib_base.obj
 0002:00053fd0       ?CullBox@Frustum_t@@QBE_NABT__m128@@0@Z 100bcfd0 f   mathlib:mathlib_base.obj
 0002:000540d0       ?CullBoxCenterExtents@Frustum_t@@QBE_NABVVector@@0@Z 100bd0d0 f   mathlib:mathlib_base.obj
 0002:000541a0       ?CullBoxCenterExtents@Frustum_t@@QBE_NABT__m128@@0@Z 100bd1a0 f   mathlib:mathlib_base.obj
 0002:00054280       ?CalcTriangleTangentSpace@@YAXABVVector@@00ABVVector2D@@11AAV1@2@Z 100bd280 f   mathlib:mathlib_base.obj
 0002:00054680       ?RGBtoHSV@@YAXABVVector@@AAV1@@Z 100bd680 f   mathlib:mathlib_base.obj
 0002:000547d0       ?HSVtoRGB@@YAXABVVector@@AAV1@@Z 100bd7d0 f   mathlib:mathlib_base.obj
 0002:00054980       ?GetInterpolationData@@YAXPBM0HHM_NPAM22@Z 100bd980 f   mathlib:mathlib_base.obj
 0002:00054b50       ?RandomVectorInUnitSphere@@YAMPAVVector@@@Z 100bdb50 f   mathlib:mathlib_base.obj
 0002:00054cd0       ?RandomVectorInUnitCircle@@YAMPAVVector2D@@@Z 100bdcd0 f   mathlib:mathlib_base.obj
 0002:00054da0       ??$V_swap@M@@YAXAAM0@Z     100bdda0 f i mathlib:mathlib_base.obj
 0002:00054dc0       ?NormalizeInPlace@Vector@@QAEMXZ 100bddc0 f i mathlib:mathlib_base.obj
 0002:00054e50       ?VectorRotate@@YAXABVVector@@ABUmatrix3x4_t@@AAV1@@Z 100bde50 f i mathlib:mathlib_base.obj
 0002:00054f00       ?VectorIRotate@@YAXABVVector@@ABUmatrix3x4_t@@AAV1@@Z 100bdf00 f i mathlib:mathlib_base.obj
 0002:00054fb0       ?MatrixAngles@@YAXABUmatrix3x4_t@@AAVQAngle@@@Z 100bdfb0 f i mathlib:mathlib_base.obj
 0002:00054fc0       ?MatrixAngles@@YAXABUmatrix3x4_t@@AAVRadianEuler@@@Z 100bdfc0 f i mathlib:mathlib_base.obj
 0002:00055020       ?VectorTransform@@YAXABVVector@@ABUmatrix3x4_t@@AAV1@@Z 100be020 f i mathlib:mathlib_base.obj
 0002:000550e0       ?VectorITransform@@YAXABVVector@@ABUmatrix3x4_t@@AAV1@@Z 100be0e0 f i mathlib:mathlib_base.obj
 0002:000551b0       ?MatrixAngles@@YAXABUmatrix3x4_t@@AAVRadianEuler@@AAVVector@@@Z 100be1b0 f   mathlib:mathlib_base.obj
 0002:00055220       ?MatrixAngles@@YAXABUmatrix3x4_t@@AAVQuaternion@@AAVVector@@@Z 100be220 f   mathlib:mathlib_base.obj
 0002:00055470       ?VectorRotate@@YAXABVVector@@ABVQAngle@@AAV1@@Z 100be470 f   mathlib:mathlib_base.obj
 0002:00055540       ?VectorRotate@@YAXABVVector@@ABVQuaternion@@AAV1@@Z 100be540 f   mathlib:mathlib_base.obj
 0002:00055770       ?TransformAnglesToWorldSpace@@YA?AVQAngle@@ABV1@ABUmatrix3x4_t@@@Z 100be770 f   mathlib:mathlib_base.obj
 0002:000557c0       ?MatrixInitialize@@YAXAAUmatrix3x4_t@@ABVVector@@111@Z 100be7c0 f   mathlib:mathlib_base.obj
 0002:00055830       ?MatrixInvert@@YAXABUmatrix3x4_t@@AAU1@@Z 100be830 f   mathlib:mathlib_base.obj
 0002:00055990       ?VectorPerpendicularToVector@@YAXABVVector@@PAV1@@Z 100be990 f   mathlib:mathlib_base.obj
 0002:00055b20       ?AngleMatrix@@YAXABVRadianEuler@@AAUmatrix3x4_t@@@Z 100beb20 f   mathlib:mathlib_base.obj
 0002:00055b80       ?AngleMatrix@@YAXABVQAngle@@ABVVector@@AAUmatrix3x4_t@@@Z 100beb80 f   mathlib:mathlib_base.obj
 0002:00055bc0       ?AngleIMatrix@@YAXABVRadianEuler@@AAUmatrix3x4_t@@@Z 100bebc0 f   mathlib:mathlib_base.obj
 0002:00055c20       ?AngleIMatrix@@YAXABVQAngle@@ABVVector@@AAUmatrix3x4_t@@@Z 100bec20 f   mathlib:mathlib_base.obj
 0002:00055d00       ?SolveInverseQuadraticMonotonic@@YA_NMMMMMMAAM00@Z 100bed00 f   mathlib:mathlib_base.obj
 0002:00056040       ?QuaternionBlendNoAlign@@YAXABVQuaternion@@0MAAV1@@Z 100bf040 f   mathlib:mathlib_base.obj
 0002:00056190       ?QuaternionIdentityBlend@@YAXABVQuaternion@@MAAV1@@Z 100bf190 f   mathlib:mathlib_base.obj
 0002:000562b0       ?QuaternionSlerp@@YAXABVQuaternion@@0MAAV1@@Z 100bf2b0 f   mathlib:mathlib_base.obj
 0002:00056300       ?QuaternionAngleDiff@@YAMABVQuaternion@@0@Z 100bf300 f   mathlib:mathlib_base.obj
 0002:00056400       ?QuaternionInvert@@YAXABVQuaternion@@AAV1@@Z 100bf400 f   mathlib:mathlib_base.obj
 0002:000564f0       ?QuaternionLookAt@@YAXABVVector@@0AAVQuaternion@@@Z 100bf4f0 f   mathlib:mathlib_base.obj
 0002:000567e0       ?QuaternionMatrix@@YAXABVQuaternion@@ABVVector@@AAUmatrix3x4_t@@@Z 100bf7e0 f   mathlib:mathlib_base.obj
 0002:00056a20       ?QuaternionAngles@@YAXABVQuaternion@@AAVQAngle@@@Z 100bfa20 f   mathlib:mathlib_base.obj
 0002:00056c00       ?BasisToQuaternion@@YAXABVVector@@00AAVQuaternion@@@Z 100bfc00 f   mathlib:mathlib_base.obj
 0002:00056cd0       ?MatrixQuaternion@@YAXABUmatrix3x4_t@@AAVQuaternion@@@Z 100bfcd0 f   mathlib:mathlib_base.obj
 0002:00056d00       ?QuaternionAngles@@YAXABVQuaternion@@AAVRadianEuler@@@Z 100bfd00 f   mathlib:mathlib_base.obj
 0002:00056f30       ?TransformAABB@@YAXABUmatrix3x4_t@@ABVVector@@1AAV2@2@Z 100bff30 f   mathlib:mathlib_base.obj
 0002:00057190       ?ITransformAABB@@YAXABUmatrix3x4_t@@ABVVector@@1AAV2@2@Z 100c0190 f   mathlib:mathlib_base.obj
 0002:000573c0       ?RotateAABB@@YAXABUmatrix3x4_t@@ABVVector@@1AAV2@2@Z 100c03c0 f   mathlib:mathlib_base.obj
 0002:00057610       ?IRotateAABB@@YAXABUmatrix3x4_t@@ABVVector@@1AAV2@2@Z 100c0610 f   mathlib:mathlib_base.obj
 0002:00057830       ?CalcDistanceSqrToLine@@YAMABVVector@@00PAM@Z 100c0830 f   mathlib:mathlib_base.obj
 0002:00057910       ?CalcDistanceSqrToLineSegment@@YAMABVVector@@00PAM@Z 100c0910 f   mathlib:mathlib_base.obj
 0002:00057970       ?RotationDelta@@YAXABVQAngle@@0PAV1@@Z 100c0970 f   mathlib:mathlib_base.obj
 0002:00057a30       ?GeneratePerspectiveFrustum@@YAXABVVector@@ABVQAngle@@MMMMAAVFrustum_t@@@Z 100c0a30 f   mathlib:mathlib_base.obj
 0002:00057b80       ?TransformAnglesToLocalSpace@@YA?AVQAngle@@ABV1@ABUmatrix3x4_t@@@Z 100c0b80 f   mathlib:mathlib_base.obj
 0002:00057bf0       ?AngleMatrix@@YAXABVRadianEuler@@ABVVector@@AAUmatrix3x4_t@@@Z 100c0bf0 f   mathlib:mathlib_base.obj
 0002:00057c70       ?QuaternionBlend@@YAXABVQuaternion@@0MAAV1@@Z 100c0c70 f   mathlib:mathlib_base.obj
 0002:00057de0       ?ReplicateX4@@YA?AT__m128@@M@Z 100c0de0 f i mathlib:sseconst.obj
 0002:00057e00       ?SubSIMD@@YA?AT__m128@@ABT1@0@Z 100c0e00 f i mathlib:sseconst.obj
 0002:00057e20       ?DivSIMD@@YA?AT__m128@@ABT1@0@Z 100c0e20 f i mathlib:sseconst.obj
 0002:00057e40       ?MaddSIMD@@YA?AT__m128@@ABT1@00@Z 100c0e40 f i mathlib:sseconst.obj
 0002:00057e70       ??0FourVectors@@QAE@XZ     100c0e70 f i mathlib:sseconst.obj
 0002:00057e80       ??YFourVectors@@QAEXABV0@@Z 100c0e80 f i mathlib:sseconst.obj
 0002:00057ed0       ??ZFourVectors@@QAEXABV0@@Z 100c0ed0 f i mathlib:sseconst.obj
 0002:00057f20       ??XFourVectors@@QAEXABT__m128@@@Z 100c0f20 f i mathlib:sseconst.obj
 0002:00057f70       ??DFourVectors@@QBE?AT__m128@@ABV0@@Z 100c0f70 f i mathlib:sseconst.obj
 0002:00057fc0       ??4FourVectors@@QAEXABV0@@Z 100c0fc0 f i mathlib:sseconst.obj
 0002:00057ff0       ?RotateManyBy@FourVectors@@SAXPIAV1@IABUmatrix3x4_t@@@Z 100c0ff0 f   mathlib:sseconst.obj
 0002:00058160       ?CalcClosestPointToLineTSIMD@FourVectors@@SA?AT__m128@@ABV1@00AAV1@@Z 100c1160 f   mathlib:sseconst.obj
 0002:00058240       ?RotateManyBy@FourVectors@@SAXPIAV1@IABUmatrix3x4_t@@0@Z 100c1240 f   mathlib:sseconst.obj
 0002:00058380       ?CalcClosestPointOnLineSIMD@FourVectors@@SAXABV1@00AAV1@PAT__m128@@@Z 100c1380 f   mathlib:sseconst.obj
 0002:00058410       ?ThreadInterlockedAssignIf@@YA_NPCHHH@Z 100c1410 f i mathlib:randsse.obj
 0002:00058440       ?CmpGeSIMD@@YA?AT__m128@@ABT1@0@Z 100c1440 f i mathlib:randsse.obj
 0002:00058470       ?Seed@SIMDRandStreamContext@@QAEXI@Z 100c1470 f i mathlib:randsse.obj
 0002:00058590       ?RandSIMD@SIMDRandStreamContext@@QAE?AT__m128@@XZ 100c1590 f i mathlib:randsse.obj
 0002:00058630       ?SeedRandSIMD@@YAXI@Z      100c1630 f   mathlib:randsse.obj
 0002:00058670       ?RandSIMD@@YA?AT__m128@@H@Z 100c1670 f   mathlib:randsse.obj
 0002:000586b0       ?GetSIMDRandContext@@YAHXZ 100c16b0 f   mathlib:randsse.obj
 0002:00058710       ?ReleaseSIMDRandContext@@YAXH@Z 100c1710 f   mathlib:randsse.obj
 0002:00058730       ?RandSIMD@@YA?AT__m128@@XZ 100c1730 f   mathlib:randsse.obj
 0002:00058760       ??0CBaseShader@@QAE@XZ     100c1760 f   shaderlib:BaseShader.obj
 0002:00058800       ??0IShader@@QAE@XZ         100c1800 f i shaderlib:BaseShader.obj
 0002:00058850       ?GetParamCount@CBaseShader@@UBEHXZ 100c1850 f   shaderlib:BaseShader.obj
 0002:00058890       ?GetParamInfo@CBaseShader@@UBEABUShaderParamInfo_t@@H@Z 100c1890 f   shaderlib:BaseShader.obj
 0002:000589c0       ?InitShaderParams@CBaseShader@@UAEXPAPAVIMaterialVar@@PBD@Z 100c19c0 f   shaderlib:BaseShader.obj
 0002:00058b20       ?InitShaderInstance@CBaseShader@@UAEXPAPAVIMaterialVar@@PAVIShaderInit@@PBD2@Z 100c1b20 f   shaderlib:BaseShader.obj
 0002:00058cb0       ?DrawElements@CBaseShader@@UAEXPAPAVIMaterialVar@@HPAVIShaderShadow@@PAVIShaderDynamicAPI@@W4VertexCompressionType_t@@PAPAVCBasePerMaterialContextData@@PAPAVCBasePerInstanceContextData@@@Z 100c1cb0 f   shaderlib:BaseShader.obj
 0002:00058eb0       ?SetInitialShadowState@CBaseShader@@QAEXXZ 100c1eb0 f   shaderlib:BaseShader.obj
 0002:000590a0       ?Draw@CBaseShader@@QAEX_N@Z 100c20a0 f   shaderlib:BaseShader.obj
 0002:00059380       ?GetShaderSystem@@YAPAVIShaderSystem@@XZ 100c2380 f i shaderlib:BaseShader.obj
 0002:000593c0       ?CShader_IsFlag2Set@@YA_NPAPAVIMaterialVar@@W4MaterialVarFlags2_t@@@Z 100c23c0 f i shaderlib:BaseShader.obj
 0002:00059420       ?PI_BeginCommandBuffer@CBaseShader@@QAEXXZ 100c2420 f   shaderlib:BaseShader.obj
 0002:00059640       ?PI_EndCommandBuffer@CBaseShader@@QAEXXZ 100c2640 f   shaderlib:BaseShader.obj
 0002:00059930       ??0CPerInstanceContextData@@QAE@XZ 100c2930 f i shaderlib:BaseShader.obj
 0002:000599b0       ??_GCPerInstanceContextData@@UAEPAXI@Z 100c29b0 f i shaderlib:BaseShader.obj
 0002:000599b0       ??_ECPerInstanceContextData@@UAEPAXI@Z 100c29b0 f i shaderlib:BaseShader.obj
 0002:00059a20       ??1CPerInstanceContextData@@UAE@XZ 100c2a20 f i shaderlib:BaseShader.obj
 0002:00059ab0       ??1CBasePerInstanceContextData@@UAE@XZ 100c2ab0 f i shaderlib:BaseShader.obj
 0002:00059af0       ??_ECBasePerInstanceContextData@@UAEPAXI@Z 100c2af0 f i shaderlib:BaseShader.obj
 0002:00059af0       ??_GCBasePerInstanceContextData@@UAEPAXI@Z 100c2af0 f i shaderlib:BaseShader.obj
 0002:00059b60       ??0CBasePerInstanceContextData@@QAE@XZ 100c2b60 f i shaderlib:BaseShader.obj
 0002:00059bb0       ?PI_SetPixelShaderAmbientLightCube@CBaseShader@@QAEXH@Z 100c2bb0 f   shaderlib:BaseShader.obj
 0002:00059cf0       ?PI_SetPixelShaderLocalLighting@CBaseShader@@QAEXH@Z 100c2cf0 f   shaderlib:BaseShader.obj
 0002:00059e30       ?PI_SetVertexShaderAmbientLightCube@CBaseShader@@QAEXXZ 100c2e30 f   shaderlib:BaseShader.obj
 0002:00059f60       ?PI_SetVertexShaderLocalLighting@CBaseShader@@AAEXXZ 100c2f60 f   shaderlib:BaseShader.obj
 0002:0005a090       ?PI_SetSkinningMatrices@CBaseShader@@AAEXXZ 100c3090 f   shaderlib:BaseShader.obj
 0002:0005a1c0       ?PI_SetPixelShaderAmbientLightCubeLuminance@CBaseShader@@QAEXH@Z 100c31c0 f   shaderlib:BaseShader.obj
 0002:0005a300       ?PI_SetPixelShaderGlintDamping@CBaseShader@@QAEXH@Z 100c3300 f   shaderlib:BaseShader.obj
 0002:0005a440       ?PI_SetModulationPixelShaderDynamicState_LinearColorSpace_LinearScale@CBaseShader@@QAEXHM@Z 100c3440 f   shaderlib:BaseShader.obj
 0002:0005a600       ?Base@Vector@@QAEPAMXZ     100c3600 f i shaderlib:BaseShader.obj
 0002:0005a640       ?PI_SetModulationPixelShaderDynamicState_LinearScale@CBaseShader@@QAEXHM@Z 100c3640 f   shaderlib:BaseShader.obj
 0002:0005a800       ?PI_SetModulationPixelShaderDynamicState_LinearScale_ScaleInW@CBaseShader@@QAEXHM@Z 100c3800 f   shaderlib:BaseShader.obj
 0002:0005a9c0       ?PI_SetModulationPixelShaderDynamicState_LinearColorSpace@CBaseShader@@QAEXH@Z 100c39c0 f   shaderlib:BaseShader.obj
 0002:0005ab70       ?PI_SetModulationPixelShaderDynamicState@CBaseShader@@QAEXH@Z 100c3b70 f   shaderlib:BaseShader.obj
 0002:0005ad20       ?PI_SetModulationVertexShaderDynamicState@CBaseShader@@QAEXXZ 100c3d20 f   shaderlib:BaseShader.obj
 0002:0005aed0       ?PI_SetModulationVertexShaderDynamicState_LinearScale@CBaseShader@@QAEXM@Z 100c3ed0 f   shaderlib:BaseShader.obj
 0002:0005b090       ?PI_SetModulationPixelShaderDynamicState_Identity@CBaseShader@@QAEXH@Z 100c4090 f   shaderlib:BaseShader.obj
 0002:0005b1d0       ?FindParamIndex@CBaseShader@@QBEHPBD@Z 100c41d0 f   shaderlib:BaseShader.obj
 0002:0005b2a0       ?IsUsingGraphics@CBaseShader@@QAE_NXZ 100c42a0 f   shaderlib:BaseShader.obj
 0002:0005b320       ?CanUseEditorMaterials@CBaseShader@@QBE_NXZ 100c4320 f   shaderlib:BaseShader.obj
 0002:0005b3a0       ?LoadTexture@CBaseShader@@QAEXH@Z 100c43a0 f   shaderlib:BaseShader.obj
 0002:0005b470       ?LoadBumpMap@CBaseShader@@QAEXH@Z 100c4470 f   shaderlib:BaseShader.obj
 0002:0005b540       ?LoadCubeMap@CBaseShader@@QAEXH@Z 100c4540 f   shaderlib:BaseShader.obj
 0002:0005b610       ?GetShaderAPITextureBindHandle@CBaseShader@@QAEHHHH@Z 100c4610 f   shaderlib:BaseShader.obj
 0002:0005b9c0       ?BindVertexTexture@CBaseShader@@QAEXW4VertexTextureSampler_t@@HH@Z 100c49c0 f   shaderlib:BaseShader.obj
 0002:0005bb60       ?GetShaderAPITextureBindHandle@CBaseShader@@QAEHPAVITexture@@HH@Z 100c4b60 f   shaderlib:BaseShader.obj
 0002:0005bbf0       ?BindTexture@CBaseShader@@QAEXW4Sampler_t@@HH@Z 100c4bf0 f   shaderlib:BaseShader.obj
 0002:0005bc60       ?BindTexture@CBaseShader@@QAEXW4Sampler_t@@0HH@Z 100c4c60 f   shaderlib:BaseShader.obj
 0002:0005c090       ?BindTexture@CBaseShader@@QAEXW4Sampler_t@@PAVITexture@@H@Z 100c5090 f   shaderlib:BaseShader.obj
 0002:0005c100       ?BindTexture@CBaseShader@@QAEXW4Sampler_t@@0PAVITexture@@H@Z 100c5100 f   shaderlib:BaseShader.obj
 0002:0005c2c0       ?TextureIsTranslucent@CBaseShader@@QAE_NH_N@Z 100c52c0 f   shaderlib:BaseShader.obj
 0002:0005c4f0       ?CurrentMaterialVarFlags2@CBaseShader@@QBEHXZ 100c54f0 f i shaderlib:BaseShader.obj
 0002:0005c550       ?IsAlphaModulating@CBaseShader@@QAE_NXZ 100c5550 f   shaderlib:BaseShader.obj
 0002:0005c5a0       ?ComputeModulationFlags@CBaseShader@@UAEHPAPAVIMaterialVar@@PAVIShaderDynamicAPI@@@Z 100c55a0 f   shaderlib:BaseShader.obj
 0002:0005c870       ?NeedsPowerOfTwoFrameBufferTexture@CBaseShader@@UBE_NPAPAVIMaterialVar@@_N@Z 100c5870 f   shaderlib:BaseShader.obj
 0002:0005c8d0       ?NeedsFullFrameBufferTexture@CBaseShader@@UBE_NPAPAVIMaterialVar@@_N@Z 100c58d0 f   shaderlib:BaseShader.obj
 0002:0005c930       ?IsTranslucent@CBaseShader@@UBE_NPAPAVIMaterialVar@@@Z 100c5930 f   shaderlib:BaseShader.obj
 0002:0005c990       ?ApplyColor2Factor@CBaseShader@@QBEXPAM@Z 100c5990 f   shaderlib:BaseShader.obj
 0002:0005cb60       ?EnableAlphaBlending@CBaseShader@@QAEXW4ShaderBlendFactor_t@@0@Z 100c5b60 f   shaderlib:BaseShader.obj
 0002:0005cd00       ?DisableAlphaBlending@CBaseShader@@QAEXXZ 100c5d00 f   shaderlib:BaseShader.obj
 0002:0005ce50       ?SetNormalBlendingShadowState@CBaseShader@@QAEXH_N@Z 100c5e50 f   shaderlib:BaseShader.obj
 0002:0005d050       ?SetAdditiveBlendingShadowState@CBaseShader@@QAEXH_N@Z 100c6050 f   shaderlib:BaseShader.obj
 0002:0005d260       ?SetDefaultBlendingShadowState@CBaseShader@@QAEXH_N@Z 100c6260 f   shaderlib:BaseShader.obj
 0002:0005d2f0       ?SetBlendingShadowState@CBaseShader@@QAEXW4BlendType_t@@@Z 100c62f0 f   shaderlib:BaseShader.obj
 0002:0005d3c0       ?SingleTextureLightmapBlendMode@CBaseShader@@QAEXXZ 100c63c0 f   shaderlib:BaseShader.obj
 0002:0005d540       ?FogToOOOverbright@CBaseShader@@QAEXXZ 100c6540 f   shaderlib:BaseShader.obj
 0002:0005d680       ?SetFogMode@CBaseShader@@AAEXW4ShaderFogMode_t@@@Z 100c6680 f i shaderlib:BaseShader.obj
 0002:0005d750       ?FogToWhite@CBaseShader@@QAEXXZ 100c6750 f   shaderlib:BaseShader.obj
 0002:0005d890       ?FogToBlack@CBaseShader@@QAEXXZ 100c6890 f   shaderlib:BaseShader.obj
 0002:0005d9d0       ?FogToGrey@CBaseShader@@QAEXXZ 100c69d0 f   shaderlib:BaseShader.obj
 0002:0005db10       ?FogToFogColor@CBaseShader@@QAEXXZ 100c6b10 f   shaderlib:BaseShader.obj
 0002:0005dc50       ?DisableFog@CBaseShader@@QAEXXZ 100c6c50 f   shaderlib:BaseShader.obj
 0002:0005dda0       ?DefaultFog@CBaseShader@@QAEXXZ 100c6da0 f   shaderlib:BaseShader.obj
 0002:0005de10       ?UsingFlashlight@CBaseShader@@QBE_NPAPAVIMaterialVar@@@Z 100c6e10 f   shaderlib:BaseShader.obj
 0002:0005deb0       ?UsingEditor@CBaseShader@@QBE_NPAPAVIMaterialVar@@@Z 100c6eb0 f   shaderlib:BaseShader.obj
 0002:0005df50       ?IsHDREnabled@CBaseShader@@QAE_NXZ 100c6f50 f   shaderlib:BaseShader.obj
 0002:0005dff0       ?End@?$CInstanceCommandBufferBuilder@V?$CFixedCommandStorageBuffer@$0CAA@@@@@QAEXXZ 100c6ff0 f i shaderlib:BaseShader.obj
 0002:0005e050       ?SetPixelShaderLocalLighting@?$CInstanceCommandBufferBuilder@V?$CFixedCommandStorageBuffer@$0CAA@@@@@QAEXH@Z 100c7050 f i shaderlib:BaseShader.obj
 0002:0005e0c0       ?SetPixelShaderAmbientLightCube@?$CInstanceCommandBufferBuilder@V?$CFixedCommandStorageBuffer@$0CAA@@@@@QAEXH@Z 100c70c0 f i shaderlib:BaseShader.obj
 0002:0005e130       ?SetVertexShaderLocalLighting@?$CInstanceCommandBufferBuilder@V?$CFixedCommandStorageBuffer@$0CAA@@@@@QAEXXZ 100c7130 f i shaderlib:BaseShader.obj
 0002:0005e190       ?SetVertexShaderAmbientLightCube@?$CInstanceCommandBufferBuilder@V?$CFixedCommandStorageBuffer@$0CAA@@@@@QAEXXZ 100c7190 f i shaderlib:BaseShader.obj
 0002:0005e1f0       ?SetSkinningMatrices@?$CInstanceCommandBufferBuilder@V?$CFixedCommandStorageBuffer@$0CAA@@@@@QAEXXZ 100c71f0 f i shaderlib:BaseShader.obj
 0002:0005e250       ?SetPixelShaderAmbientLightCubeLuminance@?$CInstanceCommandBufferBuilder@V?$CFixedCommandStorageBuffer@$0CAA@@@@@QAEXH@Z 100c7250 f i shaderlib:BaseShader.obj
 0002:0005e2c0       ?SetPixelShaderGlintDamping@?$CInstanceCommandBufferBuilder@V?$CFixedCommandStorageBuffer@$0CAA@@@@@QAEXH@Z 100c72c0 f i shaderlib:BaseShader.obj
 0002:0005e330       ?SetModulationPixelShaderDynamicState_LinearColorSpace_LinearScale@?$CInstanceCommandBufferBuilder@V?$CFixedCommandStorageBuffer@$0CAA@@@@@QAEXHABVVector@@M@Z 100c7330 f i shaderlib:BaseShader.obj
 0002:0005e3c0       ?SetModulationPixelShaderDynamicState_LinearScale@?$CInstanceCommandBufferBuilder@V?$CFixedCommandStorageBuffer@$0CAA@@@@@QAEXHABVVector@@M@Z 100c73c0 f i shaderlib:BaseShader.obj
 0002:0005e450       ?SetModulationPixelShaderDynamicState_LinearScale_ScaleInW@?$CInstanceCommandBufferBuilder@V?$CFixedCommandStorageBuffer@$0CAA@@@@@QAEXHABVVector@@M@Z 100c7450 f i shaderlib:BaseShader.obj
 0002:0005e4e0       ?SetModulationPixelShaderDynamicState_LinearColorSpace@?$CInstanceCommandBufferBuilder@V?$CFixedCommandStorageBuffer@$0CAA@@@@@QAEXHABVVector@@@Z 100c74e0 f i shaderlib:BaseShader.obj
 0002:0005e560       ?SetModulationPixelShaderDynamicState@?$CInstanceCommandBufferBuilder@V?$CFixedCommandStorageBuffer@$0CAA@@@@@QAEXHABVVector@@@Z 100c7560 f i shaderlib:BaseShader.obj
 0002:0005e5e0       ?SetModulationPixelShaderDynamicState_Identity@?$CInstanceCommandBufferBuilder@V?$CFixedCommandStorageBuffer@$0CAA@@@@@QAEXH@Z 100c75e0 f i shaderlib:BaseShader.obj
 0002:0005e650       ?SetModulationVertexShaderDynamicState@?$CInstanceCommandBufferBuilder@V?$CFixedCommandStorageBuffer@$0CAA@@@@@QAEXHABVVector@@@Z 100c7650 f i shaderlib:BaseShader.obj
 0002:0005e6d0       ?SetModulationVertexShaderDynamicState_LinearScale@?$CInstanceCommandBufferBuilder@V?$CFixedCommandStorageBuffer@$0CAA@@@@@QAEXHABVVector@@M@Z 100c76d0 f i shaderlib:BaseShader.obj
 0002:0005e760       ?Reset@?$CBaseCommandBufferBuilder@V?$CFixedCommandStorageBuffer@$0CAA@@@@@QAEXXZ 100c7760 f i shaderlib:BaseShader.obj
 0002:0005e7b0       ?Size@?$CBaseCommandBufferBuilder@V?$CFixedCommandStorageBuffer@$0CAA@@@@@QBEIXZ 100c77b0 f i shaderlib:BaseShader.obj
 0002:0005e800       ?Base@?$CBaseCommandBufferBuilder@V?$CFixedCommandStorageBuffer@$0CAA@@@@@QAEPAEXZ 100c7800 f i shaderlib:BaseShader.obj
 0002:0005e850       ?Base@?$CFixedCommandStorageBuffer@$0CAA@@@QAEPAEXZ 100c7850 f i shaderlib:BaseShader.obj
 0002:0005e890       ??$Put@VVector@@@?$CFixedCommandStorageBuffer@$0CAA@@@QAEXABVVector@@@Z 100c7890 f i shaderlib:BaseShader.obj
 0002:0005e930       ??0?$CInstanceCommandBufferBuilder@V?$CFixedCommandStorageBuffer@$0CAA@@@@@QAE@XZ 100c7930 f i shaderlib:BaseShader.obj
 0002:0005e990       ??0?$CBaseCommandBufferBuilder@V?$CFixedCommandStorageBuffer@$0CAA@@@@@QAE@XZ 100c7990 f i shaderlib:BaseShader.obj
 0002:0005e9f0       ?GetShaderDLL@@YAPAVIShaderDLL@@XZ 100c79f0 f   shaderlib:ShaderDLL.obj
 0002:0005eae0       ?GetShaderDLLInternal@@YAPAVIShaderDLLInternal@@XZ 100c7ae0 f   shaderlib:ShaderDLL.obj
 0002:0005eba0       ??0CShaderDLL@@QAE@XZ      100c7ba0 f   shaderlib:ShaderDLL.obj
 0002:0005ec70       ??0IShaderDLLInternal@@QAE@XZ 100c7c70 f i shaderlib:ShaderDLL.obj
 0002:0005ecc0       ??0IShaderDLL@@QAE@XZ      100c7cc0 f i shaderlib:ShaderDLL.obj
 0002:0005ed10       ?Connect@CShaderDLL@@UAE_NP6APAXPBDPAH@Z_N@Z 100c7d10 f   shaderlib:ShaderDLL.obj
 0002:0005ee30       ?Disconnect@CShaderDLL@@UAEX_N@Z 100c7e30 f   shaderlib:ShaderDLL.obj
 0002:0005eec0       ?Connect@CShaderDLL@@UAE_NP6APAXPBDPAH@Z@Z 100c7ec0 f   shaderlib:ShaderDLL.obj
 0002:0005ef30       ?Disconnect@CShaderDLL@@UAEXXZ 100c7f30 f   shaderlib:ShaderDLL.obj
 0002:0005efa0       ?ShaderCount@CShaderDLL@@UBEHXZ 100c7fa0 f   shaderlib:ShaderDLL.obj
 0002:0005f000       ?GetShader@CShaderDLL@@UAEPAVIShader@@H@Z 100c8000 f   shaderlib:ShaderDLL.obj
 0002:0005f080       ?InsertShader@CShaderDLL@@UAEXPAVIShader@@@Z 100c8080 f   shaderlib:ShaderDLL.obj
 0002:0005f1c0       ??0?$CUtlVector@PAVIShader@@V?$CUtlMemory@PAVIShader@@H@@@@QAE@HH@Z 100c81c0 f i shaderlib:ShaderDLL.obj
 0002:0005f240       ??A?$CUtlVector@PAVIShader@@V?$CUtlMemory@PAVIShader@@H@@@@QAEAAPAVIShader@@H@Z 100c8240 f i shaderlib:ShaderDLL.obj
 0002:0005f370       ?Count@?$CUtlVector@PAVIShader@@V?$CUtlMemory@PAVIShader@@H@@@@QBEHXZ 100c8370 f i shaderlib:ShaderDLL.obj
 0002:0005f3b0       ?AddToTail@?$CUtlVector@PAVIShader@@V?$CUtlMemory@PAVIShader@@H@@@@QAEHABQAVIShader@@@Z 100c83b0 f i shaderlib:ShaderDLL.obj
 0002:0005f520       ?Base@?$CUtlVector@PAVIShader@@V?$CUtlMemory@PAVIShader@@H@@@@QAEPAPAVIShader@@XZ 100c8520 f i shaderlib:ShaderDLL.obj
 0002:0005f570       ?ResetDbgInfo@?$CUtlVector@PAVIShader@@V?$CUtlMemory@PAVIShader@@H@@@@IAEXXZ 100c8570 f i shaderlib:ShaderDLL.obj
 0002:0005f5d0       ?InsertBefore@?$CUtlVector@PAVIShader@@V?$CUtlMemory@PAVIShader@@H@@@@QAEHHABQAVIShader@@@Z 100c85d0 f i shaderlib:ShaderDLL.obj
 0002:0005f850       ??0?$CUtlMemory@PAVIShader@@H@@QAE@HH@Z 100c8850 f i shaderlib:ShaderDLL.obj
 0002:0005fa40       ??A?$CUtlMemory@PAVIShader@@H@@QAEAAPAVIShader@@H@Z 100c8a40 f i shaderlib:ShaderDLL.obj
 0002:0005fc40       ?Base@?$CUtlMemory@PAVIShader@@H@@QAEPAPAVIShader@@XZ 100c8c40 f i shaderlib:ShaderDLL.obj
 0002:0005fd60       ?ValidateGrowSize@?$CUtlMemory@PAVIShader@@H@@IAEXXZ 100c8d60 f i shaderlib:ShaderDLL.obj
 0002:0005fda0       ?Element@?$CUtlVector@PAVIShader@@V?$CUtlMemory@PAVIShader@@H@@@@QAEAAPAVIShader@@H@Z 100c8da0 f i shaderlib:ShaderDLL.obj
 0002:0005fed0       ?IsValidIndex@?$CUtlVector@PAVIShader@@V?$CUtlMemory@PAVIShader@@H@@@@QBE_NH@Z 100c8ed0 f i shaderlib:ShaderDLL.obj
 0002:0005ff40       ?GrowVector@?$CUtlVector@PAVIShader@@V?$CUtlMemory@PAVIShader@@H@@@@IAEXH@Z 100c8f40 f i shaderlib:ShaderDLL.obj
 0002:00060060       ?ShiftElementsRight@?$CUtlVector@PAVIShader@@V?$CUtlMemory@PAVIShader@@H@@@@IAEXHH@Z 100c9060 f i shaderlib:ShaderDLL.obj
 0002:00060200       ??$CopyConstruct@PAVIShader@@@@YAPAPAVIShader@@PAPAV0@ABQAV0@@Z 100c9200 f i shaderlib:ShaderDLL.obj
 0002:000602a0       ?IsIdxValid@?$CUtlMemory@PAVIShader@@H@@QBE_NH@Z 100c92a0 f i shaderlib:ShaderDLL.obj
 0002:00060320       ?IsReadOnly@?$CUtlMemory@PAVIShader@@H@@QBE_NXZ 100c9320 f i shaderlib:ShaderDLL.obj
 0002:00060370       ??$MemAllocClassName@V?$CUtlMemory@PAVIShader@@H@@@@YAPBDPAV?$CUtlMemory@PAVIShader@@H@@@Z 100c9370 f i shaderlib:ShaderDLL.obj
 0002:000603f0       ?NumAllocated@?$CUtlMemory@PAVIShader@@H@@QBEHXZ 100c93f0 f i shaderlib:ShaderDLL.obj
 0002:00060430       ?Grow@?$CUtlMemory@PAVIShader@@H@@QAEXH@Z 100c9430 f i shaderlib:ShaderDLL.obj
 0002:00060aa0       ?IsExternallyAllocated@?$CUtlMemory@PAVIShader@@H@@QBE_NXZ 100c9aa0 f i shaderlib:ShaderDLL.obj
 0002:00060af0       ??$MemAllocClassName@V?$CUtlVector@PAVIShader@@V?$CUtlMemory@PAVIShader@@H@@@@@@YAPBDPAV?$CUtlVector@PAVIShader@@V?$CUtlMemory@PAVIShader@@H@@@@@Z 100c9af0 f i shaderlib:ShaderDLL.obj
 0002:00060b70       ?InitShaderLibCVars@@YAXP6APAXPBDPAH@Z@Z 100c9b70 f   shaderlib:shaderlib_cvar.obj
 0002:00060bd0       ??0CShaderLibConVarAccessor@@QAE@XZ 100c9bd0 f i shaderlib:shaderlib_cvar.obj
 0002:00060c30       ?RegisterConCommandBase@CShaderLibConVarAccessor@@UAE_NPAVConCommandBase@@@Z 100c9c30 f i shaderlib:shaderlib_cvar.obj
 0002:00060d40       ??0IConCommandBaseAccessor@@QAE@XZ 100c9d40 f i shaderlib:shaderlib_cvar.obj
 0002:00060d84       __ExitOnFatalAssert        100c9d84 f   tier0:tier0.dll
 0002:00060d8a       _DoNewAssertDialog         100c9d8a f   tier0:tier0.dll
 0002:00060d90       _ShouldUseNewAssertDialog  100c9d90 f   tier0:tier0.dll
 0002:00060d96       _LoggingSystem_LogAssert   100c9d96 f   tier0:tier0.dll
 0002:00060d9c       _Msg                       100c9d9c f   tier0:tier0.dll
 0002:00060da2       _Error                     100c9da2 f   tier0:tier0.dll
 0002:00060da8       _GetCPUInformation         100c9da8 f   tier0:tier0.dll
 0002:00060dae       _ThreadSleep               100c9dae f   tier0:tier0.dll
 0002:00060dc0       ??0Color@@QAE@XZ           100c9dc0 f i tier1:convar.obj
 0002:00060dd0       ??AColor@@QAEAAEH@Z        100c9dd0 f i tier1:convar.obj
 0002:00060de0       ?IndirectAlloc@IMemAlloc@@QAEPAXI@Z 100c9de0 f i tier1:convar.obj
 0002:00060df0       ?MemAlloc_Alloc@@YAPAXI@Z  100c9df0 f i tier1:convar.obj
 0002:00060e10       ?GetString@ConVar@@QBEPBDXZ 100c9e10 f i tier1:convar.obj
 0002:00060e40       ?TellGet@CUtlBuffer@@QBEHXZ 100c9e40 f i tier1:convar.obj
 0002:00060e50       ?IsValid@CUtlBuffer@@QBE_NXZ 100c9e50 f i tier1:convar.obj
 0002:00060e60       ?ConVar_Register@@YAXHPAVIConCommandBaseAccessor@@@Z 100c9e60 f   tier1:convar.obj
 0002:00060f40       ?ConVar_Unregister@@YAXXZ  100c9f40 f   tier1:convar.obj
 0002:00060fa0       ??0ConCommandBase@@QAE@XZ  100c9fa0 f   tier1:convar.obj
 0002:00060fc0       ??1ConCommandBase@@UAE@XZ  100c9fc0 f   tier1:convar.obj
 0002:00060fd0       ?IsCommand@ConCommandBase@@UBE_NXZ 100c9fd0 f   tier1:convar.obj
 0002:00060fe0       ?GetDLLIdentifier@ConCommandBase@@UBEHXZ 100c9fe0 f   tier1:convar.obj
 0002:00060ff0       ?Create@ConCommandBase@@MAEXPBD0H@Z 100c9ff0 f   tier1:convar.obj
 0002:00061050       ?Init@ConCommandBase@@MAEXXZ 100ca050 f   tier1:convar.obj
 0002:00061070       ?Shutdown@ConCommandBase@@IAEXXZ 100ca070 f   tier1:convar.obj
 0002:00061090       ?GetName@ConCommandBase@@UBEPBDXZ 100ca090 f   tier1:convar.obj
 0002:000610a0       ?IsFlagSet@ConCommandBase@@UBE_NH@Z 100ca0a0 f   tier1:convar.obj
 0002:000610b0       ?AddFlags@ConCommandBase@@UAEXH@Z 100ca0b0 f   tier1:convar.obj
 0002:000610c0       ?RemoveFlags@ConCommandBase@@UAEXH@Z 100ca0c0 f   tier1:convar.obj
 0002:000610d0       ?GetFlags@ConCommandBase@@UBEHXZ 100ca0d0 f   tier1:convar.obj
 0002:000610e0       ?GetNext@ConCommandBase@@QBEPBV1@XZ 100ca0e0 f   tier1:convar.obj
 0002:000610f0       ?GetNext@ConCommandBase@@QAEPAV1@XZ 100ca0f0 f   tier1:convar.obj
 0002:00061100       ?CopyString@ConCommandBase@@IAEPADPBD@Z 100ca100 f   tier1:convar.obj
 0002:00061170       ?GetHelpText@ConCommandBase@@UBEPBDXZ 100ca170 f   tier1:convar.obj
 0002:00061180       ?IsRegistered@ConCommandBase@@UBE_NXZ 100ca180 f   tier1:convar.obj
 0002:00061190       ?Reset@CCommand@@QAEXXZ    100ca190 f   tier1:convar.obj
 0002:000611a0       ?DefaultBreakSet@CCommand@@SAPAUcharacterset_t@@XZ 100ca1a0 f   tier1:convar.obj
 0002:000611b0       ?FindArg@CCommand@@QBEPBDPBD@Z 100ca1b0 f   tier1:convar.obj
 0002:00061250       ?FindArgInt@CCommand@@QBEHPBDH@Z 100ca250 f   tier1:convar.obj
 0002:00061280       ?DefaultCompletionFunc@@YAHPBDQAY0EA@D@Z 100ca280 f   tier1:convar.obj
 0002:00061290       ??0ConCommand@@QAE@PBDP6AXXZ0HP6AH0QAY0EA@D@Z@Z 100ca290 f   tier1:convar.obj
 0002:00061350       ??0ConCommand@@QAE@PBDP6AXABVCCommand@@@Z0HP6AH0QAY0EA@D@Z@Z 100ca350 f   tier1:convar.obj
 0002:00061410       ??0ConCommand@@QAE@PBDPAVICommandCallback@@0HPAVICommandCompletionCallback@@@Z 100ca410 f   tier1:convar.obj
 0002:000614c0       ??1ConCommand@@UAE@XZ      100ca4c0 f   tier1:convar.obj
 0002:000614d0       ?IsCommand@ConCommand@@UBE_NXZ 100ca4d0 f   tier1:convar.obj
 0002:000614e0       ?Dispatch@ConCommand@@UAEXABVCCommand@@@Z 100ca4e0 f   tier1:convar.obj
 0002:00061530       ?CanAutoComplete@ConCommand@@UAE_NXZ 100ca530 f   tier1:convar.obj
 0002:00061540       ??0IConVar@@QAE@XZ         100ca540 f i tier1:convar.obj
 0002:00061550       ?IsFlagSet@ConVar@@UBE_NH@Z 100ca550 f   tier1:convar.obj
 0002:00061570       ?GetFlags@ConVar@@UBEHXZ   100ca570 f   tier1:convar.obj
 0002:00061580       ?GetHelpText@ConVar@@UBEPBDXZ 100ca580 f   tier1:convar.obj
 0002:00061590       ?AddFlags@ConVar@@UAEXH@Z  100ca590 f   tier1:convar.obj
 0002:000615a0       ?IsRegistered@ConVar@@UBE_NXZ 100ca5a0 f   tier1:convar.obj
 0002:000615b0       ?GetName@ConVar@@UBEPBDXZ  100ca5b0 f   tier1:convar.obj
 0002:000615c0       ?GetBaseName@ConVar@@UBEPBDXZ 100ca5c0 f   tier1:convar.obj
 0002:000615d0       ?GetSplitScreenPlayerSlot@ConVar@@UBEHXZ 100ca5d0 f   tier1:convar.obj
 0002:000615e0       ?IsCommand@ConVar@@UBE_NXZ 100ca5e0 f   tier1:convar.obj
 0002:000615f0       ?Init@ConVar@@EAEXXZ       100ca5f0 f   tier1:convar.obj
 0002:00061610       ?InternalSetColorFromString@ConVar@@AAE_NPBD@Z 100ca610 f   tier1:convar.obj
 0002:000616e0       ?InternalSetValue@ConVar@@EAEXPBD@Z 100ca6e0 f   tier1:convar.obj
 0002:00061850       ?ClampValue@ConVar@@EAE_NAAM@Z 100ca850 f   tier1:convar.obj
 0002:000618a0       ?InternalSetFloatValue@ConVar@@EAEXM@Z 100ca8a0 f   tier1:convar.obj
 0002:000619b0       ?InternalSetIntValue@ConVar@@EAEXH@Z 100ca9b0 f   tier1:convar.obj
 0002:00061ab0       ?InternalSetColorValue@ConVar@@EAEXVColor@@@Z 100caab0 f   tier1:convar.obj
 0002:00061af0       ?SetValue@ConVar@@UAEXPBD@Z 100caaf0 f   tier1:convar.obj
 0002:00061b00       ?SetValue@ConVar@@UAEXM@Z  100cab00 f   tier1:convar.obj
 0002:00061b20       ?SetValue@ConVar@@UAEXH@Z  100cab20 f   tier1:convar.obj
 0002:00061b30       ?SetValue@ConVar@@UAEXVColor@@@Z 100cab30 f   tier1:convar.obj
 0002:00061b40       ?Revert@ConVar@@QAEXXZ     100cab40 f   tier1:convar.obj
 0002:00061b60       ?GetMin@ConVar@@QBE_NAAM@Z 100cab60 f   tier1:convar.obj
 0002:00061b80       ?GetMax@ConVar@@QBE_NAAM@Z 100cab80 f   tier1:convar.obj
 0002:00061ba0       ?GetMinValue@ConVar@@QBEMXZ 100caba0 f   tier1:convar.obj
 0002:00061bb0       ?GetMaxValue@ConVar@@QBEMXZ 100cabb0 f   tier1:convar.obj
 0002:00061bc0       ?HasMin@ConVar@@QBE_NXZ    100cabc0 f   tier1:convar.obj
 0002:00061bd0       ?HasMax@ConVar@@QBE_NXZ    100cabd0 f   tier1:convar.obj
 0002:00061be0       ?GetDefault@ConVar@@QBEPBDXZ 100cabe0 f   tier1:convar.obj
 0002:00061bf0       ??0ConVarRef@@QAE@PAVIConVar@@@Z 100cabf0 f   tier1:convar.obj
 0002:00061c20       ?IsValid@ConVarRef@@QBE_NXZ 100cac20 f   tier1:convar.obj
 0002:00061c30       ??0SplitScreenConVarRef@@QAE@PAVIConVar@@@Z 100cac30 f   tier1:convar.obj
 0002:00061d50       ?IsValid@SplitScreenConVarRef@@QBE_NXZ 100cad50 f   tier1:convar.obj
 0002:00061d60       ?ConVar_AppendFlags@@YAXPBVConCommandBase@@PADI@Z 100cad60 f   tier1:convar.obj
 0002:00061e70       ?ConVar_PrintDescription@@YAXPBVConCommandBase@@@Z 100cae70 f   tier1:convar.obj
 0002:00062210       ?IsExternallyAllocated@?$CUtlMemory@EH@@QBE_NXZ 100cb210 f i tier1:convar.obj
 0002:00062220       ?Count@?$CUtlVector@P6AXPAVIConVar@@PBDM@ZV?$CUtlMemory@P6AXPAVIConVar@@PBDM@ZH@@@@QBEHXZ 100cb220 f i tier1:convar.obj
 0002:00062230       ?InvalidIndex@?$CUtlVector@P6AXPAVIConVar@@PBDM@ZV?$CUtlMemory@P6AXPAVIConVar@@PBDM@ZH@@@@SAHXZ 100cb230 f i tier1:convar.obj
 0002:00062240       ??A?$CUtlMemory@P6AXPAVIConVar@@PBDM@ZH@@QAEAAP6AXPAVIConVar@@PBDM@ZH@Z 100cb240 f i tier1:convar.obj
 0002:00062250       ?Base@?$CUtlMemory@P6AXPAVIConVar@@PBDM@ZH@@QAEPAP6AXPAVIConVar@@PBDM@ZXZ 100cb250 f i tier1:convar.obj
 0002:00062260       ?ValidateGrowSize@?$CUtlMemory@P6AXPAVIConVar@@PBDM@ZH@@IAEXXZ 100cb260 f i tier1:convar.obj
 0002:00062270       ?Element@?$CUtlVector@P6AXPAVIConVar@@PBDM@ZV?$CUtlMemory@P6AXPAVIConVar@@PBDM@ZH@@@@QAEAAP6AXPAVIConVar@@PBDM@ZH@Z 100cb270 f i tier1:convar.obj
 0002:00062280       ?ShiftElementsRight@?$CUtlVector@P6AXPAVIConVar@@PBDM@ZV?$CUtlMemory@P6AXPAVIConVar@@PBDM@ZH@@@@IAEXHH@Z 100cb280 f i tier1:convar.obj
 0002:000622d0       ?ShiftElementsLeft@?$CUtlVector@P6AXPAVIConVar@@PBDM@ZV?$CUtlMemory@P6AXPAVIConVar@@PBDM@ZH@@@@IAEXHH@Z 100cb2d0 f i tier1:convar.obj
 0002:00062320       ??A?$CUtlMemory@P6AXPAVIConVar@@PBDM@ZH@@QBEABQ6AXPAVIConVar@@PBDM@ZH@Z 100cb320 f i tier1:convar.obj
 0002:00062330       ??$CopyConstruct@P6AXPAVIConVar@@PBDM@Z@@YAPAP6AXPAVIConVar@@PBDM@ZPAP6AX01M@ZABQ6AX01M@Z@Z 100cb330 f i tier1:convar.obj
 0002:00062350       ??$Destruct@P6AXPAVIConVar@@PBDM@Z@@YAXPAP6AXPAVIConVar@@PBDM@Z@Z 100cb350 f i tier1:convar.obj
 0002:00062360       ??$CopyConstruct@VCUtlString@@@@YAPAVCUtlString@@PAV0@ABV0@@Z 100cb360 f i tier1:convar.obj
 0002:00062380       ?NumAllocated@?$CUtlMemory@P6AXPAVIConVar@@PBDM@ZH@@QBEHXZ 100cb380 f i tier1:convar.obj
 0002:00062390       ?IsExternallyAllocated@?$CUtlMemory@P6AXPAVIConVar@@PBDM@ZH@@QBE_NXZ 100cb390 f i tier1:convar.obj
 0002:000623a0       ??A?$CUtlMemory@VCUtlString@@H@@QAEAAVCUtlString@@H@Z 100cb3a0 f i tier1:convar.obj
 0002:000623b0       ?Base@?$CUtlMemory@VCUtlString@@H@@QAEPAVCUtlString@@XZ 100cb3b0 f i tier1:convar.obj
 0002:000623c0       ?NumAllocated@?$CUtlMemory@VCUtlString@@H@@QBEHXZ 100cb3c0 f i tier1:convar.obj
 0002:000623d0       ?IsExternallyAllocated@?$CUtlMemory@VCUtlString@@H@@QBE_NXZ 100cb3d0 f i tier1:convar.obj
 0002:000623e0       ??0CDefaultAccessor@@QAE@XZ 100cb3e0 f i tier1:convar.obj
 0002:000623f0       ?RegisterConCommandBase@CDefaultAccessor@@UAE_NPAVConCommandBase@@@Z 100cb3f0 f i tier1:convar.obj
 0002:00062410       ??_EConCommandBase@@UAEPAXI@Z 100cb410 f i tier1:convar.obj
 0002:00062410       ??_GConCommandBase@@UAEPAXI@Z 100cb410 f i tier1:convar.obj
 0002:00062440       ??0ConCommandBase@@QAE@PBD0H@Z 100cb440 f   tier1:convar.obj
 0002:000624c0       ??0CCommand@@QAE@XZ        100cb4c0 f   tier1:convar.obj
 0002:00062510       ??0CCommand@@QAE@HPAPBD@Z  100cb510 f   tier1:convar.obj
 0002:00062680       ??_EConCommand@@UAEPAXI@Z  100cb680 f i tier1:convar.obj
 0002:00062680       ??_GConCommand@@UAEPAXI@Z  100cb680 f i tier1:convar.obj
 0002:000626b0       ?Init@ConVarRef@@QAEXPBD_N@Z 100cb6b0 f   tier1:convar.obj
 0002:00062750       ?Init@SplitScreenConVarRef@@QAEXPBD_N@Z 100cb750 f   tier1:convar.obj
 0002:00062880       ?Purge@?$CUtlMemory@EH@@QAEXXZ 100cb880 f i tier1:convar.obj
 0002:000628c0       ??A?$CUtlVector@P6AXPAVIConVar@@PBDM@ZV?$CUtlMemory@P6AXPAVIConVar@@PBDM@ZH@@@@QAEAAP6AXPAVIConVar@@PBDM@ZH@Z 100cb8c0 f i tier1:convar.obj
 0002:000628d0       ?Base@?$CUtlVector@P6AXPAVIConVar@@PBDM@ZV?$CUtlMemory@P6AXPAVIConVar@@PBDM@ZH@@@@QAEPAP6AXPAVIConVar@@PBDM@ZXZ 100cb8d0 f i tier1:convar.obj
 0002:000628e0       ?Element@?$CUtlVector@P6AXPAVIConVar@@PBDM@ZV?$CUtlMemory@P6AXPAVIConVar@@PBDM@ZH@@@@QBEABQ6AXPAVIConVar@@PBDM@ZH@Z 100cb8e0 f i tier1:convar.obj
 0002:000628f0       ?Remove@?$CUtlVector@P6AXPAVIConVar@@PBDM@ZV?$CUtlMemory@P6AXPAVIConVar@@PBDM@ZH@@@@QAEXH@Z 100cb8f0 f i tier1:convar.obj
 0002:00062930       ??0?$CUtlMemory@P6AXPAVIConVar@@PBDM@ZH@@QAE@HH@Z 100cb930 f i tier1:convar.obj
 0002:00062980       ?RemoveAll@?$CUtlVector@P6AXPAVIConVar@@PBDM@ZV?$CUtlMemory@P6AXPAVIConVar@@PBDM@ZH@@@@QAEXXZ 100cb980 f i tier1:convar.obj
 0002:00062990       ?Purge@?$CUtlMemory@P6AXPAVIConVar@@PBDM@ZH@@QAEXXZ 100cb990 f i tier1:convar.obj
 0002:000629d0       ?Element@?$CUtlVector@VCUtlString@@V?$CUtlMemory@VCUtlString@@H@@@@QAEAAVCUtlString@@H@Z 100cb9d0 f i tier1:convar.obj
 0002:000629e0       ?ShiftElementsRight@?$CUtlVector@VCUtlString@@V?$CUtlMemory@VCUtlString@@H@@@@IAEXHH@Z 100cb9e0 f i tier1:convar.obj
 0002:00062a30       ?Base@?$CUtlVector@VCUtlString@@V?$CUtlMemory@VCUtlString@@H@@@@QAEPAVCUtlString@@XZ 100cba30 f i tier1:convar.obj
 0002:00062a40       ?Grow@?$CUtlMemory@P6AXPAVIConVar@@PBDM@ZH@@QAEXH@Z 100cba40 f i tier1:convar.obj
 0002:00062b00       ?Grow@?$CUtlMemory@VCUtlString@@H@@QAEXH@Z 100cbb00 f i tier1:convar.obj
 0002:00062bb0       ?ChangeStringValue@ConVar@@EAEXPBDM@Z 100cbbb0 f   tier1:convar.obj
 0002:00062c90       ??0ConVarRef@@QAE@PBD@Z    100cbc90 f   tier1:convar.obj
 0002:00062cb0       ??0ConVarRef@@QAE@PBD_N@Z  100cbcb0 f   tier1:convar.obj
 0002:00062cd0       ??0SplitScreenConVarRef@@QAE@PBD@Z 100cbcd0 f   tier1:convar.obj
 0002:00062cf0       ??0SplitScreenConVarRef@@QAE@PBD_N@Z 100cbcf0 f   tier1:convar.obj
 0002:00062d10       ??1?$CUtlMemory@EH@@QAE@XZ 100cbd10 f i tier1:convar.obj
 0002:00062d50       ?Find@?$CUtlVector@P6AXPAVIConVar@@PBDM@ZV?$CUtlMemory@P6AXPAVIConVar@@PBDM@ZH@@@@QBEHABQ6AXPAVIConVar@@PBDM@Z@Z 100cbd50 f i tier1:convar.obj
 0002:00062d80       ?FindAndRemove@?$CUtlVector@P6AXPAVIConVar@@PBDM@ZV?$CUtlMemory@P6AXPAVIConVar@@PBDM@ZH@@@@QAE_NABQ6AXPAVIConVar@@PBDM@Z@Z 100cbd80 f i tier1:convar.obj
 0002:00062e00       ?ResetDbgInfo@?$CUtlVector@P6AXPAVIConVar@@PBDM@ZV?$CUtlMemory@P6AXPAVIConVar@@PBDM@ZH@@@@IAEXXZ 100cbe00 f i tier1:convar.obj
 0002:00062e10       ?Purge@?$CUtlVector@P6AXPAVIConVar@@PBDM@ZV?$CUtlMemory@P6AXPAVIConVar@@PBDM@ZH@@@@QAEXXZ 100cbe10 f i tier1:convar.obj
 0002:00062e70       ??1?$CUtlMemory@P6AXPAVIConVar@@PBDM@ZH@@QAE@XZ 100cbe70 f i tier1:convar.obj
 0002:00062eb0       ?GrowVector@?$CUtlVector@P6AXPAVIConVar@@PBDM@ZV?$CUtlMemory@P6AXPAVIConVar@@PBDM@ZH@@@@IAEXH@Z 100cbeb0 f i tier1:convar.obj
 0002:00062ef0       ?ResetDbgInfo@?$CUtlVector@VCUtlString@@V?$CUtlMemory@VCUtlString@@H@@@@IAEXXZ 100cbef0 f i tier1:convar.obj
 0002:00062f00       ??1CUtlBuffer@@QAE@XZ      100cbf00 f i tier1:convar.obj
 0002:00062f40       ??1CUtlBinaryBlock@@QAE@XZ 100cbf40 f i tier1:convar.obj
 0002:00062f80       ?RemoveChangeCallback@ConVar@@QAEXP6AXPAVIConVar@@PBDM@Z@Z 100cbf80 f   tier1:convar.obj
 0002:00062fa0       ??0?$CUtlVector@P6AXPAVIConVar@@PBDM@ZV?$CUtlMemory@P6AXPAVIConVar@@PBDM@ZH@@@@QAE@HH@Z 100cbfa0 f i tier1:convar.obj
 0002:00063000       ??1?$CUtlVector@P6AXPAVIConVar@@PBDM@ZV?$CUtlMemory@P6AXPAVIConVar@@PBDM@ZH@@@@QAE@XZ 100cc000 f i tier1:convar.obj
 0002:00063080       ?InsertBefore@?$CUtlVector@P6AXPAVIConVar@@PBDM@ZV?$CUtlMemory@P6AXPAVIConVar@@PBDM@ZH@@@@QAEHHABQ6AXPAVIConVar@@PBDM@Z@Z 100cc080 f i tier1:convar.obj
 0002:00063100       ?GrowVector@?$CUtlVector@VCUtlString@@V?$CUtlMemory@VCUtlString@@H@@@@IAEXH@Z 100cc100 f i tier1:convar.obj
 0002:00063140       ?Tokenize@CCommand@@QAE_NPBDPAUcharacterset_t@@@Z 100cc140 f   tier1:convar.obj
 0002:00063340       ??1CUtlString@@QAE@XZ      100cc340 f i tier1:convar.obj
 0002:00063380       ??1ConVar@@UAE@XZ          100cc380 f   tier1:convar.obj
 0002:000633d0       ?GetName@ConVar@@WBI@BEPBDXZ 100cc3d0 f i tier1:convar.obj
 0002:000633e0       ?IsFlagSet@ConVar@@WBI@BE_NH@Z 100cc3e0 f i tier1:convar.obj
 0002:000633f0       ??1CEmptyConVar@@UAE@XZ    100cc3f0 f i tier1:convar.obj
 0002:00063440       ?AddToTail@?$CUtlVector@P6AXPAVIConVar@@PBDM@ZV?$CUtlMemory@P6AXPAVIConVar@@PBDM@ZH@@@@QAEHABQ6AXPAVIConVar@@PBDM@Z@Z 100cc440 f i tier1:convar.obj
 0002:00063460       ?InsertBefore@?$CUtlVector@VCUtlString@@V?$CUtlMemory@VCUtlString@@H@@@@QAEHHABVCUtlString@@@Z 100cc460 f i tier1:convar.obj
 0002:000634f0       ??_EConVar@@UAEPAXI@Z      100cc4f0 f i tier1:convar.obj
 0002:000634f0       ??_GConVar@@UAEPAXI@Z      100cc4f0 f i tier1:convar.obj
 0002:00063550       ?InstallChangeCallback@ConVar@@QAEXP6AXPAVIConVar@@PBDM@Z_N@Z 100cc550 f   tier1:convar.obj
 0002:00063600       ?Create@ConVar@@EAEXPBD0H0_NM1MP6AXPAVIConVar@@0M@Z@Z 100cc600 f   tier1:convar.obj
 0002:00063790       ?AddToTail@?$CUtlVector@VCUtlString@@V?$CUtlMemory@VCUtlString@@H@@@@QAEHABVCUtlString@@@Z 100cc790 f i tier1:convar.obj
 0002:000637b0       ?AutoCompleteSuggest@ConCommand@@UAEHPBDAAV?$CUtlVector@VCUtlString@@V?$CUtlMemory@VCUtlString@@H@@@@@Z 100cc7b0 f   tier1:convar.obj
 0002:000638c0       ??0ConVar@@QAE@PBD0H@Z     100cc8c0 f   tier1:convar.obj
 0002:00063940       ??0ConVar@@QAE@PBD0H0@Z    100cc940 f   tier1:convar.obj
 0002:000639c0       ??0ConVar@@QAE@PBD0H0_NM1M@Z 100cc9c0 f   tier1:convar.obj
 0002:00063a50       ??0ConVar@@QAE@PBD0H0P6AXPAVIConVar@@0M@Z@Z 100cca50 f   tier1:convar.obj
 0002:00063ae0       ??0ConVar@@QAE@PBD0H0_NM1MP6AXPAVIConVar@@0M@Z@Z 100ccae0 f   tier1:convar.obj
 0002:00063b80       ??0CEmptyConVar@@QAE@XZ    100ccb80 f i tier1:convar.obj
 0002:00063bb0       ?SetValue@CEmptyConVar@@UAEXPBD@Z 100ccbb0 f i tier1:convar.obj
 0002:00063bc0       ?SetValue@CEmptyConVar@@UAEXM@Z 100ccbc0 f i tier1:convar.obj
 0002:00063bd0       ?SetValue@CEmptyConVar@@UAEXH@Z 100ccbd0 f i tier1:convar.obj
 0002:00063be0       ?GetName@CEmptyConVar@@UBEPBDXZ 100ccbe0 f i tier1:convar.obj
 0002:00063bf0       ?IsFlagSet@CEmptyConVar@@UBE_NH@Z 100ccbf0 f i tier1:convar.obj
 0002:00063c00       ?GetName@CEmptyConVar@@WBI@BEPBDXZ 100ccc00 f i tier1:convar.obj
 0002:00063c10       ?IsFlagSet@CEmptyConVar@@WBI@BE_NH@Z 100ccc10 f i tier1:convar.obj
 0002:00063c20       ??_GCEmptyConVar@@UAEPAXI@Z 100ccc20 f i tier1:convar.obj
 0002:00063c20       ??_ECEmptyConVar@@UAEPAXI@Z 100ccc20 f i tier1:convar.obj
 0002:00063c80       ?strchr@@YAPADPADH@Z       100ccc80 f i tier1:strtools.obj
 0002:00063c90       ?strstr@@YAPADPADPBD@Z     100ccc90 f i tier1:strtools.obj
 0002:00063ca0       ?_V_strlen@@YAHPBD@Z       100ccca0 f   tier1:strtools.obj
 0002:00063ce0       ?_V_wcslen@@YAHPB_W@Z      100ccce0 f   tier1:strtools.obj
 0002:00063d00       ?_V_strrchr@@YAPADPBDD@Z   100ccd00 f   tier1:strtools.obj
 0002:00063d70       ?_V_strcmp@@YAHPBD0@Z      100ccd70 f   tier1:strtools.obj
 0002:00063de0       ?_V_wcscmp@@YAHPB_W0@Z     100ccde0 f   tier1:strtools.obj
 0002:00063e20       ?_V_stricmp@@YAHPBD0@Z     100cce20 f   tier1:strtools.obj
 0002:00063ec0       ?_V_stricmp_NegativeForUnequal@@YAHPBD0@Z 100ccec0 f   tier1:strtools.obj
 0002:00063f80       ?_V_strstr@@YAPADPBD0@Z    100ccf80 f   tier1:strtools.obj
 0002:00063fc0       ?_V_strupr@@YAPADPAD@Z     100ccfc0 f   tier1:strtools.obj
 0002:00063ff0       ?_V_strlower@@YAPADPAD@Z   100ccff0 f   tier1:strtools.obj
 0002:00064020       ?V_strncmp@@YAHPBD0H@Z     100cd020 f   tier1:strtools.obj
 0002:00064090       ?V_strnlwr@@YAPADPADI@Z    100cd090 f   tier1:strtools.obj
 0002:000640f0       ?V_strncasecmp@@YAHPBD0H@Z 100cd0f0 f   tier1:strtools.obj
 0002:00064190       ?V_strcasecmp@@YAHPBD0@Z   100cd190 f   tier1:strtools.obj
 0002:000641d0       ?V_strnicmp@@YAHPBD0H@Z    100cd1d0 f   tier1:strtools.obj
 0002:00064220       ?StringAfterPrefix@@YAPBDPBD0@Z 100cd220 f   tier1:strtools.obj
 0002:00064290       ?StringAfterPrefixCaseSensitive@@YAPBDPBD0@Z 100cd290 f   tier1:strtools.obj
 0002:000642f0       ?V_atoi64@@YA_JPBD@Z       100cd2f0 f   tier1:strtools.obj
 0002:00064500       ?V_atoui64@@YA_KPBD@Z      100cd500 f   tier1:strtools.obj
 0002:000646a0       ?V_atoi@@YAHPBD@Z          100cd6a0 f   tier1:strtools.obj
 0002:000646b0       ?V_normalizeFloatString@@YAXPAD@Z 100cd6b0 f   tier1:strtools.obj
 0002:00064740       ?tolower_fast@@YAEE@Z      100cd740 f i tier1:strtools.obj
 0002:00064760       ?V_stristr@@YAPBDPBD0@Z    100cd760 f   tier1:strtools.obj
 0002:00064870       ?V_stristr@@YAPADPADPBD@Z  100cd870 f   tier1:strtools.obj
 0002:000648b0       ?V_strnistr@@YAPBDPBD0H@Z  100cd8b0 f   tier1:strtools.obj
 0002:000649e0       ?V_strnchr@@YAPBDPBDDH@Z   100cd9e0 f   tier1:strtools.obj
 0002:00064a20       ?V_strncat@@YAPADPADPBDIH@Z 100cda20 f   tier1:strtools.obj
 0002:00064b10       ?V_hextobinary@@YAXPBDHPAEH@Z 100cdb10 f   tier1:strtools.obj
 0002:00064c40       ?V_StripTrailingSlash@@YAXPAD@Z 100cdc40 f   tier1:strtools.obj
 0002:00064ca0       ?V_StripFilename@@YAXPAD@Z 100cdca0 f   tier1:strtools.obj
 0002:00064d00       ?V_FixSlashes@@YAXPADD@Z   100cdd00 f   tier1:strtools.obj
 0002:00064d30       ?V_UnqualifiedFileName@@YAPBDPBD@Z 100cdd30 f   tier1:strtools.obj
 0002:00064d80       ?V_ExtractFilePath@@YA_NPBDPADH@Z 100cdd80 f   tier1:strtools.obj
 0002:00064e20       ?V_GetFileExtension@@YAPBDPBD@Z 100cde20 f   tier1:strtools.obj
 0002:00064e80       ?V_RemoveDotSlashes@@YA_NPADD@Z 100cde80 f   tier1:strtools.obj
 0002:00065030       ?V_AppendSlash@@YAXPADH@Z  100ce030 f   tier1:strtools.obj
 0002:000650b0       ?V_MakeRelativePath@@YA_NPBD0PADH@Z 100ce0b0 f   tier1:strtools.obj
 0002:00065240       ?V_IsAbsolutePath@@YA_NPBD@Z 100ce240 f   tier1:strtools.obj
 0002:000652e0       ?V_GetCurrentDirectory@@YA_NPADH@Z 100ce2e0 f   tier1:strtools.obj
 0002:00065310       ?V_SetCurrentDirectory@@YA_NPBD@Z 100ce310 f   tier1:strtools.obj
 0002:00065330       ?V_StrSlice@@YAXPBDHHPADH@Z 100ce330 f   tier1:strtools.obj
 0002:00065410       ?V_StrLeft@@YAXPBDHPADH@Z  100ce410 f   tier1:strtools.obj
 0002:00065450       ?V_strtowcs@@YAXPBDHPA_WH@Z 100ce450 f   tier1:strtools.obj
 0002:00065490       ?V_wcstostr@@YAXPB_WHPADH@Z 100ce490 f   tier1:strtools.obj
 0002:000654d0       ?V_AddBackSlashesToSpecialChars@@YAPADPBD@Z 100ce4d0 f   tier1:strtools.obj
 0002:000655a0       ?CopyMemory3D@@YAXPAXPBXHHHHHHH@Z 100ce5a0 f   tier1:strtools.obj
 0002:000656d0       ?V_TranslateLineFeedsToUnix@@YAXPAD@Z 100ce6d0 f   tier1:strtools.obj
 0002:00065710       ?HexToValue@@YAHD@Z        100ce710 f   tier1:strtools.obj
 0002:00065760       ?V_StringToBin@@YA_NPBDPAXI@Z 100ce760 f   tier1:strtools.obj
 0002:00065890       ?V_BinToString@@YA_NPADPAXI@Z 100ce890 f   tier1:strtools.obj
 0002:00065910       ??$_Pow_int@N@@YANNH@Z     100ce910 f i tier1:strtools.obj
 0002:00065990       ??$AssertValidWritePtr@X@@YAXPAXH@Z 100ce990 f i tier1:strtools.obj
 0002:000659a0       ??$AssertValidReadPtr@$$CBX@@YAXPBXH@Z 100ce9a0 f i tier1:strtools.obj
 0002:000659b0       ??$AssertValidWritePtr@D@@YAXPADH@Z 100ce9b0 f i tier1:strtools.obj
 0002:000659c0       ??$AssertValidWritePtr@_W@@YAXPA_WH@Z 100ce9c0 f i tier1:strtools.obj
 0002:000659d0       ??$AssertValidReadPtr@$$CB_W@@YAXPB_WH@Z 100ce9d0 f i tier1:strtools.obj
 0002:000659e0       ??A?$CUtlMemory@PADH@@QAEAAPADH@Z 100ce9e0 f i tier1:strtools.obj
 0002:000659f0       ?Base@?$CUtlMemory@PADH@@QAEPAPADXZ 100ce9f0 f i tier1:strtools.obj
 0002:00065a00       ?Element@?$CUtlVector@PADV?$CUtlMemory@PADH@@@@QAEAAPADH@Z 100cea00 f i tier1:strtools.obj
 0002:00065a10       ??$CopyConstruct@PAD@@YAPAPADPAPADABQAD@Z 100cea10 f i tier1:strtools.obj
 0002:00065a30       ??$Destruct@PAD@@YAXPAPAD@Z 100cea30 f i tier1:strtools.obj
 0002:00065a40       ?IsExternallyAllocated@?$CUtlMemory@PADH@@QBE_NXZ 100cea40 f i tier1:strtools.obj
 0002:00065a50       ?NumAllocated@?$CUtlMemory@PADH@@QBEHXZ 100cea50 f i tier1:strtools.obj
 0002:00065a60       ?Grow@?$CUtlMemory@PADH@@QAEXH@Z 100cea60 f i tier1:strtools.obj
 0002:00065b20       ?pow@@YANNH@Z              100ceb20 f i tier1:strtools.obj
 0002:00065b40       ?_V_memset@@YAXPAXHH@Z     100ceb40 f   tier1:strtools.obj
 0002:00065b70       ?_V_memcpy@@YAXPAXPBXH@Z   100ceb70 f   tier1:strtools.obj
 0002:00065bb0       ?_V_memmove@@YAXPAXPBXH@Z  100cebb0 f   tier1:strtools.obj
 0002:00065bf0       ?_V_memcmp@@YAHPBX0H@Z     100cebf0 f   tier1:strtools.obj
 0002:00065cd0       ?_V_strcpy@@YAXPADPBD@Z    100cecd0 f   tier1:strtools.obj
 0002:00065d20       ?V_atof@@YAMPBD@Z          100ced20 f   tier1:strtools.obj
 0002:00065f90       ?V_strncpy@@YAXPADPBDH@Z   100cef90 f   tier1:strtools.obj
 0002:00065fe0       ?V_wcsncpy@@YAXPA_WPB_WH@Z 100cefe0 f   tier1:strtools.obj
 0002:00066030       ?V_snwprintf@@YAHPA_WHPB_WZZ 100cf030 f   tier1:strtools.obj
 0002:00066090       ?V_snprintf@@YAHPADHPBDZZ  100cf090 f   tier1:strtools.obj
 0002:000660f0       ?V_vsnprintf@@YAHPADHPBD0@Z 100cf0f0 f   tier1:strtools.obj
 0002:00066150       ?V_pretifymem@@YAPADMH_N@Z 100cf150 f   tier1:strtools.obj
 0002:00066370       ?V_pretifynum@@YAPAD_J@Z   100cf370 f   tier1:strtools.obj
 0002:00066720       ?V_UTF8ToUnicode@@YAHPBDPA_WH@Z 100cf720 f   tier1:strtools.obj
 0002:00066790       ?V_UnicodeToUTF8@@YAHPB_WPADH@Z 100cf790 f   tier1:strtools.obj
 0002:000667f0       ?V_UCS2ToUnicode@@YAHPB_WPA_WH@Z 100cf7f0 f   tier1:strtools.obj
 0002:00066880       ?V_UCS2ToUTF8@@YAHPB_WPADH@Z 100cf880 f   tier1:strtools.obj
 0002:000668e0       ?V_binarytohex@@YAXPBEHPADH@Z 100cf8e0 f   tier1:strtools.obj
 0002:000669c0       ?V_FileBase@@YAXPBDPADH@Z  100cf9c0 f   tier1:strtools.obj
 0002:00066ac0       ?V_StripExtension@@YAXPBDPADH@Z 100cfac0 f   tier1:strtools.obj
 0002:00066bb0       ?V_DefaultExtension@@YAXPADPBDH@Z 100cfbb0 f   tier1:strtools.obj
 0002:00066d10       ?V_SetExtension@@YAXPADPBDH@Z 100cfd10 f   tier1:strtools.obj
 0002:00066d40       ?V_FixDoubleSlashes@@YAXPAD@Z 100cfd40 f   tier1:strtools.obj
 0002:00066e20       ?V_StripLastDir@@YA_NPADH@Z 100cfe20 f   tier1:strtools.obj
 0002:00066ef0       ?V_ComposeFileName@@YAXPBD0PADH@Z 100cfef0 f   tier1:strtools.obj
 0002:00067010       ?V_ExtractFileExtension@@YAXPBDPADH@Z 100d0010 f   tier1:strtools.obj
 0002:00067070       ?V_MakeAbsolutePath@@YAXPADHPBD1@Z 100d0070 f   tier1:strtools.obj
 0002:000671d0       ?V_FixupPathName@@YAXPADIPBD@Z 100d01d0 f   tier1:strtools.obj
 0002:00067270       ?V_StrSubst@@YA_NPBD00PADH_N@Z 100d0270 f   tier1:strtools.obj
 0002:000673b0       ?AllocString@@YAPADPBDH@Z  100d03b0 f   tier1:strtools.obj
 0002:00067450       ?V_StrRight@@YAXPBDHPADH@Z 100d0450 f   tier1:strtools.obj
 0002:00067500       ?V_StringToIntArray@@YAXPAHHPBD@Z 100d0500 f   tier1:strtools.obj
 0002:000675e0       ?V_StringToColor32@@YAXPAUcolor32_s@@PBD@Z 100d05e0 f   tier1:strtools.obj
 0002:00067630       ?Base@?$CUtlVector@PADV?$CUtlMemory@PADH@@@@QAEPAPADXZ 100d0630 f i tier1:strtools.obj
 0002:00067640       ?RemoveAll@?$CUtlVector@PADV?$CUtlMemory@PADH@@@@QAEXXZ 100d0640 f i tier1:strtools.obj
 0002:00067650       ?Purge@?$CUtlMemory@PADH@@QAEXXZ 100d0650 f i tier1:strtools.obj
 0002:00067690       ?ShiftElementsRight@?$CUtlVector@PADV?$CUtlMemory@PADH@@@@IAEXHH@Z 100d0690 f i tier1:strtools.obj
 0002:000676f0       ?ResetDbgInfo@?$CUtlVector@PADV?$CUtlMemory@PADH@@@@IAEXXZ 100d06f0 f i tier1:strtools.obj
 0002:00067700       ?GrowVector@?$CUtlVector@PADV?$CUtlMemory@PADH@@@@IAEXH@Z 100d0700 f i tier1:strtools.obj
 0002:00067740       ?Purge@?$CUtlVector@PADV?$CUtlMemory@PADH@@@@QAEXXZ 100d0740 f i tier1:strtools.obj
 0002:000677a0       ?InsertBefore@?$CUtlVector@PADV?$CUtlMemory@PADH@@@@QAEHHABQAD@Z 100d07a0 f i tier1:strtools.obj
 0002:00067850       ?AddToTail@?$CUtlVector@PADV?$CUtlMemory@PADH@@@@QAEHABQAD@Z 100d0850 f i tier1:strtools.obj
 0002:00067870       ?V_SplitString2@@YAXPBDPAPBDHAAV?$CUtlVector@PADV?$CUtlMemory@PADH@@@@@Z 100d0870 f   tier1:strtools.obj
 0002:000679f0       ?V_SplitString@@YAXPBD0AAV?$CUtlVector@PADV?$CUtlMemory@PADH@@@@@Z 100d09f0 f   tier1:strtools.obj
 0002:00067a10       ??0InterfaceReg@@QAE@P6APAXXZPBD@Z 100d0a10 f   tier1:interface.obj
 0002:00067a40       ?CreateInterfaceInternal@@YAPAXPBDPAH@Z 100d0a40 f   tier1:interface.obj
 0002:00067ad0       _CreateInterface           100d0ad0 f   tier1:interface.obj
 0002:00067b10       ?Sys_IsDebuggerPresent@@YA_NXZ 100d0b10 f   tier1:interface.obj
 0002:00067b20       ??0ThreadedLoadLibaryContext_t@@QAE@XZ 100d0b20 f i tier1:interface.obj
 0002:00067b40       ?ThreadedLoadLibraryFunc@@YAIPAX@Z 100d0b40 f   tier1:interface.obj
 0002:00067de0       ?Sys_LoadModule@@YAPAVCSysModule@@PBD@Z 100d0de0 f   tier1:interface.obj
 0002:00068020       ?Sys_RunningWithDebugModules@@YA_NXZ 100d1020 f   tier1:interface.obj
 0002:000680a0       ?Sys_UnloadModule@@YAXPAVCSysModule@@@Z 100d10a0 f   tier1:interface.obj
 0002:000680c0       ?Sys_GetFactory@@YAP6APAXPBDPAH@ZPAVCSysModule@@@Z 100d10c0 f   tier1:interface.obj
 0002:000680e0       ?Sys_GetFactoryThis@@YAP6APAXPBDPAH@ZXZ 100d10e0 f   tier1:interface.obj
 0002:000680f0       ?Sys_GetFactory@@YAP6APAXPBDPAH@Z0@Z 100d10f0 f   tier1:interface.obj
 0002:00068110       ?Sys_LoadInterface@@YA_NPBD0PAPAVCSysModule@@PAPAX@Z 100d1110 f   tier1:interface.obj
 0002:00068180       ??0CDllDemandLoader@@QAE@PBD@Z 100d1180 f   tier1:interface.obj
 0002:000681a0       ?GetFactory@CDllDemandLoader@@QAEP6APAXPBDPAH@ZXZ 100d11a0 f   tier1:interface.obj
 0002:000681f0       ?Unload@CDllDemandLoader@@QAEXXZ 100d11f0 f   tier1:interface.obj
 0002:00068210       ??1CDllDemandLoader@@UAE@XZ 100d1210 f   tier1:interface.obj
 0002:00068240       ??_GCDllDemandLoader@@UAEPAXI@Z 100d1240 f i tier1:interface.obj
 0002:00068240       ??_ECDllDemandLoader@@UAEPAXI@Z 100d1240 f i tier1:interface.obj
 0002:00068290       ?ConnectTier1Libraries@@YAXPAP6APAXPBDPAH@ZH@Z 100d1290 f   tier1:tier1.obj
 0002:000682a0       ?DisconnectTier1Libraries@@YAXXZ 100d12a0 f   tier1:tier1.obj
 0002:000682b0       ?Length@CUtlBinaryBlock@@QBEHXZ 100d12b0 f i tier1:utlstring.obj
 0002:000682c0       ?Length@CUtlString@@QBEHXZ 100d12c0 f   tier1:utlstring.obj
 0002:000682e0       ??0?$CUtlMemory@EH@@QAE@PBEH@Z 100d12e0 f i tier1:utlstring.obj
 0002:00068300       ??0?$CUtlMemory@EH@@QAE@PAEH@Z 100d1300 f i tier1:utlstring.obj
 0002:00068320       ??A?$CUtlMemory@EH@@QAEAAEH@Z 100d1320 f i tier1:utlstring.obj
 0002:00068330       ?Base@?$CUtlMemory@EH@@QBEPBEXZ 100d1330 f i tier1:utlstring.obj
 0002:00068340       ?Base@?$CUtlMemory@EH@@QAEPAEXZ 100d1340 f i tier1:utlstring.obj
 0002:00068350       ?NumAllocated@?$CUtlMemory@EH@@QBEHXZ 100d1350 f i tier1:utlstring.obj
 0002:00068360       ?ValidateGrowSize@?$CUtlMemory@EH@@IAEXXZ 100d1360 f i tier1:utlstring.obj
 0002:00068370       ?Get@CUtlBinaryBlock@@QBEPBXXZ 100d1370 f i tier1:utlstring.obj
 0002:00068380       ?Get@CUtlBinaryBlock@@QAEPAXXZ 100d1380 f i tier1:utlstring.obj
 0002:00068390       ??ACUtlBinaryBlock@@QAEAAEH@Z 100d1390 f i tier1:utlstring.obj
 0002:000683a0       ?IsEmpty@CUtlString@@QBE_NXZ 100d13a0 f i tier1:utlstring.obj
 0002:000683d0       ?Get@CUtlBinaryBlock@@QBEXPAXH@Z 100d13d0 f   tier1:utlstring.obj
 0002:00068400       ??8CUtlBinaryBlock@@QBE_NABV0@@Z 100d1400 f   tier1:utlstring.obj
 0002:000684e0       ?Get@CUtlString@@QBEPBDXZ  100d14e0 f   tier1:utlstring.obj
 0002:00068500       ??BCUtlString@@QBEPBDXZ    100d1500 f   tier1:utlstring.obj
 0002:00068520       ??8CUtlString@@QBE_NABV0@@Z 100d1520 f   tier1:utlstring.obj
 0002:00068530       ??8CUtlString@@QBE_NPBD@Z  100d1530 f   tier1:utlstring.obj
 0002:00068590       ??0?$CUtlMemory@EH@@QAE@HH@Z 100d1590 f i tier1:utlstring.obj
 0002:000685d0       ?Grow@?$CUtlMemory@EH@@QAEXH@Z 100d15d0 f i tier1:utlstring.obj
 0002:00068680       ?String@CUtlString@@QBEPBDXZ 100d1680 f i tier1:utlstring.obj
 0002:000686a0       ?SetLength@CUtlBinaryBlock@@QAEXH@Z 100d16a0 f   tier1:utlstring.obj
 0002:000686e0       ?Set@CUtlBinaryBlock@@QAEXPBXH@Z 100d16e0 f   tier1:utlstring.obj
 0002:00068770       ??4CUtlBinaryBlock@@QAEAAV0@ABV0@@Z 100d1770 f   tier1:utlstring.obj
 0002:000687a0       ?SetDirect@CUtlString@@QAEXPBDH@Z 100d17a0 f   tier1:utlstring.obj
 0002:00068830       ?Set@CUtlString@@QAEXPBD@Z 100d1830 f   tier1:utlstring.obj
 0002:00068880       ?SetLength@CUtlString@@QAEXH@Z 100d1880 f   tier1:utlstring.obj
 0002:000688d0       ?Get@CUtlString@@QAEPADXZ  100d18d0 f   tier1:utlstring.obj
 0002:00068920       ??4CUtlString@@QAEAAV0@ABV0@@Z 100d1920 f   tier1:utlstring.obj
 0002:00068950       ??4CUtlString@@QAEAAV0@PBD@Z 100d1950 f   tier1:utlstring.obj
 0002:000689a0       ??YCUtlString@@QAEAAV0@ABV0@@Z 100d19a0 f   tier1:utlstring.obj
 0002:00068ab0       ??YCUtlString@@QAEAAV0@PBD@Z 100d1ab0 f   tier1:utlstring.obj
 0002:00068ba0       ??YCUtlString@@QAEAAV0@D@Z 100d1ba0 f   tier1:utlstring.obj
 0002:00068c10       ??YCUtlString@@QAEAAV0@H@Z 100d1c10 f   tier1:utlstring.obj
 0002:00068c60       ??YCUtlString@@QAEAAV0@N@Z 100d1c60 f   tier1:utlstring.obj
 0002:00068cc0       ?Format@CUtlString@@QAAHPBDZZ 100d1cc0 f   tier1:utlstring.obj
 0002:00068d50       ?StripTrailingSlash@CUtlString@@QAEXXZ 100d1d50 f   tier1:utlstring.obj
 0002:00068dc0       ?Clear@CUtlBinaryBlock@@QAEXXZ 100d1dc0 f i tier1:utlstring.obj
 0002:00068df0       ?Purge@CUtlBinaryBlock@@QAEXXZ 100d1df0 f i tier1:utlstring.obj
 0002:00068e60       ??0CUtlBinaryBlock@@QAE@HH@Z 100d1e60 f   tier1:utlstring.obj
 0002:00068eb0       ??0CUtlBinaryBlock@@QAE@PAXHH@Z 100d1eb0 f   tier1:utlstring.obj
 0002:00068ee0       ??0CUtlBinaryBlock@@QAE@PBXH@Z 100d1ee0 f   tier1:utlstring.obj
 0002:00068f10       ??0CUtlBinaryBlock@@QAE@ABV0@@Z 100d1f10 f   tier1:utlstring.obj
 0002:00068f40       ??0CUtlString@@QAE@PBD@Z   100d1f40 f   tier1:utlstring.obj
 0002:00068f90       ??0CUtlString@@QAE@ABV0@@Z 100d1f90 f   tier1:utlstring.obj
 0002:00068ff0       ??0CUtlString@@QAE@PAXHH@Z 100d1ff0 f   tier1:utlstring.obj
 0002:00069020       ??0CUtlString@@QAE@PBXH@Z  100d2020 f   tier1:utlstring.obj
 0002:00069050       ?Clear@CUtlString@@QAEXXZ  100d2050 f   tier1:utlstring.obj
 0002:00069080       ?Purge@CUtlString@@QAEXXZ  100d2080 f   tier1:utlstring.obj
 0002:00069090       ?Replace@CUtlString@@QAE?AV1@DD@Z 100d2090 f   tier1:utlstring.obj
 0002:00069150       ?AbsPath@CUtlString@@QAE?AV1@PBD@Z 100d2150 f   tier1:utlstring.obj
 0002:000691f0       ?UnqualifiedFilename@CUtlString@@QAE?AV1@XZ 100d21f0 f   tier1:utlstring.obj
 0002:00069280       ?DirName@CUtlString@@QAE?AV1@XZ 100d2280 f   tier1:utlstring.obj
 0002:000692f0       ?PathJoin@CUtlString@@SA?AV1@PBD0@Z 100d22f0 f   tier1:utlstring.obj
 0002:00069370       ??HCUtlString@@QAE?AV0@PBD@Z 100d2370 f   tier1:utlstring.obj
 0002:000693d0       ??0CUtlString@@QAE@XZ      100d23d0 f   tier1:utlstring.obj
 0002:000693f0       ??HCUtlString@@QAE?AV0@H@Z 100d23f0 f   tier1:utlstring.obj
 0002:000694a0       ?Slice@CUtlString@@QAE?AV1@HH@Z 100d24a0 f   tier1:utlstring.obj
 0002:00069710       ?Left@CUtlString@@QAE?AV1@H@Z 100d2710 f   tier1:utlstring.obj
 0002:00069730       ?Right@CUtlString@@QAE?AV1@H@Z 100d2730 f   tier1:utlstring.obj
 0002:00069760       ?CharacterSetBuild@@YAXPAUcharacterset_t@@PBD@Z 100d2760 f   tier1:characterset.obj
 0002:000697c0       ?V_isspace@@YA_NH@Z        100d27c0 f i tier1:utlbuffer.obj
 0002:000697e0       ?IsMachineBigEndian@CByteswap@@SA_NXZ 100d27e0 f i tier1:utlbuffer.obj
 0002:000697f0       ?SetTargetBigEndian@CByteswap@@QAEX_N@Z 100d27f0 f i tier1:utlbuffer.obj
 0002:00069820       ?ActivateByteSwapping@CByteswap@@QAEX_N@Z 100d2820 f i tier1:utlbuffer.obj
 0002:00069850       ?IsSwappingBytes@CByteswap@@QAE_NXZ 100d2850 f i tier1:utlbuffer.obj
 0002:00069860       ?IsTargetBigEndian@CByteswap@@QAE_NXZ 100d2860 f i tier1:utlbuffer.obj
 0002:00069870       ??$StringToNumber@F@@YAFPADPAPADH@Z 100d2870 f i tier1:utlbuffer.obj
 0002:00069880       ??$StringToNumber@G@@YAGPADPAPADH@Z 100d2880 f i tier1:utlbuffer.obj
 0002:00069890       ??$StringToNumber@H@@YAHPADPAPADH@Z 100d2890 f i tier1:utlbuffer.obj
 0002:000698a0       ??$StringToNumber@I@@YAIPADPAPADH@Z 100d28a0 f i tier1:utlbuffer.obj
 0002:000698b0       ??$StringToNumber@_J@@YA_JPADPAPADH@Z 100d28b0 f i tier1:utlbuffer.obj
 0002:000698c0       ??$StringToNumber@M@@YAMPADPAPADH@Z 100d28c0 f i tier1:utlbuffer.obj
 0002:000698e0       ??$StringToNumber@N@@YANPADPAPADH@Z 100d28e0 f i tier1:utlbuffer.obj
 0002:00069900       ?TellPut@CUtlBuffer@@QBEHXZ 100d2900 f i tier1:utlbuffer.obj
 0002:00069910       ?TellMaxPut@CUtlBuffer@@QBEHXZ 100d2910 f i tier1:utlbuffer.obj
 0002:00069920       ?IsText@CUtlBuffer@@QBE_NXZ 100d2920 f i tier1:utlbuffer.obj
 0002:00069930       ?IsGrowable@CUtlBuffer@@QBE_NXZ 100d2930 f i tier1:utlbuffer.obj
 0002:00069940       ?ContainsCRLF@CUtlBuffer@@QBE_NXZ 100d2940 f i tier1:utlbuffer.obj
 0002:00069960       ?IsReadOnly@CUtlBuffer@@QBE_NXZ 100d2960 f i tier1:utlbuffer.obj
 0002:00069970       ?GetCStringCharConversion@@YAPAVCUtlCharConversion@@XZ 100d2970 f   tier1:utlbuffer.obj
 0002:00069980       ?GetNoEscCharConversion@@YAPAVCUtlCharConversion@@XZ 100d2980 f   tier1:utlbuffer.obj
 0002:00069990       ?FindConversion@CUtlCStringConversion@@UAEDPBDPAH@Z 100d2990 f   tier1:utlbuffer.obj
 0002:000699c0       ??0CUtlCharConversion@@QAE@DPBDHPAUConversionArray_t@0@@Z 100d29c0 f   tier1:utlbuffer.obj
 0002:00069a80       ?GetEscapeChar@CUtlCharConversion@@QBEDXZ 100d2a80 f   tier1:utlbuffer.obj
 0002:00069a90       ?GetDelimiter@CUtlCharConversion@@QBEPBDXZ 100d2a90 f   tier1:utlbuffer.obj
 0002:00069aa0       ?GetDelimiterLength@CUtlCharConversion@@QBEHXZ 100d2aa0 f   tier1:utlbuffer.obj
 0002:00069ab0       ?GetConversionString@CUtlCharConversion@@QBEPBDD@Z 100d2ab0 f   tier1:utlbuffer.obj
 0002:00069ad0       ?GetConversionLength@CUtlCharConversion@@QBEHD@Z 100d2ad0 f   tier1:utlbuffer.obj
 0002:00069af0       ?MaxConversionLength@CUtlCharConversion@@QBEHXZ 100d2af0 f   tier1:utlbuffer.obj
 0002:00069b00       ?FindConversion@CUtlCharConversion@@UAEDPBDPAH@Z 100d2b00 f   tier1:utlbuffer.obj
 0002:00069b80       ?SetBufferType@CUtlBuffer@@QAEX_N0@Z 100d2b80 f   tier1:utlbuffer.obj
 0002:00069bb0       ?SetOverflowFuncs@CUtlBuffer@@IAEXP81@AE_NH@Z0@Z 100d2bb0 f   tier1:utlbuffer.obj
 0002:00069bd0       ?OnPutOverflow@CUtlBuffer@@IAE_NH@Z 100d2bd0 f   tier1:utlbuffer.obj
 0002:00069be0       ?OnGetOverflow@CUtlBuffer@@IAE_NH@Z 100d2be0 f   tier1:utlbuffer.obj
 0002:00069bf0       ?GetOverflow@CUtlBuffer@@IAE_NH@Z 100d2bf0 f   tier1:utlbuffer.obj
 0002:00069c00       ?ActivateByteSwapping@CUtlBuffer@@QAEX_N@Z 100d2c00 f   tier1:utlbuffer.obj
 0002:00069c30       ?SetBigEndian@CUtlBuffer@@QAEX_N@Z 100d2c30 f   tier1:utlbuffer.obj
 0002:00069c60       ?IsBigEndian@CUtlBuffer@@QAE_NXZ 100d2c60 f   tier1:utlbuffer.obj
 0002:00069c70       ??A?$CUtlMemory@EH@@QBEABEH@Z 100d2c70 f i tier1:utlbuffer.obj
 0002:00069c80       ??$LowLevelByteSwap@D@CByteswap@@CAXPAD0@Z 100d2c80 f i tier1:utlbuffer.obj
 0002:00069cb0       ??0CByteswap@@QAE@XZ       100d2cb0 f i tier1:utlbuffer.obj
 0002:00069cc0       ?PeekGet@CUtlBuffer@@QBEPBXH@Z 100d2cc0 f i tier1:utlbuffer.obj
 0002:00069ce0       ?PeekPut@CUtlBuffer@@QAEPAXH@Z 100d2ce0 f i tier1:utlbuffer.obj
 0002:00069d00       ?WasLastCharacterCR@CUtlBuffer@@IAE_NXZ 100d2d00 f i tier1:utlbuffer.obj
 0002:00069d30       ?Base@CUtlBuffer@@QAEPAXXZ 100d2d30 f i tier1:utlbuffer.obj
 0002:00069d40       ?Size@CUtlBuffer@@QBEHXZ   100d2d40 f i tier1:utlbuffer.obj
 0002:00069d50       ??0CUtlNoEscConversion@@QAE@DPBDHPAUConversionArray_t@CUtlCharConversion@@@Z 100d2d50 f i tier1:utlbuffer.obj
 0002:00069d90       ?FindConversion@CUtlNoEscConversion@@UAEDPBDPAH@Z 100d2d90 f i tier1:utlbuffer.obj
 0002:00069db0       ??0CUtlCStringConversion@@QAE@DPBDHPAUConversionArray_t@CUtlCharConversion@@@Z 100d2db0 f   tier1:utlbuffer.obj
 0002:00069e30       ?CheckGet@CUtlBuffer@@IAE_NH@Z 100d2e30 f   tier1:utlbuffer.obj
 0002:00069ea0       ?CheckPeekGet@CUtlBuffer@@IAE_NHH@Z 100d2ea0 f   tier1:utlbuffer.obj
 0002:00069ee0       ?CheckArbitraryPeekGet@CUtlBuffer@@IAE_NHAAH@Z 100d2ee0 f   tier1:utlbuffer.obj
 0002:00069f70       ?PeekGet@CUtlBuffer@@QAEPBXHH@Z 100d2f70 f   tier1:utlbuffer.obj
 0002:00069fc0       ?SeekGet@CUtlBuffer@@QAEXW4SeekType_t@1@H@Z 100d2fc0 f   tier1:utlbuffer.obj
 0002:0006a040       ?GetToken@CUtlBuffer@@QAE_NPBD@Z 100d3040 f   tier1:utlbuffer.obj
 0002:0006a240       ?CheckPut@CUtlBuffer@@IAE_NH@Z 100d3240 f   tier1:utlbuffer.obj
 0002:0006a2a0       ?AddNullTermination@CUtlBuffer@@IAEXXZ 100d32a0 f   tier1:utlbuffer.obj
 0002:0006a300       ?DetachMemory@?$CUtlMemory@EH@@QAEPAXXZ 100d3300 f i tier1:utlbuffer.obj
 0002:0006a320       ?ConvertToGrowableMemory@?$CUtlMemory@EH@@QAEXH@Z 100d3320 f i tier1:utlbuffer.obj
 0002:0006a380       ?EnsureCapacity@?$CUtlMemory@EH@@QAEXH@Z 100d3380 f i tier1:utlbuffer.obj
 0002:0006a3e0       ??$GetTypeText@I@CUtlBuffer@@IAE_NAAIH@Z 100d33e0 f i tier1:utlbuffer.obj
 0002:0006a470       ??$GetTypeText@F@CUtlBuffer@@IAE_NAAFH@Z 100d3470 f i tier1:utlbuffer.obj
 0002:0006a500       ??$GetTypeText@G@CUtlBuffer@@IAE_NAAGH@Z 100d3500 f i tier1:utlbuffer.obj
 0002:0006a590       ??$GetTypeText@_J@CUtlBuffer@@IAE_NAA_JH@Z 100d3590 f i tier1:utlbuffer.obj
 0002:0006a630       ??$GetTypeText@H@CUtlBuffer@@IAE_NAAHH@Z 100d3630 f i tier1:utlbuffer.obj
 0002:0006a6c0       ??$GetTypeText@N@CUtlBuffer@@IAE_NAANH@Z 100d36c0 f i tier1:utlbuffer.obj
 0002:0006a750       ??$GetTypeText@M@CUtlBuffer@@IAE_NAAMH@Z 100d3750 f i tier1:utlbuffer.obj
 0002:0006a7e0       ??$SwapBufferToTargetEndian@D@CByteswap@@QAEXPAD0H@Z 100d37e0 f i tier1:utlbuffer.obj
 0002:0006a820       ?Purge@CUtlBuffer@@QAEXXZ  100d3820 f i tier1:utlbuffer.obj
 0002:0006a870       ?DetachMemory@CUtlBuffer@@QAEPAXXZ 100d3870 f   tier1:utlbuffer.obj
 0002:0006a8a0       ?EnsureCapacity@CUtlBuffer@@QAEXH@Z 100d38a0 f   tier1:utlbuffer.obj
 0002:0006a920       ?Get@CUtlBuffer@@QAEXPAXH@Z 100d3920 f   tier1:utlbuffer.obj
 0002:0006a970       ?GetUpTo@CUtlBuffer@@QAEHPAXH@Z 100d3970 f   tier1:utlbuffer.obj
 0002:0006a9c0       ?EatWhiteSpace@CUtlBuffer@@QAEXXZ 100d39c0 f   tier1:utlbuffer.obj
 0002:0006aa50       ?PeekWhiteSpace@CUtlBuffer@@IAEHH@Z 100d3a50 f   tier1:utlbuffer.obj
 0002:0006ab10       ?PeekStringLength@CUtlBuffer@@QAEHXZ 100d3b10 f   tier1:utlbuffer.obj
 0002:0006acc0       ?PeekLineLength@CUtlBuffer@@IAEHXZ 100d3cc0 f   tier1:utlbuffer.obj
 0002:0006adf0       ?PeekStringMatch@CUtlBuffer@@IAE_NHPBDH@Z 100d3df0 f   tier1:utlbuffer.obj
 0002:0006ae60       ?PeekDelimitedStringLength@CUtlBuffer@@QAEHPAVCUtlCharConversion@@_N@Z 100d3e60 f   tier1:utlbuffer.obj
 0002:0006b000       ?GetLine@CUtlBuffer@@QAEXPADH@Z 100d4000 f   tier1:utlbuffer.obj
 0002:0006b0e0       ?Put@CUtlBuffer@@QAEXPBXH@Z 100d40e0 f   tier1:utlbuffer.obj
 0002:0006b160       ?PutOverflow@CUtlBuffer@@IAE_NH@Z 100d4160 f   tier1:utlbuffer.obj
 0002:0006b1c0       ?SeekPut@CUtlBuffer@@QAEXW4SeekType_t@1@H@Z 100d41c0 f   tier1:utlbuffer.obj
 0002:0006b260       ?InplaceGetLinePtr@CUtlInplaceBuffer@@QAE_NPAPADPAH@Z 100d4260 f   tier1:utlbuffer.obj
 0002:0006b310       ?InplaceGetLinePtr@CUtlInplaceBuffer@@QAEPADXZ 100d4310 f   tier1:utlbuffer.obj
 0002:0006b380       ?SetExternalBuffer@?$CUtlMemory@EH@@QAEXPAEH@Z 100d4380 f i tier1:utlbuffer.obj
 0002:0006b3e0       ?AssumeMemory@?$CUtlMemory@EH@@QAEXPAEH@Z 100d43e0 f i tier1:utlbuffer.obj
 0002:0006b450       ??$GetTypeBin@D@CUtlBuffer@@IAEXAAD@Z 100d4450 f i tier1:utlbuffer.obj
 0002:0006b490       ??$PutTypeBin@D@CUtlBuffer@@IAEXD@Z 100d4490 f i tier1:utlbuffer.obj
 0002:0006b550       ?GetChar@CUtlBuffer@@QAEDXZ 100d4550 f i tier1:utlbuffer.obj
 0002:0006b580       ?PutTabs@CUtlBuffer@@IAEXXZ 100d4580 f i tier1:utlbuffer.obj
 0002:0006b5c0       ?PutChar@CUtlBuffer@@QAEXD@Z 100d45c0 f i tier1:utlbuffer.obj
 0002:0006b630       ??0CUtlBuffer@@QAE@HHH@Z   100d4630 f   tier1:utlbuffer.obj
 0002:0006b6d0       ??0CUtlBuffer@@QAE@PBXHH@Z 100d46d0 f   tier1:utlbuffer.obj
 0002:0006b780       ?SetExternalBuffer@CUtlBuffer@@QAEXPAXHHH@Z 100d4780 f   tier1:utlbuffer.obj
 0002:0006b840       ?AssumeMemory@CUtlBuffer@@QAEXPAXHHH@Z 100d4840 f   tier1:utlbuffer.obj
 0002:0006b900       ?EatCPPComment@CUtlBuffer@@QAE_NXZ 100d4900 f   tier1:utlbuffer.obj
 0002:0006b980       ?GetString@CUtlBuffer@@QAEXPADH@Z 100d4980 f   tier1:utlbuffer.obj
 0002:0006ba80       ?GetDelimitedCharInternal@CUtlBuffer@@IAEDPAVCUtlCharConversion@@@Z 100d4a80 f   tier1:utlbuffer.obj
 0002:0006bb60       ?GetDelimitedChar@CUtlBuffer@@QAEDPAVCUtlCharConversion@@@Z 100d4b60 f   tier1:utlbuffer.obj
 0002:0006bbc0       ?GetDelimitedString@CUtlBuffer@@QAEXPAVCUtlCharConversion@@PADH@Z 100d4bc0 f   tier1:utlbuffer.obj
 0002:0006bd30       ?VaScanf@CUtlBuffer@@QAEHPBDPAD@Z 100d4d30 f   tier1:utlbuffer.obj
 0002:0006c0a0       ?Scanf@CUtlBuffer@@QAAHPBDZZ 100d50a0 f   tier1:utlbuffer.obj
 0002:0006c0c0       ?ParseToken@CUtlBuffer@@QAE_NPBD0PADH@Z 100d50c0 f   tier1:utlbuffer.obj
 0002:0006c360       ?ParseToken@CUtlBuffer@@QAEHPAUcharacterset_t@@PADH_N@Z 100d5360 f   tier1:utlbuffer.obj
 0002:0006c5c0       ?PutString@CUtlBuffer@@QAEXPBD@Z 100d55c0 f   tier1:utlbuffer.obj
 0002:0006c6f0       ?PutDelimitedCharInternal@CUtlBuffer@@IAEXPAVCUtlCharConversion@@D@Z 100d56f0 f i tier1:utlbuffer.obj
 0002:0006c750       ?PutDelimitedChar@CUtlBuffer@@QAEXPAVCUtlCharConversion@@D@Z 100d5750 f   tier1:utlbuffer.obj
 0002:0006c780       ?PutDelimitedString@CUtlBuffer@@QAEXPAVCUtlCharConversion@@PBD@Z 100d5780 f   tier1:utlbuffer.obj
 0002:0006c910       ?VaPrintf@CUtlBuffer@@QAEXPBDPAD@Z 100d5910 f   tier1:utlbuffer.obj
 0002:0006c960       ?Printf@CUtlBuffer@@QAAXPBDZZ 100d5960 f   tier1:utlbuffer.obj
 0002:0006c9b0       ?ConvertCRLF@CUtlBuffer@@QAE_NAAV1@@Z 100d59b0 f   tier1:utlbuffer.obj
 0002:0006cc40       ??0CUtlInplaceBuffer@@QAE@HHH@Z 100d5c40 f   tier1:utlbuffer.obj
 0002:0006cc70       ??_U@YAPAXI@Z              100d5c70 f   libcpmtd:newaop.obj
 0002:0006cc90       __RTC_CheckEsp             100d5c90 f   LIBCMTD:_stack_.obj
 0002:0006ccc0       @_RTC_CheckStackVars@8     100d5cc0 f   LIBCMTD:_stack_.obj
 0002:0006cd40       @_RTC_AllocaHelper@12      100d5d40 f   LIBCMTD:_stack_.obj
 0002:0006cd80       @_RTC_CheckStackVars2@12   100d5d80 f   LIBCMTD:_stack_.obj
 0002:0006ce90       __RTC_InitBase             100d5e90 f   LIBCMTD:_init_.obj
 0002:0006ced0       __RTC_Shutdown             100d5ed0 f   LIBCMTD:_init_.obj
 0002:0006cef0       __fpmath                   100d5ef0 f   LIBCMTD:_fpinit_.obj
 0002:0006cf10       __cfltcvt_init             100d5f10 f   LIBCMTD:_fpinit_.obj
 0002:0006cfa0       ___setfflag                100d5fa0 f   LIBCMTD:_fpinit_.obj
 0002:0006cfd0       _memcpy                    100d5fd0 f   LIBCMTD:memcpy.obj
 0002:0006d410       __ftol2_sse                100d6410 f   LIBCMTD:ftol2.obj
 0002:0006d419       __ftol2_pentium4           100d6419 f   LIBCMTD:ftol2.obj
 0002:0006d42c       __ftol2_sse_excpt          100d642c f   LIBCMTD:ftol2.obj
 0002:0006d446       __ftol2                    100d6446 f   LIBCMTD:ftol2.obj
 0002:0006d4f0       _fmod                      100d64f0 f   LIBCMTD:_87fmod_.obj
 0002:0006d4fa       __CIfmod                   100d64fa f   LIBCMTD:_87fmod_.obj
 0002:0006d520       __onexit                   100d6520 f   LIBCMTD:onexit.obj
 0002:0006d760       _atexit                    100d6760 f   LIBCMTD:onexit.obj
 0002:0006d790       ___onexitinit              100d6790 f   LIBCMTD:onexit.obj
 0002:0006d800       ?name@type_info@@QBEPBDPAU__type_info_node@@@Z 100d6800 f   LIBCMTD:typinfo.obj
 0002:0006d830       ??1type_info@@UAE@XZ       100d6830 f   LIBCMTD:typinfo.obj
 0002:0006d860       ??_Etype_info@@UAEPAXI@Z   100d6860 f i LIBCMTD:typinfo.obj
 0002:0006d860       ??_Gtype_info@@UAEPAXI@Z   100d6860 f i LIBCMTD:typinfo.obj
 0002:0006d8a0       ?_name_internal_method@type_info@@QBEPBDPAU__type_info_node@@@Z 100d68a0 f   LIBCMTD:typinfo.obj
 0002:0006d8d0       ?_type_info_dtor_internal_method@type_info@@QAEXXZ 100d68d0 f   LIBCMTD:typinfo.obj
 0002:0006d8f0       ??8type_info@@QBE_NABV0@@Z 100d68f0 f   LIBCMTD:typinfo.obj
 0002:0006d930       ??9type_info@@QBE_NABV0@@Z 100d6930 f   LIBCMTD:typinfo.obj
 0002:0006d970       ?before@type_info@@QBEHABV1@@Z 100d6970 f   LIBCMTD:typinfo.obj
 0002:0006d9b0       ?raw_name@type_info@@QBEPBDXZ 100d69b0 f   LIBCMTD:typinfo.obj
 0002:0006d9d0       ??0type_info@@AAE@ABV0@@Z  100d69d0 f   LIBCMTD:typinfo.obj
 0002:0006da00       ??4type_info@@AAEAAV0@ABV0@@Z 100d6a00 f   LIBCMTD:typinfo.obj
 0002:0006da20       ___clean_type_info_names   100d6a20 f   LIBCMTD:tncleanup.obj
 0002:0006da40       __purecall                 100d6a40 f   LIBCMTD:purevirt.obj
 0002:0006da90       __set_purecall_handler     100d6a90 f   LIBCMTD:purevirt.obj
 0002:0006dad0       __get_purecall_handler     100d6ad0 f   LIBCMTD:purevirt.obj
 0002:0006daf0       _memset                    100d6af0 f   LIBCMTD:memset.obj
 0002:0006db90       _printf                    100d6b90 f   LIBCMTD:printf.obj
 0002:0006dd20       __printf_l                 100d6d20 f   LIBCMTD:printf.obj
 0002:0006dd50       __printf_s_l               100d6d50 f   LIBCMTD:printf.obj
 0002:0006dd80       _printf_s                  100d6d80 f   LIBCMTD:printf.obj
 0002:0006ddb0       __printf_p_l               100d6db0 f   LIBCMTD:printf.obj
 0002:0006dde0       __printf_p                 100d6de0 f   LIBCMTD:printf.obj
 0002:0006de10       __set_printf_count_output  100d6e10 f   LIBCMTD:printf.obj
 0002:0006de70       __get_printf_count_output  100d6e70 f   LIBCMTD:printf.obj
 0002:0006dea0       ??2@YAPAXIHPBDH@Z          100d6ea0 f   LIBCMTD:dbgnew.obj
 0002:0006df40       ??0bad_alloc@std@@QAE@XZ   100d6f40 f i LIBCMTD:dbgnew.obj
 0002:0006df80       ??1bad_alloc@std@@UAE@XZ   100d6f80 f i LIBCMTD:dbgnew.obj
 0002:0006dfb0       ??_Ebad_alloc@std@@UAEPAXI@Z 100d6fb0 f i LIBCMTD:dbgnew.obj
 0002:0006dfb0       ??_Gbad_alloc@std@@UAEPAXI@Z 100d6fb0 f i LIBCMTD:dbgnew.obj
 0002:0006dff0       ??0bad_alloc@std@@QAE@ABV01@@Z 100d6ff0 f i LIBCMTD:dbgnew.obj
 0002:0006e020       ??_U@YAPAXIHPBDH@Z         100d7020 f   LIBCMTD:dbgnew.obj
 0002:0006e060       ??3@YAXPAX@Z               100d7060 f   LIBCMTD:dbgdel.obj
 0002:0006e180       ??_V@YAXPAX@Z              100d7180 f   LIBCMTD:delete2.obj
 0002:0006e1a0       _atol                      100d71a0 f   LIBCMTD:atox.obj
 0002:0006e1c0       __atol_l                   100d71c0 f   LIBCMTD:atox.obj
 0002:0006e1f0       _atoi                      100d71f0 f   LIBCMTD:atox.obj
 0002:0006e210       __atoi_l                   100d7210 f   LIBCMTD:atox.obj
 0002:0006e230       __atoi64                   100d7230 f   LIBCMTD:atox.obj
 0002:0006e250       __atoi64_l                 100d7250 f   LIBCMTD:atox.obj
 0002:0006e280       __CRT_INIT@12              100d7280 f   LIBCMTD:dllcrt0.obj
 0002:0006e520       __DllMainCRTStartup@12     100d7520 f   LIBCMTD:dllcrt0.obj
 0002:0006e780       _floor                     100d7780 f   LIBCMTD:_floor_pentium4_.obj
 0002:0006e7c0       __floor_pentium4           100d77c0 f   LIBCMTD:_floor_pentium4_.obj
 0002:0006e8f0       _pow                       100d78f0 f   LIBCMTD:_pow_.obj
 0002:0006e930       __CIpow                    100d7930 f   LIBCMTD:_pow_.obj
 0002:0006e96b       __CIpow_default            100d796b f   LIBCMTD:_pow_.obj
 0002:0006e984       __pow_default              100d7984     LIBCMTD:_pow_.obj
 0002:0006ec20       ___libm_sse2_pow           100d7c20 f   LIBCMTD:_pow_sse2_.obj
 0002:0006f940       _acos                      100d8940 f   LIBCMTD:_acos_.obj
 0002:0006f980       __CIacos                   100d8980 f   LIBCMTD:_acos_.obj
 0002:0006f9bb       __CIacos_default           100d89bb f   LIBCMTD:_acos_.obj
 0002:0006f9cf       __acos_default             100d89cf     LIBCMTD:_acos_.obj
 0002:0006fae0       ___libm_sse2_atan2         100d8ae0 f   LIBCMTD:_atan2_sse2_.obj
 0002:00070140       ___libm_sse2_acos          100d9140 f   LIBCMTD:_acos_sse2_.obj
 0002:00070710       ___libm_sse2_cos           100d9710 f   LIBCMTD:_cos_sse2_.obj
 0002:00070930       ___libm_sse2_sin           100d9930 f   LIBCMTD:_sin_sse2_.obj
 0002:00070b60       ___libm_sse2_tan           100d9b60 f   LIBCMTD:_tan_sse2_.obj
 0002:00070e50       _asin                      100d9e50 f   LIBCMTD:_asin_.obj
 0002:00070e90       __CIasin                   100d9e90 f   LIBCMTD:_asin_.obj
 0002:00070ecb       __CIasin_default           100d9ecb f   LIBCMTD:_asin_.obj
 0002:00070edf       __asin_default             100d9edf     LIBCMTD:_asin_.obj
 0002:00070ff0       ___libm_sse2_log           100d9ff0 f   LIBCMTD:_log_sse2_.obj
 0002:000712a0       ___libm_sse2_asin          100da2a0 f   LIBCMTD:_asin_sse2_.obj
 0002:00071800       ___libm_sse2_exp           100da800 f   LIBCMTD:_exp_sse2_.obj
 0002:00071aa0       __alloca_probe_16          100daaa0 f   LIBCMTD:alloca16.obj
 0002:00071ab6       __alloca_probe_8           100daab6     LIBCMTD:alloca16.obj
 0002:00071ae0       _srand                     100daae0 f   LIBCMTD:rand.obj
 0002:00071b00       _rand                      100dab00 f   LIBCMTD:rand.obj
 0002:00071b50       ___libm_sse2_atan          100dab50 f   LIBCMTD:_atan_sse2_.obj
 0002:00071df0       ??2@YAPAXI@Z               100dadf0 f   LIBCMTD:new.obj
 0002:00071e90       _sscanf                    100dae90 f   LIBCMTD:sscanf.obj
 0002:00072080       __sscanf_l                 100db080 f   LIBCMTD:sscanf.obj
 0002:000720c0       _sscanf_s                  100db0c0 f   LIBCMTD:sscanf.obj
 0002:00072100       __sscanf_s_l               100db100 f   LIBCMTD:sscanf.obj
 0002:00072140       __atof_l                   100db140 f   LIBCMTD:atof.obj
 0002:000722c0       ??0_LocaleUpdate@@QAE@PAUlocaleinfo_struct@@@Z 100db2c0 f i LIBCMTD:atof.obj
 0002:000723d0       ??1_LocaleUpdate@@QAE@XZ   100db3d0 f i LIBCMTD:atof.obj
 0002:00072410       ?GetLocaleT@_LocaleUpdate@@QAEPAUlocaleinfo_struct@@XZ 100db410 f i LIBCMTD:atof.obj
 0002:00072430       _atof                      100db430 f   LIBCMTD:atof.obj
 0002:00072450       ___strgtold12              100db450 f   LIBCMTD:atof.obj
 0002:000724c0       ___STRINGTOLD              100db4c0 f   LIBCMTD:atof.obj
 0002:00072520       __vsnprintf_l              100db520 f   LIBCMTD:vsnprint.obj
 0002:00072750       __vsnprintf                100db750 f   LIBCMTD:vsnprint.obj
 0002:00072780       ___RTCastToVoid            100db780 f   LIBCMTD:rtti.obj
 0002:00072880       ___RTtypeid                100db880 f   LIBCMTD:rtti.obj
 0002:00072a00       ___RTDynamicCast           100dba00 f   LIBCMTD:rtti.obj
 0002:000732c0       __alloca_probe             100dc2c0     LIBCMTD:chkstk.obj
 0002:000732c0       __chkstk                   100dc2c0 f   LIBCMTD:chkstk.obj
 0002:00073310       _strchr                    100dc310 f   LIBCMTD:strchr.obj
 0002:00073316       ___from_strstr_to_strchr   100dc316     LIBCMTD:strchr.obj
 0002:00073410       _strstr                    100dc410 f   LIBCMTD:strstr.obj
 0002:000734c0       __tolower                  100dc4c0 f   LIBCMTD:tolower.obj
 0002:000734d0       __tolower_l                100dc4d0 f   LIBCMTD:tolower.obj
 0002:00073720       _tolower                   100dc720 f   LIBCMTD:tolower.obj
 0002:00073780       __allmul                   100dc780 f   LIBCMTD:llmul.obj
 0002:000737d0       _strncat                   100dc7d0 f   LIBCMTD:strncat.obj
 0002:00073960       _memmove                   100dc960 f   LIBCMTD:memmove.obj
 0002:00073da0       __getcwd                   100dcda0 f   LIBCMTD:getcwd.obj
 0002:00073e50       __getcwd_dbg               100dce50 f   LIBCMTD:getcwd.obj
 0002:00073f10       __getdcwd                  100dcf10 f   LIBCMTD:getcwd.obj
 0002:00073fc0       __getdcwd_dbg              100dcfc0 f   LIBCMTD:getcwd.obj
 0002:00074080       __getdcwd_nolock           100dd080 f   LIBCMTD:getcwd.obj
 0002:000740b0       __getdcwd_lk_dbg           100dd0b0 f   LIBCMTD:getcwd.obj
 0002:000743a0       __validdrive               100dd3a0 f   LIBCMTD:getcwd.obj
 0002:00074430       __chdir                    100dd430 f   LIBCMTD:chdir.obj
 0002:000746c0       _strncpy                   100dd6c0 f   LIBCMTD:strncpy.obj
 0002:00074830       _wcsncpy                   100dd830 f   LIBCMTD:wcsncpy.obj
 0002:000748c0       __vsnwprintf_l             100dd8c0 f   LIBCMTD:vsnwprnt.obj
 0002:00074b70       __vsnwprintf               100ddb70 f   LIBCMTD:vsnwprnt.obj
 0002:00074ba0       __allrem                   100ddba0 f   LIBCMTD:llrem.obj
 0002:00074c80       __alldiv                   100ddc80 f   LIBCMTD:lldiv.obj
 0002:00074d60       _sprintf                   100ddd60 f   LIBCMTD:sprintf.obj
 0002:00074f60       __sprintf_l                100ddf60 f   LIBCMTD:sprintf.obj
 0002:00074fa0       _sprintf_s                 100ddfa0 f   LIBCMTD:sprintf.obj
 0002:00074fe0       __sprintf_s_l              100ddfe0 f   LIBCMTD:sprintf.obj
 0002:00075020       __snprintf_s               100de020 f   LIBCMTD:sprintf.obj
 0002:00075060       __snprintf_s_l             100de060 f   LIBCMTD:sprintf.obj
 0002:000750a0       __sprintf_p                100de0a0 f   LIBCMTD:sprintf.obj
 0002:000750e0       __sprintf_p_l              100de0e0 f   LIBCMTD:sprintf.obj
 0002:00075120       __scprintf                 100de120 f   LIBCMTD:sprintf.obj
 0002:00075150       __scprintf_p               100de150 f   LIBCMTD:sprintf.obj
 0002:00075180       __scprintf_l               100de180 f   LIBCMTD:sprintf.obj
 0002:000751b0       __scprintf_p_l             100de1b0 f   LIBCMTD:sprintf.obj
 0002:000751e0       _strtol                    100de1e0 f   LIBCMTD:strtol.obj
 0002:00075860       __strtol_l                 100de860 f   LIBCMTD:strtol.obj
 0002:00075890       _strtoul                   100de890 f   LIBCMTD:strtol.obj
 0002:000758f0       __strtoul_l                100de8f0 f   LIBCMTD:strtol.obj
 0002:00075920       __strtoi64                 100de920 f   LIBCMTD:strtoq.obj
 0002:00075ff0       __strtoi64_l               100deff0 f   LIBCMTD:strtoq.obj
 0002:00076020       __strtoui64                100df020 f   LIBCMTD:strtoq.obj
 0002:00076080       __strtoui64_l              100df080 f   LIBCMTD:strtoq.obj
 0002:000760b0       __strtod_l                 100df0b0 f   LIBCMTD:strtod.obj
 0002:00076330       _strtod                    100df330 f   LIBCMTD:strtod.obj
 0002:00076350       ?_RTC_Failure@@YAXPAXH@Z   100df350 f   LIBCMTD:_error_.obj
 0002:000767e0       ?_RTC_StackFailure@@YAXPAXPBD@Z 100df7e0 f   LIBCMTD:_error_.obj
 0002:00076920       ?_RTC_AllocaFailure@@YAXPAXPAU_RTC_ALLOCA_NODE@@H@Z 100df920 f   LIBCMTD:_error_.obj
 0002:00076b30       __RTC_UninitUse            100dfb30 f   LIBCMTD:_error_.obj
 0002:00076c60       __RTC_NumErrors            100dfc60 f   LIBCMTD:_userapi_.obj
 0002:00076c70       __RTC_GetErrDesc           100dfc70 f   LIBCMTD:_userapi_.obj
 0002:00076c90       __RTC_SetErrorType         100dfc90 f   LIBCMTD:_userapi_.obj
 0002:00076cc0       __RTC_SetErrorFunc         100dfcc0 f   LIBCMTD:_userapi_.obj
 0002:00076cf0       __RTC_SetErrorFuncW        100dfcf0 f   LIBCMTD:_userapi_.obj
 0002:00076d20       ?_RTC_GetErrorFunc@@YAP6AHHPBDH00ZZPBX@Z 100dfd20 f   LIBCMTD:_userapi_.obj
 0002:00076d30       ?_RTC_GetErrorFuncW@@YAP6AHHPB_WH00ZZPBX@Z 100dfd30 f   LIBCMTD:_userapi_.obj
 0002:00076d40       __chkesp                   100dfd40 f   LIBCMTD:chkesp.obj
 0002:00076d90       __CRT_RTC_INIT             100dfd90 f   LIBCMTD:chkesp.obj
 0002:00076da0       __CRT_RTC_INITW            100dfda0 f   LIBCMTD:chkesp.obj
 0002:00076db0       __setdefaultprecision      100dfdb0 f   LIBCMTD:fp8.obj
 0002:00076e00       __invoke_watson_if_error   100dfe00 f i LIBCMTD:fp8.obj
 0002:00076e40       __forcdecpt                100dfe40 f   LIBCMTD:cvt.obj
 0002:00076e60       __forcdecpt_l              100dfe60 f   LIBCMTD:cvt.obj
 0002:00076f50       __cropzeros                100dff50 f   LIBCMTD:cvt.obj
 0002:00076f70       __cropzeros_l              100dff70 f   LIBCMTD:cvt.obj
 0002:000770c0       __positive                 100e00c0 f   LIBCMTD:cvt.obj
 0002:00077100       __fassign_l                100e0100 f   LIBCMTD:cvt.obj
 0002:00077170       __fassign                  100e0170 f   LIBCMTD:cvt.obj
 0002:000771a0       __cftoe_l                  100e01a0 f   LIBCMTD:cvt.obj
 0002:00077840       __cftoe                    100e0840 f   LIBCMTD:cvt.obj
 0002:00077870       __cftoa_l                  100e0870 f   LIBCMTD:cvt.obj
 0002:00078240       ?strrchr@@YAPADPADH@Z      100e1240 f i LIBCMTD:cvt.obj
 0002:00078260       __cftoa                    100e1260 f   LIBCMTD:cvt.obj
 0002:00078290       __cftof_l                  100e1290 f   LIBCMTD:cvt.obj
 0002:00078790       __cftof                    100e1790 f   LIBCMTD:cvt.obj
 0002:000787c0       __cftog_l                  100e17c0 f   LIBCMTD:cvt.obj
 0002:00078a80       __cftog                    100e1a80 f   LIBCMTD:cvt.obj
 0002:00078ab0       __cfltcvt_l                100e1ab0 f   LIBCMTD:cvt.obj
 0002:00078ba0       __cfltcvt                  100e1ba0 f   LIBCMTD:cvt.obj
 0002:00078c20       __initp_misc_cfltcvt_tab   100e1c20 f   LIBCMTD:cmiscdat.obj
 0002:00078c70       __VEC_memcpy               100e1c70 f   LIBCMTD:p4_memcpy.obj
 0002:00078dc0       ___sse2_available_init     100e1dc0 f   LIBCMTD:cpu_disp.obj
 0002:00078de0       __cintrindisp2             100e1de0 f   LIBCMTD:_87cdisp_.obj
 0002:00078e1e       __cintrindisp1             100e1e1e f   LIBCMTD:_87cdisp_.obj
 0002:00078e5b       __ctrandisp2               100e1e5b f   LIBCMTD:_87cdisp_.obj
 0002:00078fea       __ctrandisp1               100e1fea f   LIBCMTD:_87cdisp_.obj
 0002:0007901d       __fload                    100e201d f   LIBCMTD:_87cdisp_.obj
 0002:00079100       __trandisp1                100e2100 f   LIBCMTD:_87disp_.obj
 0002:00079167       __trandisp2                100e2167 f   LIBCMTD:_87disp_.obj
 0002:000791f3       __rttospopde               100e21f3     LIBCMTD:_87disp_.obj
 0002:000791f8       __rttospop                 100e21f8     LIBCMTD:_87disp_.obj
 0002:000791fa       __rtnospop                 100e21fa     LIBCMTD:_87disp_.obj
 0002:000791fc       __rttosnpop                100e21fc     LIBCMTD:_87disp_.obj
 0002:000791fd       __rtnospopde               100e21fd     LIBCMTD:_87disp_.obj
 0002:00079204       __rtzeropop                100e2204     LIBCMTD:_87disp_.obj
 0002:00079206       __rtzeronpop               100e2206     LIBCMTD:_87disp_.obj
 0002:0007920b       __rtonepop                 100e220b     LIBCMTD:_87disp_.obj
 0002:0007920d       __rtonenpop                100e220d     LIBCMTD:_87disp_.obj
 0002:00079212       __tosnan1                  100e2212     LIBCMTD:_87disp_.obj
 0002:0007923d       __nosnan2                  100e223d     LIBCMTD:_87disp_.obj
 0002:0007923f       __tosnan2                  100e223f     LIBCMTD:_87disp_.obj
 0002:00079267       __nan2                     100e2267     LIBCMTD:_87disp_.obj
 0002:000792a6       __rtindfpop                100e22a6     LIBCMTD:_87disp_.obj
 0002:000792a8       __rtindfnpop               100e22a8     LIBCMTD:_87disp_.obj
 0002:000792b9       __rttosnpopde              100e22b9     LIBCMTD:_87disp_.obj
 0002:000792c3       __rtchsifneg               100e22c3     LIBCMTD:_87disp_.obj
 0002:00079340       __cinit                    100e2340 f   LIBCMTD:crt0dat.obj
 0002:00079410       _exit                      100e2410 f   LIBCMTD:crt0dat.obj
 0002:00079430       __exit                     100e2430 f   LIBCMTD:crt0dat.obj
 0002:00079450       __cexit                    100e2450 f   LIBCMTD:crt0dat.obj
 0002:00079470       __c_exit                   100e2470 f   LIBCMTD:crt0dat.obj
 0002:00079490       __amsg_exit                100e2490 f   LIBCMTD:crt0dat.obj
 0002:000794c0       ___freeCrtMemory           100e24c0 f   LIBCMTD:crt0dat.obj
 0002:000798d0       ___crtCorExitProcess       100e28d0 f   LIBCMTD:crt0dat.obj
 0002:00079920       ___crtExitProcess          100e2920 f   LIBCMTD:crt0dat.obj
 0002:00079950       __lockexit                 100e2950 f   LIBCMTD:crt0dat.obj
 0002:00079970       __unlockexit               100e2970 f   LIBCMTD:crt0dat.obj
 0002:00079990       __init_pointers            100e2990 f   LIBCMTD:crt0dat.obj
 0002:00079a40       __initterm_e               100e2a40 f   LIBCMTD:crt0dat.obj
 0002:00079a90       __get_wpgmptr              100e2a90 f   LIBCMTD:crt0dat.obj
 0002:00079bc0       __get_pgmptr               100e2bc0 f   LIBCMTD:crt0dat.obj
 0002:00079cf0       __except_handler4          100e2cf0 f   LIBCMTD:chandler4.obj
 0002:00079fa0       __malloc_dbg               100e2fa0 f   LIBCMTD:dbgheap.obj
 0002:00079fe0       __nh_malloc                100e2fe0 f   LIBCMTD:dbgheap.obj
 0002:0007a010       __nh_malloc_dbg            100e3010 f   LIBCMTD:dbgheap.obj
 0002:0007a110       __heap_alloc               100e3110 f   LIBCMTD:dbgheap.obj
 0002:0007a5e0       __heap_alloc_dbg           100e35e0 f   LIBCMTD:dbgheap.obj
 0002:0007a650       __calloc_dbg_impl          100e3650 f   LIBCMTD:dbgheap.obj
 0002:0007a6f0       __calloc_dbg               100e36f0 f   LIBCMTD:dbgheap.obj
 0002:0007a760       __recalloc                 100e3760 f   LIBCMTD:dbgheap.obj
 0002:0007a7a0       __realloc_dbg              100e37a0 f   LIBCMTD:dbgheap.obj
 0002:0007afe0       __recalloc_dbg             100e3fe0 f   LIBCMTD:dbgheap.obj
 0002:0007b0c0       __expand                   100e40c0 f   LIBCMTD:dbgheap.obj
 0002:0007b0f0       __expand_dbg               100e40f0 f   LIBCMTD:dbgheap.obj
 0002:0007b240       __free_nolock              100e4240 f   LIBCMTD:dbgheap.obj
 0002:0007b260       __free_dbg                 100e4260 f   LIBCMTD:dbgheap.obj
 0002:0007b300       __free_dbg_nolock          100e4300 f   LIBCMTD:dbgheap.obj
 0002:0007b920       __msize                    100e4920 f   LIBCMTD:dbgheap.obj
 0002:0007b940       __msize_dbg                100e4940 f   LIBCMTD:dbgheap.obj
 0002:0007bba0       __CrtSetBreakAlloc         100e4ba0 f   LIBCMTD:dbgheap.obj
 0002:0007bbd0       __CrtSetDbgBlockType       100e4bd0 f   LIBCMTD:dbgheap.obj
 0002:0007bcf0       __CrtSetAllocHook          100e4cf0 f   LIBCMTD:dbgheap.obj
 0002:0007bd20       __CrtGetAllocHook          100e4d20 f   LIBCMTD:dbgheap.obj
 0002:0007bd80       __CrtCheckMemory           100e4d80 f   LIBCMTD:dbgheap.obj
 0002:0007c2f0       __CrtSetDbgFlag            100e52f0 f   LIBCMTD:dbgheap.obj
 0002:0007c490       __CrtDoForAllClientObjects 100e5490 f   LIBCMTD:dbgheap.obj
 0002:0007c600       __CrtIsValidPointer        100e5600 f   LIBCMTD:dbgheap.obj
 0002:0007c620       __CrtIsValidHeapPointer    100e5620 f   LIBCMTD:dbgheap.obj
 0002:0007c680       __CrtIsMemoryBlock         100e5680 f   LIBCMTD:dbgheap.obj
 0002:0007c850       __CrtReportBlockType       100e5850 f   LIBCMTD:dbgheap.obj
 0002:0007c890       __CrtSetDumpClient         100e5890 f   LIBCMTD:dbgheap.obj
 0002:0007c8c0       __CrtGetDumpClient         100e58c0 f   LIBCMTD:dbgheap.obj
 0002:0007c8d0       __CrtMemCheckpoint         100e58d0 f   LIBCMTD:dbgheap.obj
 0002:0007cb70       __CrtMemDifference         100e5b70 f   LIBCMTD:dbgheap.obj
 0002:0007ce10       __CrtMemDumpAllObjectsSince 100e5e10 f   LIBCMTD:dbgheap.obj
 0002:0007d440       __invoke_watson_if_oneof   100e6440 f i LIBCMTD:dbgheap.obj
 0002:0007d490       __CrtDumpMemoryLeaks       100e6490 f   LIBCMTD:dbgheap.obj
 0002:0007d530       __CrtMemDumpStatistics     100e6530 f   LIBCMTD:dbgheap.obj
 0002:0007d680       __aligned_malloc           100e6680 f   LIBCMTD:dbgheap.obj
 0002:0007d6b0       __aligned_malloc_dbg       100e66b0 f   LIBCMTD:dbgheap.obj
 0002:0007d6e0       __aligned_realloc          100e66e0 f   LIBCMTD:dbgheap.obj
 0002:0007d710       __aligned_recalloc         100e6710 f   LIBCMTD:dbgheap.obj
 0002:0007d740       __aligned_realloc_dbg      100e6740 f   LIBCMTD:dbgheap.obj
 0002:0007d770       __aligned_recalloc_dbg     100e6770 f   LIBCMTD:dbgheap.obj
 0002:0007d7b0       __aligned_offset_malloc    100e67b0 f   LIBCMTD:dbgheap.obj
 0002:0007d7e0       __aligned_offset_malloc_dbg 100e67e0 f   LIBCMTD:dbgheap.obj
 0002:0007da10       __aligned_offset_realloc   100e6a10 f   LIBCMTD:dbgheap.obj
 0002:0007da40       __aligned_offset_recalloc  100e6a40 f   LIBCMTD:dbgheap.obj
 0002:0007da70       __aligned_offset_realloc_dbg 100e6a70 f   LIBCMTD:dbgheap.obj
 0002:0007de20       __aligned_offset_recalloc_dbg 100e6e20 f   LIBCMTD:dbgheap.obj
 0002:0007df10       __aligned_free             100e6f10 f   LIBCMTD:dbgheap.obj
 0002:0007df30       __aligned_free_dbg         100e6f30 f   LIBCMTD:dbgheap.obj
 0002:0007e010       __CrtSetDebugFillThreshold 100e7010 f   LIBCMTD:dbgheap.obj
 0002:0007e040       __CrtSetCheckCount         100e7040 f   LIBCMTD:dbgheap.obj
 0002:0007e060       __CrtGetCheckCount         100e7060 f   LIBCMTD:dbgheap.obj
 0002:0007e070       __aligned_msize            100e7070 f   LIBCMTD:dbgheap.obj
 0002:0007e0a0       __aligned_msize_dbg        100e70a0 f   LIBCMTD:dbgheap.obj
 0002:0007e1f0       ?_Type_info_dtor@type_info@@CAXPAV1@@Z 100e71f0 f   LIBCMTD:typname.obj
 0002:0007e340       ?_Name_base@type_info@@CAPBDPBV1@PAU__type_info_node@@@Z 100e7340 f   LIBCMTD:typname.obj
 0002:0007e550       ?_Type_info_dtor_internal@type_info@@CAXPAV1@@Z 100e7550 f   LIBCMTD:typname.obj
 0002:0007e6a0       ___unDNameHelper           100e76a0 f   LIBCMTD:typname.obj
 0002:0007e6f0       ?_Name_base_internal@type_info@@CAPBDPBV1@PAU__type_info_node@@@Z 100e76f0 f   LIBCMTD:typname.obj
 0002:0007e920       ___clean_type_info_names_internal 100e7920 f   LIBCMTD:typname.obj
 0002:0007ea00       _strcmp                    100e7a00 f   LIBCMTD:strcmp.obj
 0002:0007eab0       _abort                     100e7ab0 f   LIBCMTD:abort.obj
 0002:0007eb30       __set_abort_behavior       100e7b30 f   LIBCMTD:abort.obj
 0002:0007eb70       __FF_MSGBANNER             100e7b70 f   LIBCMTD:crt0msg.obj
 0002:0007ebd0       __GET_RTERRMSG             100e7bd0 f   LIBCMTD:crt0msg.obj
 0002:0007ec30       __NMSG_WRITE               100e7c30 f   LIBCMTD:crt0msg.obj
 0002:0007f030       ___getlocaleinfo           100e8030 f   LIBCMTD:inithelp.obj
 0002:0007f3c0       __initp_misc_purevirt      100e83c0 f   LIBCMTD:inithelp.obj
 0002:0007f3e0       __VEC_memzero              100e83e0 f   LIBCMTD:p4_memset.obj
 0002:0007f4d0       ___iob_func                100e84d0 f   LIBCMTD:_file.obj
 0002:0007f4e0       ___initstdio               100e84e0 f   LIBCMTD:_file.obj
 0002:0007f680       ___endstdio                100e8680 f   LIBCMTD:_file.obj
 0002:0007f6c0       __lock_file                100e86c0 f   LIBCMTD:_file.obj
 0002:0007f730       __lock_file2               100e8730 f   LIBCMTD:_file.obj
 0002:0007f780       __unlock_file              100e8780 f   LIBCMTD:_file.obj
 0002:0007f7f0       __unlock_file2             100e87f0 f   LIBCMTD:_file.obj
 0002:0007f840       __stbuf                    100e8840 f   LIBCMTD:_sftbuf.obj
 0002:0007f9f0       __ftbuf                    100e89f0 f   LIBCMTD:_sftbuf.obj
 0002:0007faa0       __output_l                 100e8aa0 f   LIBCMTD:output.obj
 0002:00081420       _get_int_arg               100ea420 f i LIBCMTD:output.obj
 0002:00081450       _get_int64_arg             100ea450 f i LIBCMTD:output.obj
 0002:00081480       _get_short_arg             100ea480 f i LIBCMTD:output.obj
 0002:000814b0       __initp_misc_invarg        100ea4b0 f   LIBCMTD:invarg.obj
 0002:000814d0       __invalid_parameter        100ea4d0 f   LIBCMTD:invarg.obj
 0002:00081540       __invoke_watson            100ea540 f   LIBCMTD:invarg.obj
 0002:00081580       __call_reportfault         100ea580 f   LIBCMTD:invarg.obj
 0002:00081730       __set_invalid_parameter_handler 100ea730 f   LIBCMTD:invarg.obj
 0002:00081780       __get_invalid_parameter_handler 100ea780 f   LIBCMTD:invarg.obj
 0002:000817c0       ?_invalid_parameter@@YAXPBG00II@Z 100ea7c0 f   LIBCMTD:invarg.obj
 0002:000817f0       ?_invoke_watson@@YAXPBG00II@Z 100ea7f0 f   LIBCMTD:invarg.obj
 0002:00081820       __dosmaperr                100ea820 f   LIBCMTD:dosmap.obj
 0002:00081860       __get_errno_from_oserr     100ea860 f   LIBCMTD:dosmap.obj
 0002:00081900       __set_errno                100ea900 f   LIBCMTD:dosmap.obj
 0002:00081940       __get_errno                100ea940 f   LIBCMTD:dosmap.obj
 0002:000819e0       __set_doserrno             100ea9e0 f   LIBCMTD:dosmap.obj
 0002:00081a20       __get_doserrno             100eaa20 f   LIBCMTD:dosmap.obj
 0002:00081ac0       __errno                    100eaac0 f   LIBCMTD:dosmap.obj
 0002:00081af0       ___doserrno                100eaaf0 f   LIBCMTD:dosmap.obj
 0002:00081b20       __CrtSetReportHookW2       100eab20 f   LIBCMTD:dbgrptw.obj
 0002:00081f10       __CrtDbgReportW            100eaf10 f   LIBCMTD:dbgrptw.obj
 0002:00081f60       __CrtDbgReportWV           100eaf60 f i LIBCMTD:dbgrptw.obj
 0002:00081f90       ___crtMessageWindowW       100eaf90 f   LIBCMTD:dbgrptw.obj
 0002:00082490       ?_CrtDbgReportW@@YAHHPBGH00ZZ 100eb490 f   LIBCMTD:dbgrptw.obj
 0002:000824e0       _vprintf_helper            100eb4e0 f   LIBCMTD:vprintf.obj
 0002:00082640       __vprintf_l                100eb640 f   LIBCMTD:vprintf.obj
 0002:00082670       __vprintf_s_l              100eb670 f   LIBCMTD:vprintf.obj
 0002:000826a0       __vprintf_p_l              100eb6a0 f   LIBCMTD:vprintf.obj
 0002:000826d0       _vprintf                   100eb6d0 f   LIBCMTD:vprintf.obj
 0002:00082700       _vprintf_s                 100eb700 f   LIBCMTD:vprintf.obj
 0002:00082730       __vprintf_p                100eb730 f   LIBCMTD:vprintf.obj
 0002:00082760       __CxxThrowException@8      100eb760 f   LIBCMTD:throw.obj
 0002:000827d0       ??0exception@std@@QAE@XZ   100eb7d0 f   LIBCMTD:stdexcpt.obj
 0002:00082810       ??_Gexception@std@@UAEPAXI@Z 100eb810 f i LIBCMTD:stdexcpt.obj
 0002:00082810       ??_Eexception@std@@UAEPAXI@Z 100eb810 f i LIBCMTD:stdexcpt.obj
 0002:00082850       ??0exception@std@@QAE@ABQBD@Z 100eb850 f   LIBCMTD:stdexcpt.obj
 0002:000828a0       ??0exception@std@@QAE@ABQBDH@Z 100eb8a0 f   LIBCMTD:stdexcpt.obj
 0002:000828e0       ??0exception@std@@QAE@ABV01@@Z 100eb8e0 f   LIBCMTD:stdexcpt.obj
 0002:00082930       ??4exception@std@@QAEAAV01@ABV01@@Z 100eb930 f   LIBCMTD:stdexcpt.obj
 0002:00082990       ??1exception@std@@UAE@XZ   100eb990 f   LIBCMTD:stdexcpt.obj
 0002:000829c0       ?what@exception@std@@UBEPBDXZ 100eb9c0 f   LIBCMTD:stdexcpt.obj
 0002:00082a00       ?_Copy_str@exception@std@@AAEXPBD@Z 100eba00 f   LIBCMTD:stdexcpt.obj
 0002:00082a80       ?_Tidy@exception@std@@AAEXXZ 100eba80 f   LIBCMTD:stdexcpt.obj
 0002:00082ad0       ??0bad_cast@std@@QAE@PBD@Z 100ebad0 f   LIBCMTD:stdexcpt.obj
 0002:00082b00       ??_Ebad_cast@std@@UAEPAXI@Z 100ebb00 f i LIBCMTD:stdexcpt.obj
 0002:00082b00       ??_Gbad_cast@std@@UAEPAXI@Z 100ebb00 f i LIBCMTD:stdexcpt.obj
 0002:00082b40       ??0bad_cast@std@@QAE@ABV01@@Z 100ebb40 f   LIBCMTD:stdexcpt.obj
 0002:00082b70       ??1bad_cast@std@@UAE@XZ    100ebb70 f   LIBCMTD:stdexcpt.obj
 0002:00082ba0       ??0bad_typeid@std@@QAE@PBD@Z 100ebba0 f   LIBCMTD:stdexcpt.obj
 0002:00082bd0       ??_Gbad_typeid@std@@UAEPAXI@Z 100ebbd0 f i LIBCMTD:stdexcpt.obj
 0002:00082bd0       ??_Ebad_typeid@std@@UAEPAXI@Z 100ebbd0 f i LIBCMTD:stdexcpt.obj
 0002:00082c10       ??0bad_typeid@std@@QAE@ABV01@@Z 100ebc10 f   LIBCMTD:stdexcpt.obj
 0002:00082c40       ??1bad_typeid@std@@UAE@XZ  100ebc40 f   LIBCMTD:stdexcpt.obj
 0002:00082c70       ??0__non_rtti_object@std@@QAE@PBD@Z 100ebc70 f   LIBCMTD:stdexcpt.obj
 0002:00082ca0       ??_E__non_rtti_object@std@@UAEPAXI@Z 100ebca0 f i LIBCMTD:stdexcpt.obj
 0002:00082ca0       ??_G__non_rtti_object@std@@UAEPAXI@Z 100ebca0 f i LIBCMTD:stdexcpt.obj
 0002:00082ce0       ??0__non_rtti_object@std@@QAE@ABV01@@Z 100ebce0 f   LIBCMTD:stdexcpt.obj
 0002:00082d10       ??1__non_rtti_object@std@@UAE@XZ 100ebd10 f   LIBCMTD:stdexcpt.obj
 0002:00082d40       __mtinitlocks              100ebd40 f   LIBCMTD:mlock.obj
 0002:00082df0       __mtdeletelocks            100ebdf0 f   LIBCMTD:mlock.obj
 0002:00082ee0       __mtinitlocknum            100ebee0 f   LIBCMTD:mlock.obj
 0002:00083080       __lock                     100ec080 f   LIBCMTD:mlock.obj
 0002:000830d0       __unlock                   100ec0d0 f   LIBCMTD:mlock.obj
 0002:000830f0       __lockerr_exit             100ec0f0 f   LIBCMTD:mlock.obj
 0002:00083120       __encoded_null             100ec120 f   LIBCMTD:tidtable.obj
 0002:00083140       ___crtTlsAlloc@4           100ec140 f   LIBCMTD:tidtable.obj
 0002:00083160       ___fls_getvalue@4          100ec160 f   LIBCMTD:tidtable.obj
 0002:00083190       ___get_flsindex            100ec190 f   LIBCMTD:tidtable.obj
 0002:000831a0       ___set_flsgetvalue         100ec1a0 f   LIBCMTD:tidtable.obj
 0002:00083200       ___fls_setvalue@8          100ec200 f   LIBCMTD:tidtable.obj
 0002:00083230       __mtinit                   100ec230 f   LIBCMTD:tidtable.obj
 0002:000834b0       __mtterm                   100ec4b0 f   LIBCMTD:tidtable.obj
 0002:00083520       __initptd                  100ec520 f   LIBCMTD:tidtable.obj
 0002:00083690       __getptd_noexit            100ec690 f   LIBCMTD:tidtable.obj
 0002:00083780       __getptd                   100ec780 f   LIBCMTD:tidtable.obj
 0002:000837b0       __freefls@4                100ec7b0 f   LIBCMTD:tidtable.obj
 0002:00083a40       __freeptd                  100eca40 f   LIBCMTD:tidtable.obj
 0002:00083ae0       ___threadid                100ecae0 f   LIBCMTD:tidtable.obj
 0002:00083af0       ___threadhandle            100ecaf0 f   LIBCMTD:tidtable.obj
 0002:00083b00       __ioinit                   100ecb00 f   LIBCMTD:ioinit.obj
 0002:00084020       __ioterm                   100ed020 f   LIBCMTD:ioinit.obj
 0002:000840f0       __setenvp                  100ed0f0 f   LIBCMTD:stdenvp.obj
 0002:00084300       __setargv                  100ed300 f   LIBCMTD:stdargv.obj
 0002:00084460       __set_pgmptr               100ed460 f i LIBCMTD:stdargv.obj
 0002:000848c0       ___crtGetEnvironmentStringsA 100ed8c0 f   LIBCMTD:a_env.obj
 0002:00084a00       __RTC_Initialize           100eda00 f   LIBCMTD:_initsect_.obj
 0002:00084a30       __RTC_Terminate            100eda30 f   LIBCMTD:_initsect_.obj
 0002:00084a60       __heap_init                100eda60 f   LIBCMTD:heapinit.obj
 0002:00084ab0       __heap_term                100edab0 f   LIBCMTD:heapinit.obj
 0002:00084ae0       __get_heap_handle          100edae0 f   LIBCMTD:heapinit.obj
 0002:00084b20       ___security_init_cookie    100edb20 f   LIBCMTD:gs_support.obj
 0002:00084c40       ___CppXcptFilter           100edc40 f   LIBCMTD:winxfltr.obj
 0002:00084c70       __XcptFilter               100edc70 f   LIBCMTD:winxfltr.obj
 0002:00084f60       _DllMain@12                100edf60 f   LIBCMTD:dllmain.obj
 0002:00084f80       ___libm_setusermatherr     100edf80 f   LIBCMTD:_libm_error_.obj
 0002:00084fc0       ___libm_error_support      100edfc0 f   LIBCMTD:_libm_error_.obj
 0002:00085dc0       __set_SSE2_enable          100eedc0 f   LIBCMTD:_mathfcns_.obj
 0002:00085df0       __sse2_mathfcns_init       100eedf0 f   LIBCMTD:_mathfcns_.obj
 0002:00085e10       __floor_default            100eee10 f   LIBCMTD:_floor_.obj
 0002:00085fa0       __CIpow_pentium4           100eefa0 f   LIBCMTD:_pow_pentium4_.obj
 0002:00085fb9       __pow_pentium4             100eefb9     LIBCMTD:_pow_pentium4_.obj
 0002:00086df1       __fFEXP                    100efdf1     LIBCMTD:_87tran_.obj
 0002:00086e48       __rtinfpopse               100efe48     LIBCMTD:_87tran_.obj
 0002:00086e4a       __rtinfnpopse              100efe4a     LIBCMTD:_87tran_.obj
 0002:00086e5a       __fFLN                     100efe5a     LIBCMTD:_87tran_.obj
 0002:00086f0f       __rtinfpop                 100eff0f     LIBCMTD:_87tran_.obj
 0002:00086f11       __rtinfnpop                100eff11     LIBCMTD:_87tran_.obj
 0002:00086f2e       __ffexpm1                  100eff2e     LIBCMTD:_87tran_.obj
 0002:00087060       __startTwoArgErrorHandling 100f0060 f   LIBCMTD:_genexcep_.obj
 0002:00087077       __startOneArgErrorHandling 100f0077 f   LIBCMTD:_genexcep_.obj
 0002:000870d0       __twoToTOS                 100f00d0 f   LIBCMTD:_common_.obj
 0002:000870e5       __load_CW                  100f00e5 f   LIBCMTD:_common_.obj
 0002:000870fc       __convertTOStoQNaN         100f00fc f   LIBCMTD:_common_.obj
 0002:00087115       __fload_withFB             100f0115 f   LIBCMTD:_common_.obj
 0002:00087158       __checkTOS_withFB          100f0158 f   LIBCMTD:_common_.obj
 0002:0008716e       __fast_exit                100f016e f   LIBCMTD:_common_.obj
 0002:0008717b       __math_exit                100f017b f   LIBCMTD:_common_.obj
 0002:000871a5       __check_overflow_exit      100f01a5 f   LIBCMTD:_common_.obj
 0002:000871b9       __check_range_exit         100f01b9 f   LIBCMTD:_common_.obj
 0002:000872c0       __powhlp                   100f02c0 f   LIBCMTD:_powhlp_.obj
 0002:000874d0       __d_inttype                100f04d0 f   LIBCMTD:_powhlp_.obj
 0002:00087580       __CIacos_pentium4          100f0580 f   LIBCMTD:_acos_pentium4_.obj
 0002:00087598       __acos_pentium4            100f0598     LIBCMTD:_acos_pentium4_.obj
 0002:00087c30       _cos                       100f0c30 f   LIBCMTD:_cos_.obj
 0002:00087c70       __CIcos                    100f0c70 f   LIBCMTD:_cos_.obj
 0002:00087cab       __CIcos_default            100f0cab f   LIBCMTD:_cos_.obj
 0002:00087cbf       __cos_default              100f0cbf     LIBCMTD:_cos_.obj
 0002:00087db0       _sin                       100f0db0 f   LIBCMTD:_sin_.obj
 0002:00087df0       __CIsin                    100f0df0 f   LIBCMTD:_sin_.obj
 0002:00087e2b       __CIsin_default            100f0e2b f   LIBCMTD:_sin_.obj
 0002:00087e3f       __sin_default              100f0e3f     LIBCMTD:_sin_.obj
 0002:00087f30       _tan                       100f0f30 f   LIBCMTD:_tan_.obj
 0002:00087f70       __CItan                    100f0f70 f   LIBCMTD:_tan_.obj
 0002:00087fab       __CItan_default            100f0fab f   LIBCMTD:_tan_.obj
 0002:00087fbf       __tan_default              100f0fbf     LIBCMTD:_tan_.obj
 0002:000880b0       __CIasin_pentium4          100f10b0 f   LIBCMTD:_asin_pentium4_.obj
 0002:000880c8       __asin_pentium4            100f10c8     LIBCMTD:_asin_pentium4_.obj
 0002:00088790       __initp_heap_handler       100f1790 f   LIBCMTD:handler.obj
 0002:000887b0       ?_set_new_handler@@YAP6AHI@ZP6AHI@Z@Z 100f17b0 f   LIBCMTD:handler.obj
 0002:00088800       ?_set_new_handler@@YAP6AHI@ZH@Z 100f1800 f   LIBCMTD:handler.obj
 0002:00088850       ?_query_new_handler@@YAP6AHI@ZXZ 100f1850 f   LIBCMTD:handler.obj
 0002:00088870       __callnewh                 100f1870 f   LIBCMTD:handler.obj
 0002:000888c0       _malloc                    100f18c0 f   LIBCMTD:dbgmalloc.obj
 0002:00088900       __input_l                  100f1900 f   LIBCMTD:input.obj
 0002:0008a790       __INTRN_LOCALE_CONV        100f3790 f i LIBCMTD:input.obj
 0002:0008a900       _strlen                    100f3900 f   LIBCMTD:strlen.obj
 0002:0008a9b0       __input_s_l                100f39b0 f   LIBCMTD:inputs.obj
 0002:0008ce20       __fltin2                   100f5e20 f   LIBCMTD:_cfin_.obj
 0002:0008cf30       __chvalidator              100f5f30 f   LIBCMTD:isctype.obj
 0002:0008cf90       __chvalidator_l            100f5f90 f   LIBCMTD:isctype.obj
 0002:0008d070       __isctype_l                100f6070 f   LIBCMTD:isctype.obj
 0002:0008d1d0       __isctype                  100f61d0 f   LIBCMTD:isctype.obj
 0002:0008d220       @__security_check_cookie@4 100f6220 f   LIBCMTD:secchk.obj
 0002:0008d240       ___updatetmbcinfo          100f6240 f   LIBCMTD:mbctype.obj
 0002:0008d390       __setmbcp                  100f6390 f   LIBCMTD:mbctype.obj
 0002:0008d820       __setmbcp_nolock           100f6820 f   LIBCMTD:mbctype.obj
 0002:0008e200       __getmbcp                  100f7200 f   LIBCMTD:mbctype.obj
 0002:0008e290       ___initmbctable            100f7290 f   LIBCMTD:mbctype.obj
 0002:0008e2c0       ___addlocaleref            100f72c0 f   LIBCMTD:localref.obj
 0002:0008e430       ___removelocaleref         100f7430 f   LIBCMTD:localref.obj
 0002:0008e5b0       ___freetlocinfo            100f75b0 f   LIBCMTD:localref.obj
 0002:0008e950       __updatetlocinfoEx_nolock  100f7950 f   LIBCMTD:localref.obj
 0002:0008e9f0       ___updatetlocinfo          100f79f0 f   LIBCMTD:localref.obj
 0002:0008eaf0       ___strgtold12_l            100f7af0 f   LIBCMTD:_strgtold_.obj
 0002:0008f850       ___multtenpow12            100f8850 f i LIBCMTD:_strgtold_.obj
 0002:0008f960       ___ld12mul                 100f8960 f i LIBCMTD:_strgtold_.obj
 0002:0008fe60       ___addl                    100f8e60 f i LIBCMTD:_strgtold_.obj
 0002:0008feb0       ___shl_12                  100f8eb0 f i LIBCMTD:_strgtold_.obj
 0002:0008ff30       ___shr_12                  100f8f30 f i LIBCMTD:_strgtold_.obj
 0002:0008ffb0       ___STRINGTOLD_L            100f8fb0 f   LIBCMTD:_strgtold_.obj
 0002:00090040       __flsbuf                   100f9040 f   LIBCMTD:_flsbuf.obj
 0002:000903b0       ___crtLCMapStringA         100f93b0 f   LIBCMTD:a_map.obj
 0002:00090760       __MarkAllocaS              100f9760 f i LIBCMTD:a_map.obj
 0002:00090790       __freea                    100f9790 f i LIBCMTD:a_map.obj
 0002:00090870       __isleadbyte_l             100f9870 f i LIBCMTD:_wctype.obj
 0002:000908d0       _isleadbyte                100f98d0 f i LIBCMTD:_wctype.obj
 0002:000908f0       __iswalpha_l               100f98f0 f i LIBCMTD:_wctype.obj
 0002:00090910       _iswalpha                  100f9910 f i LIBCMTD:_wctype.obj
 0002:00090930       __iswupper_l               100f9930 f i LIBCMTD:_wctype.obj
 0002:00090950       _iswupper                  100f9950 f i LIBCMTD:_wctype.obj
 0002:00090970       __iswlower_l               100f9970 f i LIBCMTD:_wctype.obj
 0002:00090990       _iswlower                  100f9990 f i LIBCMTD:_wctype.obj
 0002:000909b0       __iswdigit_l               100f99b0 f i LIBCMTD:_wctype.obj
 0002:000909d0       _iswdigit                  100f99d0 f i LIBCMTD:_wctype.obj
 0002:000909f0       __iswxdigit_l              100f99f0 f i LIBCMTD:_wctype.obj
 0002:00090a10       _iswxdigit                 100f9a10 f i LIBCMTD:_wctype.obj
 0002:00090a30       __iswspace_l               100f9a30 f i LIBCMTD:_wctype.obj
 0002:00090a50       _iswspace                  100f9a50 f i LIBCMTD:_wctype.obj
 0002:00090a70       __iswpunct_l               100f9a70 f i LIBCMTD:_wctype.obj
 0002:00090a90       _iswpunct                  100f9a90 f i LIBCMTD:_wctype.obj
 0002:00090ab0       __iswalnum_l               100f9ab0 f i LIBCMTD:_wctype.obj
 0002:00090ad0       _iswalnum                  100f9ad0 f i LIBCMTD:_wctype.obj
 0002:00090af0       __iswprint_l               100f9af0 f i LIBCMTD:_wctype.obj
 0002:00090b10       _iswprint                  100f9b10 f i LIBCMTD:_wctype.obj
 0002:00090b30       __iswgraph_l               100f9b30 f i LIBCMTD:_wctype.obj
 0002:00090b50       _iswgraph                  100f9b50 f i LIBCMTD:_wctype.obj
 0002:00090b70       __iswcntrl_l               100f9b70 f i LIBCMTD:_wctype.obj
 0002:00090b90       _iswcntrl                  100f9b90 f i LIBCMTD:_wctype.obj
 0002:00090bb0       _iswascii                  100f9bb0 f i LIBCMTD:_wctype.obj
 0002:00090bd0       __iswcsym_l                100f9bd0 f i LIBCMTD:_wctype.obj
 0002:00090c20       ___iswcsym                 100f9c20 f i LIBCMTD:_wctype.obj
 0002:00090c70       __iswcsymf_l               100f9c70 f i LIBCMTD:_wctype.obj
 0002:00090cc0       ___iswcsymf                100f9cc0 f i LIBCMTD:_wctype.obj
 0002:00090d10       ____setlc_active_func      100f9d10 f   LIBCMTD:setlocal.obj
 0002:00090d20       ____unguarded_readlc_active_add_func 100f9d20 f   LIBCMTD:setlocal.obj
 0002:00090d30       __configthreadlocale       100f9d30 f   LIBCMTD:setlocal.obj
 0002:00090e80       __locterm                  100f9e80 f   LIBCMTD:setlocal.obj
 0002:00090f40       __free_locale              100f9f40 f   LIBCMTD:setlocal.obj
 0002:000910d0       ___free_locale             100fa0d0 f   LIBCMTD:setlocal.obj
 0002:000910f0       __create_locale            100fa0f0 f   LIBCMTD:setlocal.obj
 0002:000913b0       ___create_locale           100fa3b0 f   LIBCMTD:setlocal.obj
 0002:000913d0       __get_current_locale       100fa3d0 f   LIBCMTD:setlocal.obj
 0002:00091530       ___get_current_locale      100fa530 f   LIBCMTD:setlocal.obj
 0002:00091540       _setlocale                 100fa540 f   LIBCMTD:setlocal.obj
 0002:000927a0       __expandlocale             100fb7a0 f   LIBCMTD:setlocal.obj
 0002:00092af0       ___init_dummy              100fbaf0 f   LIBCMTD:setlocal.obj
 0002:00092b00       __strcats                  100fbb00 f   LIBCMTD:setlocal.obj
 0002:00092ba0       ___lc_strtolc              100fbba0 f   LIBCMTD:setlocal.obj
 0002:00092e20       ___lc_lctostr              100fbe20 f   LIBCMTD:setlocal.obj
 0002:00092ee0       __getdrive                 100fbee0 f   LIBCMTD:drive.obj
 0002:000930c0       __chdrive                  100fc0c0 f   LIBCMTD:drive.obj
 0002:00093260       __mbctoupper_l             100fc260 f   LIBCMTD:mbtoupr.obj
 0002:00093400       __mbctoupper               100fc400 f   LIBCMTD:mbtoupr.obj
 0002:00093420       __woutput_l                100fc420 f   LIBCMTD:woutput.obj
 0002:00094ab0       __vsprintf_l               100fdab0 f   LIBCMTD:vsprintf.obj
 0002:00094cb0       _vsprintf                  100fdcb0 f   LIBCMTD:vsprintf.obj
 0002:00094ce0       __vscprintf_helper         100fdce0 f   LIBCMTD:vsprintf.obj
 0002:00094df0       __vscprintf                100fddf0 f   LIBCMTD:vsprintf.obj
 0002:00094e20       __vscprintf_l              100fde20 f   LIBCMTD:vsprintf.obj
 0002:00094e50       __vscprintf_p              100fde50 f   LIBCMTD:vsprintf.obj
 0002:00094e80       __vscprintf_p_l            100fde80 f   LIBCMTD:vsprintf.obj
 0002:00094eb0       __vsnprintf_helper         100fdeb0 f   LIBCMTD:vsnprnc.obj
 0002:00095110       __vsnprintf_c              100fe110 f   LIBCMTD:vsnprnc.obj
 0002:00095170       __vsnprintf_c_l            100fe170 f   LIBCMTD:vsnprnc.obj
 0002:000951d0       __vsprintf_s_l             100fe1d0 f   LIBCMTD:vsnprnc.obj
 0002:000954d0       _vsprintf_s                100fe4d0 f   LIBCMTD:vsnprnc.obj
 0002:00095500       __vsnprintf_s_l            100fe500 f   LIBCMTD:vsnprnc.obj
 0002:00095980       __vsnprintf_s              100fe980 f   LIBCMTD:vsnprnc.obj
 0002:000959b0       __vsprintf_p               100fe9b0 f   LIBCMTD:vsnprnc.obj
 0002:00095a10       __vsprintf_p_l             100fea10 f   LIBCMTD:vsnprnc.obj
 0002:00095a70       ?_JumpToContinuation@@YGXPAXPAUEHRegistrationNode@@@Z 100fea70 f   LIBCMTD:_trnsctrl_.obj
 0002:00095ac0       ?_CallMemberFunction0@@YGXPAX0@Z 100feac0 f   LIBCMTD:_trnsctrl_.obj
 0002:00095ad0       ?_CallMemberFunction1@@YGXPAX00@Z 100fead0 f   LIBCMTD:_trnsctrl_.obj
 0002:00095ae0       ?_CallMemberFunction2@@YGXPAX00H@Z 100feae0 f   LIBCMTD:_trnsctrl_.obj
 0002:00095af0       ?_UnwindNestedFrames@@YGXPAUEHRegistrationNode@@PAUEHExceptionRecord@@@Z 100feaf0 f   LIBCMTD:_trnsctrl_.obj
 0002:00095b60       ___CxxFrameHandler         100feb60 f   LIBCMTD:_trnsctrl_.obj
 0002:00095bb0       ___CxxFrameHandler3        100febb0 f   LIBCMTD:_trnsctrl_.obj
 0002:00095c00       ___CxxFrameHandler2        100fec00 f   LIBCMTD:_trnsctrl_.obj
 0002:00095c50       ___CxxLongjmpUnwind@4      100fec50 f   LIBCMTD:_trnsctrl_.obj
 0002:00095c90       ?_CallCatchBlock2@@YAPAXPAUEHRegistrationNode@@PBU_s_FuncInfo@@PAXHK@Z 100fec90 f   LIBCMTD:_trnsctrl_.obj
 0002:00095d80       ?_CallSETranslator@@YAHPAUEHExceptionRecord@@PAUEHRegistrationNode@@PAX2PBU_s_FuncInfo@@H1@Z 100fed80 f   LIBCMTD:_trnsctrl_.obj
 0002:00095f90       ?_GetRangeOfTrysToCheck@@YAPBU_s_TryBlockMapEntry@@PBU_s_FuncInfo@@HHPAI1@Z 100fef90 f   LIBCMTD:_trnsctrl_.obj
 0002:00096030       __CreateFrameInfo          100ff030 f   LIBCMTD:_trnsctrl_.obj
 0002:00096070       __IsExceptionObjectToBeDestroyed 100ff070 f   LIBCMTD:_trnsctrl_.obj
 0002:000960b0       __FindAndUnlinkFrame       100ff0b0 f   LIBCMTD:_trnsctrl_.obj
 0002:00096120       __aullrem                  100ff120 f   LIBCMTD:ullrem.obj
 0002:000961c0       __aulldiv                  100ff1c0 f   LIBCMTD:ulldiv.obj
 0002:00096250       ?_RTC_GetSrcLine@@YAHPAEPA_WKPAH1K@Z 100ff250 f   LIBCMTD:_pdblkup_.obj
 0002:00096a30       __CrtSetReportHook2        100ffa30 f   LIBCMTD:dbgrpt.obj
 0002:00096e20       __CrtDbgReport             100ffe20 f   LIBCMTD:dbgrpt.obj
 0002:00096e70       __CrtDbgReportV            100ffe70 f i LIBCMTD:dbgrpt.obj
 0002:00096ea0       ___crtMessageWindowA       100ffea0 f   LIBCMTD:dbgrpt.obj
 0002:000973a0       __controlfp_s              101003a0 f   LIBCMTD:_contrlfp_.obj
 0002:000974c0       __isalpha_l                101004c0 f i LIBCMTD:_ctype.obj
 0002:00097570       _isalpha                   10100570 f i LIBCMTD:_ctype.obj
 0002:000975b0       __isupper_l                101005b0 f i LIBCMTD:_ctype.obj
 0002:00097650       _isupper                   10100650 f i LIBCMTD:_ctype.obj
 0002:00097690       __islower_l                10100690 f i LIBCMTD:_ctype.obj
 0002:00097730       _islower                   10100730 f i LIBCMTD:_ctype.obj
 0002:00097770       __isdigit_l                10100770 f i LIBCMTD:_ctype.obj
 0002:00097810       _isdigit                   10100810 f i LIBCMTD:_ctype.obj
 0002:00097850       __isxdigit_l               10100850 f i LIBCMTD:_ctype.obj
 0002:00097900       _isxdigit                  10100900 f i LIBCMTD:_ctype.obj
 0002:00097940       __isspace_l                10100940 f i LIBCMTD:_ctype.obj
 0002:000979e0       _isspace                   101009e0 f i LIBCMTD:_ctype.obj
 0002:00097a20       __ispunct_l                10100a20 f i LIBCMTD:_ctype.obj
 0002:00097ac0       _ispunct                   10100ac0 f i LIBCMTD:_ctype.obj
 0002:00097b00       __isalnum_l                10100b00 f i LIBCMTD:_ctype.obj
 0002:00097bb0       _isalnum                   10100bb0 f i LIBCMTD:_ctype.obj
 0002:00097bf0       __isprint_l                10100bf0 f i LIBCMTD:_ctype.obj
 0002:00097ca0       _isprint                   10100ca0 f i LIBCMTD:_ctype.obj
 0002:00097ce0       __isgraph_l                10100ce0 f i LIBCMTD:_ctype.obj
 0002:00097d90       _isgraph                   10100d90 f i LIBCMTD:_ctype.obj
 0002:00097dd0       __iscntrl_l                10100dd0 f i LIBCMTD:_ctype.obj
 0002:00097e70       _iscntrl                   10100e70 f i LIBCMTD:_ctype.obj
 0002:00097eb0       ___isascii                 10100eb0 f i LIBCMTD:_ctype.obj
 0002:00097ed0       ___toascii                 10100ed0 f i LIBCMTD:_ctype.obj
 0002:00097ee0       __iscsymf_l                10100ee0 f i LIBCMTD:_ctype.obj
 0002:00097f30       ___iscsymf                 10100f30 f i LIBCMTD:_ctype.obj
 0002:00097f70       __iscsym_l                 10100f70 f i LIBCMTD:_ctype.obj
 0002:00097fc0       ___iscsym                  10100fc0 f i LIBCMTD:_ctype.obj
 0002:00098010       __atodbl_l                 10101010 f   LIBCMTD:atodbl.obj
 0002:00098160       __atodbl                   10101160 f   LIBCMTD:atodbl.obj
 0002:00098180       __atoldbl_l                10101180 f   LIBCMTD:atodbl.obj
 0002:000982d0       __atoldbl                  101012d0 f   LIBCMTD:atodbl.obj
 0002:000982f0       __atoflt_l                 101012f0 f   LIBCMTD:atodbl.obj
 0002:00098440       __atoflt                   10101440 f   LIBCMTD:atodbl.obj
 0002:00098460       __fptostr                  10101460 f   LIBCMTD:_fptostr.obj
 0002:000987b0       __fltout2                  101017b0 f   LIBCMTD:_cfout_.obj
 0002:00098890       ___dtold                   10101890 f   LIBCMTD:_cfout_.obj
 0002:00098a40       __set_output_format        10101a40 f   LIBCMTD:outputformat.obj
 0002:00098ae0       __get_output_format        10101ae0 f   LIBCMTD:outputformat.obj
 0002:00098af0       _strcpy_s                  10101af0 f   LIBCMTD:strcpy_s.obj
 0002:00098e80       __allshl                   10101e80 f   LIBCMTD:llshl.obj
 0002:00098eb0       __aullshr                  10101eb0 f   LIBCMTD:ullshr.obj
 0002:00098ee0       _strrchr                   10101ee0 f   LIBCMTD:strrchr.obj
 0002:00098f20       __fptrap                   10101f20 f   LIBCMTD:crt0fp.obj
 0002:00098f40       __87except                 10101f40 f   LIBCMTD:_87except_.obj
 0002:00099160       __ValidateImageBase        10102160 f   LIBCMTD:pesect.obj
 0002:000991e0       __FindPESection            101021e0 f   LIBCMTD:pesect.obj
 0002:00099280       __IsNonwritableInCurrentImage 10102280 f   LIBCMTD:pesect.obj
 0002:000993e0       __initp_eh_hooks           101023e0 f   LIBCMTD:hooks.obj
 0002:00099400       ?terminate@@YAXXZ          10102400 f   LIBCMTD:hooks.obj
 0002:000994a0       ?unexpected@@YAXXZ         101024a0 f   LIBCMTD:hooks.obj
 0002:000994d0       ?_inconsistency@@YAXXZ     101024d0 f   LIBCMTD:hooks.obj
 0002:00099580       __initp_misc_winsig        10102580 f   LIBCMTD:winsig.obj
 0002:000995c0       _signal                    101025c0 f   LIBCMTD:winsig.obj
 0002:00099b70       _raise                     10102b70 f   LIBCMTD:winsig.obj
 0002:00099fc0       ___get_sigabrt             10102fc0 f   LIBCMTD:winsig.obj
 0002:00099fe0       ___fpecode                 10102fe0 f   LIBCMTD:winsig.obj
 0002:0009a000       ___pxcptinfoptrs           10103000 f   LIBCMTD:winsig.obj
 0002:0009a020       __initp_misc_rand_s        10103020 f   LIBCMTD:rand_s.obj
 0002:0009a040       _rand_s                    10103040 f   LIBCMTD:rand_s.obj
 0002:0009a2e0       __local_unwind4            101032e0 f   LIBCMTD:exsup4.obj
 0002:0009a3b6       __seh_longjmp_unwind4@4    101033b6 f   LIBCMTD:exsup4.obj
 0002:0009a3d2       @_EH4_CallFilterFunc@8     101033d2 f   LIBCMTD:exsup4.obj
 0002:0009a3e9       @_EH4_TransferToHandler@8  101033e9 f   LIBCMTD:exsup4.obj
 0002:0009a402       @_EH4_GlobalUnwind2@8      10103402 f   LIBCMTD:exsup4.obj
 0002:0009a41b       @_EH4_LocalUnwind@16       1010341b f   LIBCMTD:exsup4.obj
 0002:0009a490       __malloc_base              10103490 f   LIBCMTD:malloc.obj
 0002:0009a540       __heap_alloc_base          10103540 f i LIBCMTD:malloc.obj
 0002:0009a5b0       __CrtDefaultAllocHook      101035b0 f   LIBCMTD:dbghook.obj
 0002:0009a5c0       __crt_debugger_hook        101035c0 f   LIBCMTD:dbghook.obj
 0002:0009a5e0       __expand_base              101035e0 f   LIBCMTD:expand.obj
 0002:0009a790       __realloc_base             10103790 f   LIBCMTD:realloc.obj
 0002:0009a8d0       __free_base                101038d0 f   LIBCMTD:free.obj
 0002:0009a940       __heapchk                  10103940 f   LIBCMTD:heapchk.obj
 0002:0009a980       __heapset                  10103980 f   LIBCMTD:heapchk.obj
 0002:0009a990       _free                      10103990 f   LIBCMTD:dbgfree.obj
 0002:0009a9b0       ___unDName                 101039b0 f   LIBCMTD:undname.obj
 0002:0009aac0       ?Constructor@_HeapManager@@QAEXP6APAXI@ZP6AXPAX@Z@Z 10103ac0 f i LIBCMTD:undname.obj
 0002:0009ab10       ?Destructor@_HeapManager@@QAEXXZ 10103b10 f i LIBCMTD:undname.obj
 0002:0009ab70       ___unDNameEx               10103b70 f   LIBCMTD:undname.obj
 0002:0009ac80       ??0UnDecorator@@QAE@PADPBDHP6APADJ@ZK@Z 10103c80 f i LIBCMTD:undname.obj
 0002:0009ad40       ??BUnDecorator@@QAEPADXZ   10103d40 f i LIBCMTD:undname.obj
 0002:0009b000       ?dbGetString@DName@@QBEPADXZ 10104000 f   LIBCMTD:undname.obj
 0002:0009b030       ?getDecoratedName@UnDecorator@@CA?AVDName@@XZ 10104030 f   LIBCMTD:undname.obj
 0002:0009b410       ?getSymbolName@UnDecorator@@CA?AVDName@@XZ 10104410 f i LIBCMTD:undname.obj
 0002:0009b4a0       ?getZName@UnDecorator@@CA?AVDName@@_N0@Z 101044a0 f   LIBCMTD:undname.obj
 0002:0009b7f0       ?getOperatorName@UnDecorator@@CA?AVDName@@_NPA_N@Z 101047f0 f i LIBCMTD:undname.obj
 0002:0009c3b0       ?getStringEncoding@UnDecorator@@CA?AVDName@@PADH@Z 101053b0 f   LIBCMTD:undname.obj
 0002:0009c4f0       ?getScope@UnDecorator@@CA?AVDName@@XZ 101054f0 f   LIBCMTD:undname.obj
 0002:0009c9c0       ?getSignedDimension@UnDecorator@@CA?AVDName@@XZ 101059c0 f   LIBCMTD:undname.obj
 0002:0009ca60       ?getDimension@UnDecorator@@CA?AVDName@@_N@Z 10105a60 f   LIBCMTD:undname.obj
 0002:0009cdc0       ?getNumberOfDimensions@UnDecorator@@CAHXZ 10105dc0 f   LIBCMTD:undname.obj
 0002:0009cf00       ?getTemplateName@UnDecorator@@CA?AVDName@@_N@Z 10105f00 f   LIBCMTD:undname.obj
 0002:0009d130       ?getTemplateArgumentList@UnDecorator@@CA?AVDName@@XZ 10106130 f   LIBCMTD:undname.obj
 0002:0009d450       ?getTemplateConstant@UnDecorator@@CA?AVDName@@XZ 10106450 f   LIBCMTD:undname.obj
 0002:0009da00       ?composeDeclaration@UnDecorator@@CA?AVDName@@ABV2@@Z 10106a00 f i LIBCMTD:undname.obj
 0002:0009f570       ?getTypeEncoding@UnDecorator@@CAHXZ 10108570 f i LIBCMTD:undname.obj
 0002:000a0240       ?getBasedType@UnDecorator@@CA?AVDName@@XZ 10109240 f   LIBCMTD:undname.obj
 0002:000a0330       ?getScopedName@UnDecorator@@CA?AVDName@@XZ 10109330 f   LIBCMTD:undname.obj
 0002:000a0490       ?getCallingConvention@UnDecorator@@CA?AVDName@@XZ 10109490 f   LIBCMTD:undname.obj
 0002:000a0660       ?getReturnType@UnDecorator@@CA?AVDName@@PAV2@@Z 10109660 f   LIBCMTD:undname.obj
 0002:000a06c0       ?getDataType@UnDecorator@@CA?AVDName@@PAV2@@Z 101096c0 f   LIBCMTD:undname.obj
 0002:000a0820       ?getPrimaryDataType@UnDecorator@@CA?AVDName@@ABV2@@Z 10109820 f   LIBCMTD:undname.obj
 0002:000a0ca0       ?getArgumentTypes@UnDecorator@@CA?AVDName@@XZ 10109ca0 f   LIBCMTD:undname.obj
 0002:000a0e50       ?getArgumentList@UnDecorator@@CA?AVDName@@XZ 10109e50 f   LIBCMTD:undname.obj
 0002:000a0ff0       ?getThrowTypes@UnDecorator@@CA?AVDName@@XZ 10109ff0 f   LIBCMTD:undname.obj
 0002:000a10d0       ?getBasicDataType@UnDecorator@@CA?AVDName@@ABV2@@Z 1010a0d0 f   LIBCMTD:undname.obj
 0002:000a1800       ?getECSUDataType@UnDecorator@@CA?AVDName@@XZ 1010a800 f   LIBCMTD:undname.obj
 0002:000a1a50       ?getECSUName@UnDecorator@@CA?AVDName@@XZ 1010aa50 f i LIBCMTD:undname.obj
 0002:000a1a70       ?getEnumType@UnDecorator@@CA?AVDName@@XZ 1010aa70 f i LIBCMTD:undname.obj
 0002:000a1c10       ?getFunctionIndirectType@UnDecorator@@CA?AVDName@@ABV2@@Z 1010ac10 f   LIBCMTD:undname.obj
 0002:000a2160       ?getPtrRefType@UnDecorator@@CA?AVDName@@ABV2@0PBD@Z 1010b160 f   LIBCMTD:undname.obj
 0002:000a2320       ?getExtendedDataIndirectType@UnDecorator@@CA?AVDName@@AAPBDAA_NH@Z 1010b320 f   LIBCMTD:undname.obj
 0002:000a25d0       ?getDataIndirectType@UnDecorator@@CA?AVDName@@ABV2@PBD0H@Z 1010b5d0 f   LIBCMTD:undname.obj
 0002:000a2e90       ?getPtrRefDataType@UnDecorator@@CA?AVDName@@ABV2@H@Z 1010be90 f i LIBCMTD:undname.obj
 0002:000a3020       ?getArrayType@UnDecorator@@CA?AVDName@@ABV2@@Z 1010c020 f i LIBCMTD:undname.obj
 0002:000a32e0       ?getLexicalFrame@UnDecorator@@CA?AVDName@@XZ 1010c2e0 f i LIBCMTD:undname.obj
 0002:000a3330       ?getThisType@UnDecorator@@CA?AVDName@@XZ 1010c330 f i LIBCMTD:undname.obj
 0002:000a3380       ?getPointerType@UnDecorator@@CA?AVDName@@ABV2@0@Z 1010c380 f i LIBCMTD:undname.obj
 0002:000a33c0       ?getPointerTypeArray@UnDecorator@@CA?AVDName@@ABV2@0@Z 1010c3c0 f i LIBCMTD:undname.obj
 0002:000a3400       ?getReferenceType@UnDecorator@@CA?AVDName@@ABV2@0PBD@Z 1010c400 f i LIBCMTD:undname.obj
 0002:000a3430       ?getDisplacement@UnDecorator@@CA?AVDName@@XZ 1010c430 f i LIBCMTD:undname.obj
 0002:000a3450       ?getCallIndex@UnDecorator@@CA?AVDName@@XZ 1010c450 f i LIBCMTD:undname.obj
 0002:000a3470       ?getGuardNumber@UnDecorator@@CA?AVDName@@XZ 1010c470 f i LIBCMTD:undname.obj
 0002:000a3490       ?getVbTableType@UnDecorator@@CA?AVDName@@ABV2@@Z 1010c490 f i LIBCMTD:undname.obj
 0002:000a34b0       ?getVCallThunkType@UnDecorator@@CA?AVDName@@XZ 1010c4b0 f i LIBCMTD:undname.obj
 0002:000a3530       ?getVfTableType@UnDecorator@@CA?AVDName@@ABV2@@Z 1010c530 f i LIBCMTD:undname.obj
 0002:000a3760       ?getStorageConvention@UnDecorator@@CA?AVDName@@XZ 1010c760 f i LIBCMTD:undname.obj
 0002:000a3780       ?getDataIndirectType@UnDecorator@@CA?AVDName@@XZ 1010c780 f i LIBCMTD:undname.obj
 0002:000a37d0       ?getVdispMapType@UnDecorator@@CA?AVDName@@ABV2@@Z 1010c7d0 f i LIBCMTD:undname.obj
 0002:000a3860       ?getExternalDataType@UnDecorator@@CA?AVDName@@ABV2@@Z 1010c860 f i LIBCMTD:undname.obj
 0002:000a3920       ?doMSKeywords@UnDecorator@@SAHXZ 1010c920 f i LIBCMTD:undname.obj
 0002:000a3940       ?doPtr64@UnDecorator@@SAHXZ 1010c940 f i LIBCMTD:undname.obj
 0002:000a3960       ?doFunctionReturns@UnDecorator@@SAHXZ 1010c960 f i LIBCMTD:undname.obj
 0002:000a3980       ?doAllocationModel@UnDecorator@@SAHXZ 1010c980 f i LIBCMTD:undname.obj
 0002:000a39a0       ?doAllocationLanguage@UnDecorator@@SAHXZ 1010c9a0 f i LIBCMTD:undname.obj
 0002:000a39c0       ?doThisTypes@UnDecorator@@SAHXZ 1010c9c0 f i LIBCMTD:undname.obj
 0002:000a39e0       ?doAccessSpecifiers@UnDecorator@@SAHXZ 1010c9e0 f i LIBCMTD:undname.obj
 0002:000a3a00       ?doThrowTypes@UnDecorator@@SAHXZ 1010ca00 f i LIBCMTD:undname.obj
 0002:000a3a20       ?doMemberTypes@UnDecorator@@SAHXZ 1010ca20 f i LIBCMTD:undname.obj
 0002:000a3a40       ?doNameOnly@UnDecorator@@SAHXZ 1010ca40 f i LIBCMTD:undname.obj
 0002:000a3a60       ?doTypeOnly@UnDecorator@@SAHXZ 1010ca60 f i LIBCMTD:undname.obj
 0002:000a3a80       ?haveTemplateParameters@UnDecorator@@SAHXZ 1010ca80 f i LIBCMTD:undname.obj
 0002:000a3aa0       ?doEcsu@UnDecorator@@SAHXZ 1010caa0 f i LIBCMTD:undname.obj
 0002:000a3ac0       ?doEllipsis@UnDecorator@@SAHXZ 1010cac0 f i LIBCMTD:undname.obj
 0002:000a3ae0       ?UScore@UnDecorator@@SAPBDW4Tokens@@@Z 1010cae0 f   LIBCMTD:undname.obj
 0002:000a3b20       ?doUnderScore@UnDecorator@@SAHXZ 1010cb20 f i LIBCMTD:undname.obj
 0002:000a3b40       ??2@YAPAXIAAV_HeapManager@@H@Z 1010cb40 f i LIBCMTD:undname.obj
 0002:000a3b60       ?getMemory@_HeapManager@@QAEPAXIH@Z 1010cb60 f   LIBCMTD:undname.obj
 0002:000a3cb0       ??0Block@_HeapManager@@QAE@XZ 1010ccb0 f i LIBCMTD:undname.obj
 0002:000a3cd0       ??H@YA?AVDName@@DABV0@@Z   1010ccd0 f i LIBCMTD:undname.obj
 0002:000a3d10       ??H@YA?AVDName@@W4DNameStatus@@ABV0@@Z 1010cd10 f i LIBCMTD:undname.obj
 0002:000a3d50       ??H@YA?AVDName@@PBDABV0@@Z 1010cd50 f i LIBCMTD:undname.obj
 0002:000a3d90       ??0DName@@QAE@XZ           1010cd90 f i LIBCMTD:undname.obj
 0002:000a3e80       ??0DName@@QAE@D@Z          1010ce80 f   LIBCMTD:undname.obj
 0002:000a3f90       ??0DName@@QAE@ABV0@@Z      1010cf90 f i LIBCMTD:undname.obj
 0002:000a3fc0       ??0DName@@QAE@PAV0@@Z      1010cfc0 f   LIBCMTD:undname.obj
 0002:000a4140       ??0DName@@QAE@PBD@Z        1010d140 f   LIBCMTD:undname.obj
 0002:000a4270       ??0DName@@QAE@AAPBDD@Z     1010d270 f   LIBCMTD:undname.obj
 0002:000a45e0       ?doNoIdentCharCheck@UnDecorator@@SAHXZ 1010d5e0 f i LIBCMTD:undname.obj
 0002:000a4600       ??0DName@@QAE@_K@Z         1010d600 f   LIBCMTD:undname.obj
 0002:000a4790       ??0DName@@QAE@_J@Z         1010d790 f   LIBCMTD:undname.obj
 0002:000a4970       ??0DName@@QAE@W4DNameStatus@@@Z 1010d970 f   LIBCMTD:undname.obj
 0002:000a4ad0       ?isValid@DName@@QBEHXZ     1010dad0 f i LIBCMTD:undname.obj
 0002:000a4b00       ?isEmpty@DName@@QBEHXZ     1010db00 f i LIBCMTD:undname.obj
 0002:000a4b20       ?status@DName@@QBE?AW4DNameStatus@@XZ 1010db20 f i LIBCMTD:undname.obj
 0002:000a4b40       ?setPtrRef@DName@@QAEAAV1@XZ 1010db40 f i LIBCMTD:undname.obj
 0002:000a4b70       ?isPtrRef@DName@@QBEHXZ    1010db70 f i LIBCMTD:undname.obj
 0002:000a4b90       ?isUDC@DName@@QBEHXZ       1010db90 f i LIBCMTD:undname.obj
 0002:000a4be0       ?setIsUDC@DName@@QAEXXZ    1010dbe0 f i LIBCMTD:undname.obj
 0002:000a4c20       ?isUDTThunk@DName@@QBEHXZ  1010dc20 f i LIBCMTD:undname.obj
 0002:000a4c70       ?setIsArray@DName@@QAEXXZ  1010dc70 f i LIBCMTD:undname.obj
 0002:000a4ca0       ?isArray@DName@@QBEHXZ     1010dca0 f i LIBCMTD:undname.obj
 0002:000a4cc0       ?isNoTE@DName@@QBEHXZ      1010dcc0 f i LIBCMTD:undname.obj
 0002:000a4ce0       ?setIsNoTE@DName@@QAEXXZ   1010dce0 f i LIBCMTD:undname.obj
 0002:000a4d10       ?isPinPtr@DName@@QBEHXZ    1010dd10 f i LIBCMTD:undname.obj
 0002:000a4d30       ?setIsPinPtr@DName@@QAEXXZ 1010dd30 f i LIBCMTD:undname.obj
 0002:000a4d60       ?isComArray@DName@@QBEHXZ  1010dd60 f i LIBCMTD:undname.obj
 0002:000a4d80       ?setIsComArray@DName@@QAEXXZ 1010dd80 f i LIBCMTD:undname.obj
 0002:000a4db0       ?isVCallThunk@DName@@QBEHXZ 1010ddb0 f i LIBCMTD:undname.obj
 0002:000a4dd0       ?setIsVCallThunk@DName@@QAEXXZ 1010ddd0 f i LIBCMTD:undname.obj
 0002:000a4e00       ?length@DName@@QBEHXZ      1010de00 f i LIBCMTD:undname.obj
 0002:000a4e40       ?getLastChar@DName@@QBEDXZ 1010de40 f i LIBCMTD:undname.obj
 0002:000a4e80       ?getString@DName@@QBEPADPADH@Z 1010de80 f i LIBCMTD:undname.obj
 0002:000a4f30       ?getString@DName@@QBEPADPAD0@Z 1010df30 f i LIBCMTD:undname.obj
 0002:000a4f80       ??HDName@@QBE?AV0@D@Z      1010df80 f   LIBCMTD:undname.obj
 0002:000a4fd0       ??HDName@@QBE?AV0@PBD@Z    1010dfd0 f   LIBCMTD:undname.obj
 0002:000a5020       ??HDName@@QBE?AV0@ABV0@@Z  1010e020 f   LIBCMTD:undname.obj
 0002:000a5070       ??HDName@@QBE?AV0@PAV0@@Z  1010e070 f   LIBCMTD:undname.obj
 0002:000a50c0       ??HDName@@QBE?AV0@W4DNameStatus@@@Z 1010e0c0 f   LIBCMTD:undname.obj
 0002:000a5110       ?append@DName@@AAEXPAVDNameNode@@@Z 1010e110 f   LIBCMTD:undname.obj
 0002:000a51c0       ??YDName@@QAEAAV0@D@Z      1010e1c0 f   LIBCMTD:undname.obj
 0002:000a5270       ??YDName@@QAEAAV0@PBD@Z    1010e270 f   LIBCMTD:undname.obj
 0002:000a5330       ??YDName@@QAEAAV0@ABV0@@Z  1010e330 f   LIBCMTD:undname.obj
 0002:000a53b0       ??YDName@@QAEAAV0@PAV0@@Z  1010e3b0 f   LIBCMTD:undname.obj
 0002:000a5490       ??YDName@@QAEAAV0@W4DNameStatus@@@Z 1010e490 f   LIBCMTD:undname.obj
 0002:000a5510       ??_5DName@@QAEAAV0@ABV0@@Z 1010e510 f   LIBCMTD:undname.obj
 0002:000a5580       ??4DName@@QAEAAV0@D@Z      1010e580 f i LIBCMTD:undname.obj
 0002:000a5690       ??4DName@@QAEAAV0@PBD@Z    1010e690 f   LIBCMTD:undname.obj
 0002:000a57a0       ??4DName@@QAEAAV0@ABV0@@Z  1010e7a0 f   LIBCMTD:undname.obj
 0002:000a57d0       ??4DName@@QAEAAV0@PAV0@@Z  1010e7d0 f   LIBCMTD:undname.obj
 0002:000a5950       ??4DName@@QAEAAV0@W4DNameStatus@@@Z 1010e950 f   LIBCMTD:undname.obj
 0002:000a5a90       ?doPchar@DName@@AAEXPBDH@Z 1010ea90 f   LIBCMTD:undname.obj
 0002:000a5c20       ?isFull@Replicator@@QBEHXZ 1010ec20 f i LIBCMTD:undname.obj
 0002:000a5c40       ??0Replicator@@QAE@XZ      1010ec40 f i LIBCMTD:undname.obj
 0002:000a5c60       ??YReplicator@@QAEAAV0@ABVDName@@@Z 1010ec60 f   LIBCMTD:undname.obj
 0002:000a5d10       ??AReplicator@@QBE?AVDName@@H@Z 1010ed10 f   LIBCMTD:undname.obj
 0002:000a5d90       ??0DNameNode@@IAE@XZ       1010ed90 f   LIBCMTD:undname.obj
 0002:000a5db0       ??0charNode@@QAE@D@Z       1010edb0 f   LIBCMTD:undname.obj
 0002:000a5df0       ?length@charNode@@UBEHXZ   1010edf0 f i LIBCMTD:undname.obj
 0002:000a5e10       ?getLastChar@charNode@@UBEDXZ 1010ee10 f i LIBCMTD:undname.obj
 0002:000a5e30       ?getString@charNode@@UBEPADPAD0@Z 1010ee30 f i LIBCMTD:undname.obj
 0002:000a5e70       ??0pcharNode@@QAE@PBDH@Z   1010ee70 f   LIBCMTD:undname.obj
 0002:000a5f30       ?length@pcharNode@@UBEHXZ  1010ef30 f i LIBCMTD:undname.obj
 0002:000a5f50       ?getLastChar@pcharNode@@UBEDXZ 1010ef50 f i LIBCMTD:undname.obj
 0002:000a5fa0       ?getString@pcharNode@@UBEPADPAD0@Z 1010efa0 f i LIBCMTD:undname.obj
 0002:000a5fe0       ?getStringHelper@@YAPADPAD00H@Z 1010efe0 f i LIBCMTD:undname.obj
 0002:000a6030       ??0pDNameNode@@QAE@PAVDName@@@Z 1010f030 f   LIBCMTD:undname.obj
 0002:000a60b0       ?length@pDNameNode@@UBEHXZ 1010f0b0 f i LIBCMTD:undname.obj
 0002:000a60f0       ?getLastChar@pDNameNode@@UBEDXZ 1010f0f0 f i LIBCMTD:undname.obj
 0002:000a6130       ?getString@pDNameNode@@UBEPADPAD0@Z 1010f130 f i LIBCMTD:undname.obj
 0002:000a6180       ??0DNameStatusNode@@AAE@W4DNameStatus@@@Z 1010f180 f   LIBCMTD:undname.obj
 0002:000a61e0       ?length@DNameStatusNode@@UBEHXZ 1010f1e0 f i LIBCMTD:undname.obj
 0002:000a6200       ?getLastChar@DNameStatusNode@@UBEDXZ 1010f200 f i LIBCMTD:undname.obj
 0002:000a6230       ?getString@DNameStatusNode@@UBEPADPAD0@Z 1010f230 f i LIBCMTD:undname.obj
 0002:000a6280       ?make@DNameStatusNode@@SAPAV1@W4DNameStatus@@@Z 1010f280 f i LIBCMTD:undname.obj
 0002:000a6360       ??0pairNode@@QAE@PAVDNameNode@@0@Z 1010f360 f   LIBCMTD:undname.obj
 0002:000a63b0       ?length@pairNode@@UBEHXZ   1010f3b0 f i LIBCMTD:undname.obj
 0002:000a6410       ?getLastChar@pairNode@@UBEDXZ 1010f410 f i LIBCMTD:undname.obj
 0002:000a6470       ?getString@pairNode@@UBEPADPAD0@Z 1010f470 f i LIBCMTD:undname.obj
 0002:000a65f0       __set_error_mode           1010f5f0 f   LIBCMTD:errmode.obj
 0002:000a66e0       ___set_app_type            1010f6e0 f   LIBCMTD:errmode.obj
 0002:000a6700       ___crtMessageBoxW          1010f700 f   LIBCMTD:crtmboxw.obj
 0002:000a69b0       _wcscat_s                  1010f9b0 f   LIBCMTD:wcscat_s.obj
 0002:000a6e90       _wcsncpy_s                 1010fe90 f   LIBCMTD:wcsncpy_s.obj
 0002:000a73a0       _wcslen                    101103a0 f   LIBCMTD:wcslen.obj
 0002:000a73e0       _wcscpy_s                  101103e0 f   LIBCMTD:wcscpy_s.obj
 0002:000a7780       _strncpy_s                 10110780 f   LIBCMTD:strncpy_s.obj
 0002:000a7c70       ___crtGetLocaleInfoA       10110c70 f   LIBCMTD:a_loc.obj
 0002:000a7e20       __fcloseall                10110e20 f   LIBCMTD:closeall.obj
 0002:000a7fa0       _fflush                    10110fa0 f   LIBCMTD:fflush.obj
 0002:000a8060       __fflush_nolock            10111060 f   LIBCMTD:fflush.obj
 0002:000a80d0       __flush                    101110d0 f   LIBCMTD:fflush.obj
 0002:000a81c0       __flushall                 101111c0 f   LIBCMTD:fflush.obj
 0002:000a83f0       __isatty                   101113f0 f   LIBCMTD:isatty.obj
 0002:000a84e0       __fileno                   101114e0 f   LIBCMTD:fileno.obj
 0002:000a8570       __wctomb_s_l               10111570 f   LIBCMTD:wctomb.obj
 0002:000a8930       _wctomb_s                  10111930 f   LIBCMTD:wctomb.obj
 0002:000a8960       __wctomb_l                 10111960 f   LIBCMTD:wctomb.obj
 0002:000a8a00       _wctomb                    10111a00 f   LIBCMTD:wctomb.obj
 0002:000a8a60       __CrtDbgBreak              10111a60 f   LIBCMTD:dbgrptt.obj
 0002:000a8a70       __CrtSetReportMode         10111a70 f   LIBCMTD:dbgrptt.obj
 0002:000a8c00       __CrtSetReportFile         10111c00 f   LIBCMTD:dbgrptt.obj
 0002:000a8d30       __CrtSetReportHook         10111d30 f   LIBCMTD:dbgrptt.obj
 0002:000a8d60       __CrtGetReportHook         10111d60 f   LIBCMTD:dbgrptt.obj
 0002:000a8d70       __VCrtDbgReportA           10111d70 f   LIBCMTD:dbgrptt.obj
 0002:000a97a0       __VCrtDbgReportW           101127a0 f   LIBCMTD:dbgrptt.obj
 0002:000aa320       __swprintf                 10113320 f   LIBCMTD:swprintf.obj
 0002:000aa5a0       ___swprintf_l              101135a0 f   LIBCMTD:swprintf.obj
 0002:000aa5e0       _swprintf_s                101135e0 f   LIBCMTD:swprintf.obj
 0002:000aa620       __snwprintf_s              10113620 f   LIBCMTD:swprintf.obj
 0002:000aa660       __swprintf_p               10113660 f   LIBCMTD:swprintf.obj
 0002:000aa6a0       __swprintf_s_l             101136a0 f   LIBCMTD:swprintf.obj
 0002:000aa6e0       __snwprintf_s_l            101136e0 f   LIBCMTD:swprintf.obj
 0002:000aa720       __swprintf_p_l             10113720 f   LIBCMTD:swprintf.obj
 0002:000aa760       __scwprintf                10113760 f   LIBCMTD:swprintf.obj
 0002:000aa790       __scwprintf_p              10113790 f   LIBCMTD:swprintf.obj
 0002:000aa7c0       __scwprintf_l              101137c0 f   LIBCMTD:swprintf.obj
 0002:000aa7f0       __scwprintf_p_l            101137f0 f   LIBCMTD:swprintf.obj
 0002:000aa820       _memcpy_s                  10113820 f   LIBCMTD:memcpy_s.obj
 0002:000aaa10       __output_s_l               10113a10 f   LIBCMTD:outputs.obj
 0002:000ac540       __validate_param_reuseA    10115540 f   LIBCMTD:outputp.obj
 0002:000ac850       __output_p_l               10115850 f   LIBCMTD:outputp.obj
 0002:000b1350       _get_crtdouble_arg         1011a350 f i LIBCMTD:outputp.obj
 0002:000b1380       __ismbbkalnum_l            1011a380 f   LIBCMTD:ismbbyte.obj
 0002:000b13b0       __ismbbkalnum              1011a3b0 f   LIBCMTD:ismbbyte.obj
 0002:000b13d0       __ismbbkprint_l            1011a3d0 f   LIBCMTD:ismbbyte.obj
 0002:000b1400       __ismbbkprint              1011a400 f   LIBCMTD:ismbbyte.obj
 0002:000b1420       __ismbbkpunct_l            1011a420 f   LIBCMTD:ismbbyte.obj
 0002:000b1450       __ismbbkpunct              1011a450 f   LIBCMTD:ismbbyte.obj
 0002:000b1470       __ismbbalnum_l             1011a470 f   LIBCMTD:ismbbyte.obj
 0002:000b14a0       __ismbbalnum               1011a4a0 f   LIBCMTD:ismbbyte.obj
 0002:000b14d0       __ismbbalpha_l             1011a4d0 f   LIBCMTD:ismbbyte.obj
 0002:000b1500       __ismbbalpha               1011a500 f   LIBCMTD:ismbbyte.obj
 0002:000b1530       __ismbbgraph_l             1011a530 f   LIBCMTD:ismbbyte.obj
 0002:000b1560       __ismbbgraph               1011a560 f   LIBCMTD:ismbbyte.obj
 0002:000b1590       __ismbbprint_l             1011a590 f   LIBCMTD:ismbbyte.obj
 0002:000b15c0       __ismbbprint               1011a5c0 f   LIBCMTD:ismbbyte.obj
 0002:000b15f0       __ismbbpunct_l             1011a5f0 f   LIBCMTD:ismbbyte.obj
 0002:000b1620       __ismbbpunct               1011a620 f   LIBCMTD:ismbbyte.obj
 0002:000b1640       __ismbblead_l              1011a640 f   LIBCMTD:ismbbyte.obj
 0002:000b1670       __ismbblead                1011a670 f   LIBCMTD:ismbbyte.obj
 0002:000b1690       __ismbbtrail_l             1011a690 f   LIBCMTD:ismbbyte.obj
 0002:000b16c0       __ismbbtrail               1011a6c0 f   LIBCMTD:ismbbyte.obj
 0002:000b16e0       __ismbbkana_l              1011a6e0 f   LIBCMTD:ismbbyte.obj
 0002:000b1770       __ismbbkana                1011a770 f   LIBCMTD:ismbbyte.obj
 0002:000b1890       __matherr                  1011a890 f   LIBCMTD:_matherr_.obj
 0002:000b18a0       __frnd                     1011a8a0 f   LIBCMTD:_frnd_.obj
 0002:000b18c0       __handle_qnan1             1011a8c0 f   LIBCMTD:_fpexcept_.obj
 0002:000b1940       __handle_qnan2             1011a940 f   LIBCMTD:_fpexcept_.obj
 0002:000b19d0       __except1                  1011a9d0 f   LIBCMTD:_fpexcept_.obj
 0002:000b1b10       __except2                  1011ab10 f   LIBCMTD:_fpexcept_.obj
 0002:000b1c60       __raise_exc_ex             1011ac60 f   LIBCMTD:_fpexcept_.obj
 0002:000b22e0       __raise_exc                1011b2e0 f   LIBCMTD:_fpexcept_.obj
 0002:000b2320       __raise_excf               1011b320 f   LIBCMTD:_fpexcept_.obj
 0002:000b2360       __handle_exc               1011b360 f   LIBCMTD:_fpexcept_.obj
 0002:000b2730       __umatherr                 1011b730 f   LIBCMTD:_fpexcept_.obj
 0002:000b2800       __set_errno_from_matherr   1011b800 f   LIBCMTD:_fpexcept_.obj
 0002:000b28b0       __errcode                  1011b8b0 f   LIBCMTD:_fpexcept_.obj
 0002:000b2940       __set_exp                  1011b940 f   LIBCMTD:_util_.obj
 0002:000b2990       __get_exp                  1011b990 f   LIBCMTD:_util_.obj
 0002:000b29d0       __add_exp                  1011b9d0 f   LIBCMTD:_util_.obj
 0002:000b2a10       __set_bexp                 1011ba10 f   LIBCMTD:_util_.obj
 0002:000b2a50       __sptype                   1011ba50 f   LIBCMTD:_util_.obj
 0002:000b2af0       __decomp                   1011baf0 f   LIBCMTD:_util_.obj
 0002:000b2c60       __statfp                   1011bc60 f   LIBCMTD:_fpctrl_.obj
 0002:000b2c80       __clrfp                    1011bc80 f   LIBCMTD:_fpctrl_.obj
 0002:000b2ca0       __ctrlfp                   1011bca0 f   LIBCMTD:_fpctrl_.obj
 0002:000b2ce0       __set_statfp               1011bce0 f   LIBCMTD:_fpctrl_.obj
 0002:000b2d60       ___get_fpsr_sse2           1011bd60 f   LIBCMTD:_fpctrl_.obj
 0002:000b2d90       ___set_fpsr_sse2           1011bd90 f   LIBCMTD:_fpctrl_.obj
 0002:000b2ea0       ___fclrf_sse2              1011bea0 f   LIBCMTD:_fpctrl_.obj
 0002:000b2ed0       ___statfp_sse2             1011bed0 f   LIBCMTD:_fpctrl_.obj
 0002:000b2f10       ___clrfp_sse2              1011bf10 f   LIBCMTD:_fpctrl_.obj
 0002:000b2f60       ___ctrlfp_sse2             1011bf60 f   LIBCMTD:_fpctrl_.obj
 0002:000b2fd0       ___set_statfp_sse2         1011bfd0 f   LIBCMTD:_fpctrl_.obj
 0002:000b3010       __copysign                 1011c010 f   LIBCMTD:_ieeemisc_.obj
 0002:000b3050       __chgsign                  1011c050 f   LIBCMTD:_ieeemisc_.obj
 0002:000b3090       __scalb                    1011c090 f   LIBCMTD:_ieeemisc_.obj
 0002:000b30c0       __logb                     1011c0c0 f   LIBCMTD:_ieeemisc_.obj
 0002:000b3240       __nextafter                1011c240 f   LIBCMTD:_ieeemisc_.obj
 0002:000b3630       __finite                   1011c630 f   LIBCMTD:_ieeemisc_.obj
 0002:000b3660       __isnan                    1011c660 f   LIBCMTD:_ieeemisc_.obj
 0002:000b36c0       __fpclass                  1011c6c0 f   LIBCMTD:_ieeemisc_.obj
 0002:000b37c0       __CIcos_pentium4           1011c7c0 f   LIBCMTD:_cos_pentium4_.obj
 0002:000b37d8       __cos_pentium4             1011c7d8     LIBCMTD:_cos_pentium4_.obj
 0002:000b39e0       __CIsin_pentium4           1011c9e0 f   LIBCMTD:_sin_pentium4_.obj
 0002:000b39f8       __sin_pentium4             1011c9f8     LIBCMTD:_sin_pentium4_.obj
 0002:000b3c20       __CItan_pentium4           1011cc20 f   LIBCMTD:_tan_pentium4_.obj
 0002:000b3c38       __tan_pentium4             1011cc38     LIBCMTD:_tan_pentium4_.obj
 0002:000b3f20       __mbtowc_l                 1011cf20 f   LIBCMTD:mbtowc.obj
 0002:000b41c0       _mbtowc                    1011d1c0 f   LIBCMTD:mbtowc.obj
 0002:000b41f0       __filbuf                   1011d1f0 f   LIBCMTD:_filbuf.obj
 0002:000b44d0       _ungetc                    1011d4d0 f   LIBCMTD:ungetc.obj
 0002:000b4600       __ungetc_nolock            1011d600 f   LIBCMTD:ungetc.obj
 0002:000b48b0       __ld12tod                  1011d8b0 f   LIBCMTD:_intrncvt_.obj
 0002:000b48e0       __ld12cvt                  1011d8e0 f i LIBCMTD:_intrncvt_.obj
 0002:000b4be0       __RoundMan                 1011dbe0 f i LIBCMTD:_intrncvt_.obj
 0002:000b4cf0       __ZeroTail                 1011dcf0 f i LIBCMTD:_intrncvt_.obj
 0002:000b4da0       __IncMan                   1011dda0 f i LIBCMTD:_intrncvt_.obj
 0002:000b4e80       __CopyMan                  1011de80 f i LIBCMTD:_intrncvt_.obj
 0002:000b4ef0       __FillZeroMan              1011def0 f i LIBCMTD:_intrncvt_.obj
 0002:000b4f30       __IsZeroMan                1011df30 f i LIBCMTD:_intrncvt_.obj
 0002:000b4f80       __ShrMan                   1011df80 f i LIBCMTD:_intrncvt_.obj
 0002:000b50b0       __ld12tof                  1011e0b0 f   LIBCMTD:_intrncvt_.obj
 0002:000b50e0       __ld12told                 1011e0e0 f   LIBCMTD:_intrncvt_.obj
 0002:000b51e0       ___crtGetStringTypeA       1011e1e0 f   LIBCMTD:a_str.obj
 0002:000b53a0       ___report_gsfailure        1011e3a0 f   LIBCMTD:gs_report.obj
 0002:000b5500       ___init_time               1011e500 f   LIBCMTD:inittime.obj
 0002:000b6570       ___free_lc_time            1011f570 f   LIBCMTD:inittime.obj
 0002:000b6d80       ___init_numeric            1011fd80 f   LIBCMTD:initnum.obj
 0002:000b7220       ___free_lconv_num          10120220 f   LIBCMTD:initnum.obj
 0002:000b7300       ___init_monetary           10120300 f   LIBCMTD:initmon.obj
 0002:000b7a60       ___free_lconv_mon          10120a60 f   LIBCMTD:initmon.obj
 0002:000b7c70       _localeconv                10120c70 f   LIBCMTD:lconv.obj
 0002:000b7cd0       ___pwctype_func            10120cd0 f   LIBCMTD:ctype.obj
 0002:000b7ce0       ___pctype_func             10120ce0 f   LIBCMTD:ctype.obj
 0002:000b7d40       ___mtold12                 10120d40 f   LIBCMTD:_mantold_.obj
 0002:000b7ef0       ___add_12                  10120ef0 f i LIBCMTD:_mantold_.obj
 0002:000b7fd0       __lseeki64                 10120fd0 f   LIBCMTD:lseeki64.obj
 0002:000b82b0       __lseeki64_nolock          101212b0 f   LIBCMTD:lseeki64.obj
 0002:000b83e0       __write                    101213e0 f   LIBCMTD:write.obj
 0002:000b8690       __write_nolock             10121690 f   LIBCMTD:write.obj
 0002:000b94a0       __getbuf                   101224a0 f   LIBCMTD:_getbuf.obj
 0002:000b95a0       __iswctype_l               101225a0 f   LIBCMTD:iswctype.obj
 0002:000b95c0       _iswctype                  101225c0 f   LIBCMTD:iswctype.obj
 0002:000b9640       _is_wctype                 10122640 f   LIBCMTD:iswctype.obj
 0002:000b9660       ___init_ctype              10122660 f   LIBCMTD:initctyp.obj
 0002:000b9d80       ____mb_cur_max_func        10122d80 f   LIBCMTD:initctyp.obj
 0002:000b9de0       ____mb_cur_max_l_func      10122de0 f   LIBCMTD:initctyp.obj
 0002:000b9e20       ____lc_codepage_func       10122e20 f   LIBCMTD:initctyp.obj
 0002:000b9e80       ____lc_collate_cp_func     10122e80 f   LIBCMTD:initctyp.obj
 0002:000b9ee0       ____lc_handle_func         10122ee0 f   LIBCMTD:initctyp.obj
 0002:000b9f40       ___init_collate            10122f40 f   LIBCMTD:initcoll.obj
 0002:000b9f50       _strcspn                   10122f50 f   LIBCMTD:strcspn.obj
 0002:000b9fb0       _strncmp                   10122fb0 f   LIBCMTD:strncmp.obj
 0002:000ba180       _strpbrk                   10123180 f   LIBCMTD:strpbrk.obj
 0002:000ba1d0       _memcmp                    101231d0 f   LIBCMTD:memcmp.obj
 0002:000baef0       _strcat_s                  10123ef0 f   LIBCMTD:strcat_s.obj
 0002:000bb3c0       ___get_qualified_locale    101243c0 f   LIBCMTD:getqloc.obj
 0002:000bc590       _fputwc                    10125590 f   LIBCMTD:fputwc.obj
 0002:000bc6d0       __fputwc_nolock            101256d0 f   LIBCMTD:fputwc.obj
 0002:000bca80       _putwc                     10125a80 f   LIBCMTD:fputwc.obj
 0002:000bcaa0       ___InternalCxxFrameHandler 10125aa0 f   LIBCMTD:frame.obj
 0002:000bd210       ??0bad_exception@std@@QAE@PBD@Z 10126210 f i LIBCMTD:frame.obj
 0002:000bd240       ??1bad_exception@std@@UAE@XZ 10126240 f i LIBCMTD:frame.obj
 0002:000bd270       ??_Ebad_exception@std@@UAEPAXI@Z 10126270 f i LIBCMTD:frame.obj
 0002:000bd270       ??_Gbad_exception@std@@UAEPAXI@Z 10126270 f i LIBCMTD:frame.obj
 0002:000bd2b0       ??0bad_exception@std@@QAE@ABV01@@Z 101262b0 f i LIBCMTD:frame.obj
 0002:000bd4d0       ___TypeMatch               101264d0 f   LIBCMTD:frame.obj
 0002:000bd5b0       ___FrameUnwindFilter       101265b0 f   LIBCMTD:frame.obj
 0002:000bd650       ___FrameUnwindToState      10126650 f   LIBCMTD:frame.obj
 0002:000bdce0       ___BuildCatchObjectHelper  10126ce0 f   LIBCMTD:frame.obj
 0002:000bdff0       ___BuildCatchObject        10126ff0 f   LIBCMTD:frame.obj
 0002:000be140       ___DestructExceptionObject 10127140 f   LIBCMTD:frame.obj
 0002:000be220       ___AdjustPointer           10127220 f   LIBCMTD:frame.obj
 0002:000be280       ?__uncaught_exception@@YA_NXZ 10127280 f   LIBCMTD:frame.obj
 0002:000be2a0       ___CxxExceptionFilter      101272a0 f   LIBCMTD:frame.obj
 0002:000be510       ___CxxRegisterExceptionObject 10127510 f   LIBCMTD:frame.obj
 0002:000be690       ___CxxDetectRethrow        10127690 f   LIBCMTD:frame.obj
 0002:000be740       ___CxxUnregisterExceptionObject 10127740 f   LIBCMTD:frame.obj
 0002:000be920       ___CxxQueryExceptionSize   10127920 f   LIBCMTD:frame.obj
 0002:000be930       ___CxxCallUnwindDtor       10127930 f   LIBCMTD:frame.obj
 0002:000be9d0       ___CxxCallUnwindDelDtor    101279d0 f   LIBCMTD:frame.obj
 0002:000bea70       ___CxxCallUnwindStdDelDtor 10127a70 f   LIBCMTD:frame.obj
 0002:000beb10       ___CxxCallUnwindVecDtor    10127b10 f   LIBCMTD:frame.obj
 0002:000bede0       ?_is_exception_typeof@@YAHABVtype_info@@PAU_EXCEPTION_POINTERS@@@Z 10127de0 f   LIBCMTD:frame.obj
 0002:000beef0       __CallSettingFrame@12      10127ef0 f   LIBCMTD:lowhelpr.obj
 0002:000bef17       __NLG_Return               10127f17     LIBCMTD:lowhelpr.obj
 0002:000bef50       __wmakepath_s              10127f50 f   LIBCMTD:wmakepath_s.obj
 0002:000bf3f0       __wsplitpath_s             101283f0 f   LIBCMTD:wsplitpath_s.obj
 0002:000bfba0       ___crtMessageBoxA          10128ba0 f   LIBCMTD:crtmbox.obj
 0002:000bfe50       __statusfp2                10128e50 f   LIBCMTD:_ieee87_.obj
 0002:000bfea0       __statusfp                 10128ea0 f   LIBCMTD:_ieee87_.obj
 0002:000bff00       __clearfp                  10128f00 f   LIBCMTD:_ieee87_.obj
 0002:000bff60       ___control87_2             10128f60 f   LIBCMTD:_ieee87_.obj
 0002:000c0030       __controlfp                10129030 f   LIBCMTD:_ieee87_.obj
 0002:000c0060       __control87                10129060 f i LIBCMTD:_ieee87_.obj
 0002:000c0140       __set_controlfp            10129140 f   LIBCMTD:_ieee87_.obj
 0002:000c01f0       __fpreset                  101291f0 f   LIBCMTD:_ieee87_.obj
 0002:000c0b90       _$I10_OUTPUT               10129b90 f   LIBCMTD:_x10fout_.obj
 0002:000c12a0       __global_unwind2           1012a2a0 f   LIBCMTD:exsup.obj
 0002:000c1305       __local_unwind2            1012a305 f   LIBCMTD:exsup.obj
 0002:000c1389       __abnormal_termination     1012a389 f   LIBCMTD:exsup.obj
 0002:000c13ac       __NLG_Notify1              1012a3ac f   LIBCMTD:exsup.obj
 0002:000c13b5       __NLG_Notify               1012a3b5 f   LIBCMTD:exsup.obj
 0002:000c13cc       __NLG_Dispatch2            1012a3cc     LIBCMTD:exsup.obj
 0002:000c13cc       __NLG_Dispatch             1012a3cc     LIBCMTD:exsup.obj
 0002:000c13d4       __NLG_Call                 1012a3d4 f   LIBCMTD:exsup.obj
 0002:000c13d6       __NLG_Return2              1012a3d6     LIBCMTD:exsup.obj
 0002:000c1430       _fclose                    1012a430 f   LIBCMTD:fclose.obj
 0002:000c1580       __fclose_nolock            1012a580 f   LIBCMTD:fclose.obj
 0002:000c16c0       __commit                   1012a6c0 f   LIBCMTD:commit.obj
 0002:000c1960       __mbstowcs_l_helper        1012a960 f   LIBCMTD:mbstowcs.obj
 0002:000c1d90       __mbstowcs_l               1012ad90 f   LIBCMTD:mbstowcs.obj
 0002:000c1dc0       _mbstowcs                  1012adc0 f   LIBCMTD:mbstowcs.obj
 0002:000c1e20       __mbstowcs_s_l             1012ae20 f   LIBCMTD:mbstowcs.obj
 0002:000c2280       _mbstowcs_s                1012b280 f   LIBCMTD:mbstowcs.obj
 0002:000c22b0       __itoa_s                   1012b2b0 f   LIBCMTD:xtoas.obj
 0002:000c2760       __ltoa_s                   1012b760 f   LIBCMTD:xtoas.obj
 0002:000c27b0       __ultoa_s                  1012b7b0 f   LIBCMTD:xtoas.obj
 0002:000c27e0       __i64toa_s                 1012b7e0 f   LIBCMTD:xtoas.obj
 0002:000c2ce0       __ui64toa_s                1012bce0 f   LIBCMTD:xtoas.obj
 0002:000c2d10       __wcstombs_l_helper        1012bd10 f   LIBCMTD:wcstombs.obj
 0002:000c33b0       __wcstombs_l               1012c3b0 f   LIBCMTD:wcstombs.obj
 0002:000c33e0       _wcstombs                  1012c3e0 f   LIBCMTD:wcstombs.obj
 0002:000c3410       __wcstombs_s_l             1012c410 f   LIBCMTD:wcstombs.obj
 0002:000c3800       _wcstombs_s                1012c800 f   LIBCMTD:wcstombs.obj
 0002:000c3830       __vswprintf_helper         1012c830 f   LIBCMTD:vswprnc.obj
 0002:000c3b20       __vswprintf_c              1012cb20 f   LIBCMTD:vswprnc.obj
 0002:000c3b80       __vswprintf_c_l            1012cb80 f   LIBCMTD:vswprnc.obj
 0002:000c3be0       __vswprintf_s_l            1012cbe0 f   LIBCMTD:vswprnc.obj
 0002:000c3ee0       _vswprintf_s               1012cee0 f   LIBCMTD:vswprnc.obj
 0002:000c3f10       __vsnwprintf_s_l           1012cf10 f   LIBCMTD:vswprnc.obj
 0002:000c43b0       __vsnwprintf_s             1012d3b0 f   LIBCMTD:vswprnc.obj
 0002:000c43e0       __vswprintf_p              1012d3e0 f   LIBCMTD:vswprnc.obj
 0002:000c4440       __vswprintf_p_l            1012d440 f   LIBCMTD:vswprnc.obj
 0002:000c44a0       __itow_s                   1012d4a0 f   LIBCMTD:xtows.obj
 0002:000c4970       __ltow_s                   1012d970 f   LIBCMTD:xtows.obj
 0002:000c49c0       __ultow_s                  1012d9c0 f   LIBCMTD:xtows.obj
 0002:000c49f0       __i64tow_s                 1012d9f0 f   LIBCMTD:xtows.obj
 0002:000c4f10       __ui64tow_s                1012df10 f   LIBCMTD:xtows.obj
 0002:000c4f40       __vswprintf_l              1012df40 f   LIBCMTD:vswprint.obj
 0002:000c51b0       __vswprintf                1012e1b0 f   LIBCMTD:vswprint.obj
 0002:000c51e0       ___vswprintf_l             1012e1e0 f   LIBCMTD:vswprint.obj
 0002:000c5210       __vscwprintf_helper        1012e210 f   LIBCMTD:vswprint.obj
 0002:000c5320       __vscwprintf               1012e320 f   LIBCMTD:vswprint.obj
 0002:000c5350       __vscwprintf_l             1012e350 f   LIBCMTD:vswprint.obj
 0002:000c5380       __vscwprintf_p             1012e380 f   LIBCMTD:vswprint.obj
 0002:000c53b0       __vscwprintf_p_l           1012e3b0 f   LIBCMTD:vswprint.obj
 0002:000c53e0       _ldexp                     1012e3e0 f   LIBCMTD:_ldexp_.obj
 0002:000c5750       __read                     1012e750 f   LIBCMTD:read.obj
 0002:000c5a90       __read_nolock              1012ea90 f   LIBCMTD:read.obj
 0002:000c6db0       __alloc_osfhnd             1012fdb0 f   LIBCMTD:osfinfo.obj
 0002:000c7110       __set_osfhnd               10130110 f   LIBCMTD:osfinfo.obj
 0002:000c7210       __free_osfhnd              10130210 f   LIBCMTD:osfinfo.obj
 0002:000c7330       __get_osfhandle            10130330 f   LIBCMTD:osfinfo.obj
 0002:000c74f0       __open_osfhandle           101304f0 f   LIBCMTD:osfinfo.obj
 0002:000c77b0       ___lock_fhandle            101307b0 f   LIBCMTD:osfinfo.obj
 0002:000c78f0       __unlock_fhandle           101308f0 f   LIBCMTD:osfinfo.obj
 0002:000c7930       __putwch                   10130930 f   LIBCMTD:putwch.obj
 0002:000c79e0       __putwch_nolock            101309e0 f   LIBCMTD:putwch.obj
 0002:000c7a50       __stricmp_l                10130a50 f   LIBCMTD:stricmp.obj
 0002:000c7c60       ___ascii_stricmp           10130c60 f   LIBCMTD:stricmp.obj
 0002:000c7cf0       __stricmp                  10130cf0 f   LIBCMTD:stricmp.obj
 0002:000c7e40       __strnicmp_l               10130e40 f   LIBCMTD:strnicmp.obj
 0002:000c8110       __strnicmp                 10131110 f   LIBCMTD:strnicmp.obj
 0002:000c8300       __flswbuf                  10131300 f   LIBCMTD:_flswbuf.obj
 0002:000c8690       ?_ValidateRead@@YAHPBXI@Z  10131690 f   LIBCMTD:validate.obj
 0002:000c86c0       ?_ValidateWrite@@YAHPAXI@Z 101316c0 f   LIBCMTD:validate.obj
 0002:000c86f0       ?_ValidateExecute@@YAHP6GHXZ@Z 101316f0 f   LIBCMTD:validate.obj
 0002:000c8720       __close                    10131720 f   LIBCMTD:close.obj
 0002:000c89c0       __close_nolock             101319c0 f   LIBCMTD:close.obj
 0002:000c8ac0       __freebuf                  10131ac0 f   LIBCMTD:_freebuf.obj
 0002:000c8b70       __woutput_s_l              10131b70 f   LIBCMTD:woutputs.obj
 0002:000ca3a0       __validate_param_reuseW    101333a0 f   LIBCMTD:woutputp.obj
 0002:000ca6b0       __woutput_p_l              101336b0 f   LIBCMTD:woutputp.obj
 0002:000cec30       ___initconout              10137c30 f   LIBCMTD:initcon.obj
 0002:000cec60       ___termconout              10137c60 f   LIBCMTD:initcon.obj
 0002:000cec90       ___ascii_strnicmp          10137c90 f   LIBCMTD:_strnicm.obj
 0002:000ced10       _wcstol                    10137d10 f   LIBCMTD:wcstol.obj
 0002:000cf1d0       __wcstol_l                 101381d0 f   LIBCMTD:wcstol.obj
 0002:000cf200       _wcstoul                   10138200 f   LIBCMTD:wcstol.obj
 0002:000cf230       __wcstoul_l                10138230 f   LIBCMTD:wcstol.obj
 0002:000cf260       __wchartodigit             10138260 f   LIBCMTD:wchtodig.obj
 0002:000cf64a       _MultiByteToWideChar@24    1013864a f   kernel32:KERNEL32.dll
 0002:000cf650       _WideCharToMultiByte@32    10138650 f   kernel32:KERNEL32.dll
 0002:000cf656       _GetProcAddress@8          10138656 f   kernel32:KERNEL32.dll
 0002:000cf65c       _GetModuleHandleA@4        1013865c f   kernel32:KERNEL32.dll
 0002:000cf662       _LoadLibraryExA@12         10138662 f   kernel32:KERNEL32.dll
 0002:000cf668       _WaitForSingleObject@8     10138668 f   kernel32:KERNEL32.dll
 0002:000cf66e       _GetCurrentProcessId@0     1013866e f   kernel32:KERNEL32.dll
 0002:000cf674       _CreateFileMappingA@24     10138674 f   kernel32:KERNEL32.dll
 0002:000cf67a       _CloseHandle@4             1013867a f   kernel32:KERNEL32.dll
 0002:000cf680       _OpenFileMappingA@12       10138680 f   kernel32:KERNEL32.dll
 0002:000cf686       _FreeLibrary@4             10138686 f   kernel32:KERNEL32.dll
 0002:000cf68c       _EncodePointer@4           1013868c f   kernel32:KERNEL32.dll
 0002:000cf692       _DecodePointer@4           10138692 f   kernel32:KERNEL32.dll
 0002:000cf698       _GetCurrentThreadId@0      10138698 f   kernel32:KERNEL32.dll
 0002:000cf69e       _GetCommandLineA@0         1013869e f   kernel32:KERNEL32.dll
 0002:000cf6a4       _GetLastError@0            101386a4 f   kernel32:KERNEL32.dll
 0002:000cf6aa       _GetFullPathNameA@16       101386aa f   kernel32:KERNEL32.dll
 0002:000cf6b0       _GetDriveTypeW@4           101386b0 f   kernel32:KERNEL32.dll
 0002:000cf6b6       _SetEnvironmentVariableA@8 101386b6 f   kernel32:KERNEL32.dll
 0002:000cf6bc       _GetCurrentDirectoryA@8    101386bc f   kernel32:KERNEL32.dll
 0002:000cf6c2       _SetCurrentDirectoryA@4    101386c2 f   kernel32:KERNEL32.dll
 0002:000cf6c8       _IsDebuggerPresent@0       101386c8 f   kernel32:KERNEL32.dll
 0002:000cf6ce       _RaiseException@16         101386ce f   kernel32:KERNEL32.dll
 0002:000cf6d4       _lstrlenA@4                101386d4 f   kernel32:KERNEL32.dll
 0002:000cf6da       _LoadLibraryW@4            101386da f   kernel32:KERNEL32.dll
 0002:000cf6e0       _IsProcessorFeaturePresent@4 101386e0 f   kernel32:KERNEL32.dll
 0002:000cf6e6       _InterlockedIncrement@4    101386e6 f   kernel32:KERNEL32.dll
 0002:000cf6ec       _InterlockedDecrement@4    101386ec f   kernel32:KERNEL32.dll
 0002:000cf6f2       _GetModuleHandleW@4        101386f2 f   kernel32:KERNEL32.dll
 0002:000cf6f8       _ExitProcess@4             101386f8 f   kernel32:KERNEL32.dll
 0002:000cf6fe       _HeapValidate@12           101386fe f   kernel32:KERNEL32.dll
 0002:000cf704       _IsBadReadPtr@8            10138704 f   kernel32:KERNEL32.dll
 0002:000cf70a       _GetModuleFileNameW@12     1013870a f   kernel32:KERNEL32.dll
 0002:000cf710       _WriteFile@20              10138710 f   kernel32:KERNEL32.dll
 0002:000cf716       _GetStdHandle@4            10138716 f   kernel32:KERNEL32.dll
 0002:000cf71c       _GetLocaleInfoW@16         1013871c f   kernel32:KERNEL32.dll
 0002:000cf722       _EnterCriticalSection@4    10138722 f   kernel32:KERNEL32.dll
 0002:000cf728       _LeaveCriticalSection@4    10138728 f   kernel32:KERNEL32.dll
 0002:000cf72e       _TerminateProcess@8        1013872e f   kernel32:KERNEL32.dll
 0002:000cf734       _GetCurrentProcess@0       10138734 f   kernel32:KERNEL32.dll
 0002:000cf73a       _UnhandledExceptionFilter@4 1013873a f   kernel32:KERNEL32.dll
 0002:000cf740       _SetUnhandledExceptionFilter@4 10138740 f   kernel32:KERNEL32.dll
 0002:000cf746       _InitializeCriticalSectionAndSpinCount@8 10138746 f   kernel32:KERNEL32.dll
 0002:000cf74c       _DeleteCriticalSection@4   1013874c f   kernel32:KERNEL32.dll
 0002:000cf752       _FatalAppExitA@8           10138752 f   kernel32:KERNEL32.dll
 0002:000cf758       _TlsAlloc@0                10138758 f   kernel32:KERNEL32.dll
 0002:000cf75e       _TlsGetValue@4             1013875e f   kernel32:KERNEL32.dll
 0002:000cf764       _TlsSetValue@8             10138764 f   kernel32:KERNEL32.dll
 0002:000cf76a       _TlsFree@4                 1013876a f   kernel32:KERNEL32.dll
 0002:000cf770       _SetLastError@4            10138770 f   kernel32:KERNEL32.dll
 0002:000cf776       _GetCurrentThread@0        10138776 f   kernel32:KERNEL32.dll
 0002:000cf77c       _SetHandleCount@4          1013877c f   kernel32:KERNEL32.dll
 0002:000cf782       _GetFileType@4             10138782 f   kernel32:KERNEL32.dll
 0002:000cf788       _GetStartupInfoW@4         10138788 f   kernel32:KERNEL32.dll
 0002:000cf78e       _GetModuleFileNameA@12     1013878e f   kernel32:KERNEL32.dll
 0002:000cf794       _FreeEnvironmentStringsW@4 10138794 f   kernel32:KERNEL32.dll
 0002:000cf79a       _GetEnvironmentStringsW@0  1013879a f   kernel32:KERNEL32.dll
 0002:000cf7a0       _HeapCreate@12             101387a0 f   kernel32:KERNEL32.dll
 0002:000cf7a6       _HeapDestroy@4             101387a6 f   kernel32:KERNEL32.dll
 0002:000cf7ac       _QueryPerformanceCounter@4 101387ac f   kernel32:KERNEL32.dll
 0002:000cf7b2       _GetTickCount@0            101387b2 f   kernel32:KERNEL32.dll
 0002:000cf7b8       _GetSystemTimeAsFileTime@4 101387b8 f   kernel32:KERNEL32.dll
 0002:000cf7be       _GetACP@0                  101387be f   kernel32:KERNEL32.dll
 0002:000cf7c4       _GetOEMCP@0                101387c4 f   kernel32:KERNEL32.dll
 0002:000cf7ca       _GetCPInfo@8               101387ca f   kernel32:KERNEL32.dll
 0002:000cf7d0       _IsValidCodePage@4         101387d0 f   kernel32:KERNEL32.dll
 0002:000cf7d6       _LCMapStringW@24           101387d6 f   kernel32:KERNEL32.dll
 0002:000cf7dc       _GetCurrentDirectoryW@8    101387dc f   kernel32:KERNEL32.dll
 0002:000cf7e2       _SetCurrentDirectoryW@4    101387e2 f   kernel32:KERNEL32.dll
 0002:000cf7e8       _RtlUnwind@16              101387e8 f   kernel32:KERNEL32.dll
 0002:000cf7ee       _HeapFree@12               101387ee f   kernel32:KERNEL32.dll
 0002:000cf7f4       _HeapAlloc@12              101387f4 f   kernel32:KERNEL32.dll
 0002:000cf7fa       _GetProcessHeap@0          101387fa f   kernel32:KERNEL32.dll
 0002:000cf800       _VirtualQuery@12           10138800 f   kernel32:KERNEL32.dll
 0002:000cf806       _SetConsoleCtrlHandler@8   10138806 f   kernel32:KERNEL32.dll
 0002:000cf80c       _InterlockedExchange@8     1013880c f   kernel32:KERNEL32.dll
 0002:000cf812       _HeapReAlloc@16            10138812 f   kernel32:KERNEL32.dll
 0002:000cf818       _HeapSize@12               10138818 f   kernel32:KERNEL32.dll
 0002:000cf81e       _HeapQueryInformation@20   1013881e f   kernel32:KERNEL32.dll
 0002:000cf824       _OutputDebugStringA@4      10138824 f   kernel32:KERNEL32.dll
 0002:000cf82a       _WriteConsoleW@20          1013882a f   kernel32:KERNEL32.dll
 0002:000cf830       _OutputDebugStringW@4      10138830 f   kernel32:KERNEL32.dll
 0002:000cf836       _GetStringTypeW@16         10138836 f   kernel32:KERNEL32.dll
 0002:000cf83c       _SetFilePointer@16         1013883c f   kernel32:KERNEL32.dll
 0002:000cf842       _GetConsoleCP@0            10138842 f   kernel32:KERNEL32.dll
 0002:000cf848       _GetConsoleMode@8          10138848 f   kernel32:KERNEL32.dll
 0002:000cf84e       _GetLocaleInfoA@16         1013884e f   kernel32:KERNEL32.dll
 0002:000cf854       _IsValidLocale@8           10138854 f   kernel32:KERNEL32.dll
 0002:000cf85a       _EnumSystemLocalesA@8      1013885a f   kernel32:KERNEL32.dll
 0002:000cf860       _GetUserDefaultLCID@0      10138860 f   kernel32:KERNEL32.dll
 0002:000cf866       _FlushFileBuffers@4        10138866 f   kernel32:KERNEL32.dll
 0002:000cf86c       _ReadFile@20               1013886c f   kernel32:KERNEL32.dll
 0002:000cf872       _SetStdHandle@8            10138872 f   kernel32:KERNEL32.dll
 0002:000cf878       _CreateFileW@28            10138878 f   kernel32:KERNEL32.dll
 0002:000cf880       ?RegisterInterface@@YAXP6APAXPBDPAH@Z0PAPAX@Z 10138880 f   interfaces:interfaces.obj
 0002:000cf8e0       ?ReconnectInterface@@YAXP6APAXPBDPAH@Z0PAPAX@Z 101388e0 f   interfaces:interfaces.obj
 0002:000cf960       ?ConnectInterfaces@@YAXPAP6APAXPBDPAH@ZH@Z 10138960 f   interfaces:interfaces.obj
 0002:000cfaa0       ?DisconnectInterfaces@@YAXXZ 10138aa0 f   interfaces:interfaces.obj
 0002:000cfaf0       ?ReconnectInterface@@YAXP6APAXPBDPAH@Z0@Z 10138af0 f   interfaces:interfaces.obj
 0002:000cfb74       _Warning                   10138b74 f   tier0:tier0.dll
 0002:000cfb7a       ?ConMsg@@YAXPBDZZ          10138b7a f   tier0:tier0.dll
 0002:000cfb80       _AssertValidStringPtr      10138b80 f   tier0:tier0.dll
 0002:000cfb86       __AssertValidWritePtr      10138b86 f   tier0:tier0.dll
 0002:000cfb8c       __AssertValidReadPtr       10138b8c f   tier0:tier0.dll
 0002:000cfb92       _Plat_IsInDebugSession     10138b92 f   tier0:tier0.dll
 0002:000cfb98       _ReleaseThreadHandle       10138b98 f   tier0:tier0.dll
 0002:000cfb9e       _CreateSimpleThread        10138b9e f   tier0:tier0.dll
 0002:000cfba4       _StackToolsNotify_LoadedLibrary 10138ba4 f   tier0:tier0.dll
 0002:000cfbaa       _GetThreadedLoadLibraryFunc 10138baa f   tier0:tier0.dll
 0002:000cfbb0       _CommandLine               10138bb0 f   tier0:tier0.dll
 0002:000cfbb6       ?DevWarning@@YAXPBDZZ      10138bb6 f   tier0:tier0.dll
 0002:000cfbc0       __strupr_l                 10138bc0 f   LIBCMTD:strupr.obj
 0002:000cfbf0       _strupr                    10138bf0 f   LIBCMTD:strupr.obj
 0002:000cfbf0       __strupr                   10138bf0 f   LIBCMTD:strupr.obj
 0002:000cfd00       __strupr_s_l               10138d00 f   LIBCMTD:strupr.obj
 0002:000d0280       __strupr_s                 10139280 f   LIBCMTD:strupr.obj
 0002:000d02a0       __strlwr_l                 101392a0 f   LIBCMTD:strlwr.obj
 0002:000d02d0       __strlwr                   101392d0 f   LIBCMTD:strlwr.obj
 0002:000d02d0       _strlwr                    101392d0 f   LIBCMTD:strlwr.obj
 0002:000d03e0       ?_strlwr_s_l_stat@@YAHPADIPAUlocaleinfo_struct@@@Z 101393e0 f   LIBCMTD:strlwr.obj
 0002:000d0920       __strlwr_s_l               10139920 f   LIBCMTD:strlwr.obj
 0002:000d0970       __strlwr_s                 10139970 f   LIBCMTD:strlwr.obj
 0002:000d0990       _strnlen                   10139990 f   LIBCMTD:strlen_s.obj
 0003:00000000       ___xc_a                    10144000     LIBCMTD:crt0init.obj
 0003:000006a0       ___xc_z                    101446a0     LIBCMTD:crt0init.obj
 0003:000007a4       ___xi_a                    101447a4     LIBCMTD:crt0init.obj
 0003:000009c0       ___xi_z                    101449c0     LIBCMTD:crt0init.obj
 0003:00000ac4       ___xp_a                    10144ac4     LIBCMTD:crt0init.obj
 0003:00000dd8       ___xp_z                    10144dd8     LIBCMTD:crt0init.obj
 0003:00000edc       ___xt_a                    10144edc     LIBCMTD:crt0init.obj
 0003:00000fe0       ___xt_z                    10144fe0     LIBCMTD:crt0init.obj
 0003:0000110c       ?MAX_LOGGING_STATE_COUNT@CLoggingSystem@@0HB 1014510c     BaseVSShader.obj
 0003:00001110       ?has_denorm@_Num_base@std@@2W4float_denorm_style@2@B 10145110     BaseVSShader.obj
 0003:00001114       ?has_denorm_loss@_Num_base@std@@2_NB 10145114     BaseVSShader.obj
 0003:00001115       ?has_infinity@_Num_base@std@@2_NB 10145115     BaseVSShader.obj
 0003:00001116       ?has_quiet_NaN@_Num_base@std@@2_NB 10145116     BaseVSShader.obj
 0003:00001117       ?has_signaling_NaN@_Num_base@std@@2_NB 10145117     BaseVSShader.obj
 0003:00001118       ?is_bounded@_Num_base@std@@2_NB 10145118     BaseVSShader.obj
 0003:00001119       ?is_exact@_Num_base@std@@2_NB 10145119     BaseVSShader.obj
 0003:0000111a       ?is_iec559@_Num_base@std@@2_NB 1014511a     BaseVSShader.obj
 0003:0000111b       ?is_integer@_Num_base@std@@2_NB 1014511b     BaseVSShader.obj
 0003:0000111c       ?is_modulo@_Num_base@std@@2_NB 1014511c     BaseVSShader.obj
 0003:0000111d       ?is_signed@_Num_base@std@@2_NB 1014511d     BaseVSShader.obj
 0003:0000111e       ?is_specialized@_Num_base@std@@2_NB 1014511e     BaseVSShader.obj
 0003:0000111f       ?tinyness_before@_Num_base@std@@2_NB 1014511f     BaseVSShader.obj
 0003:00001120       ?traps@_Num_base@std@@2_NB 10145120     BaseVSShader.obj
 0003:00001124       ?round_style@_Num_base@std@@2W4float_round_style@2@B 10145124     BaseVSShader.obj
 0003:00001128       ?digits@_Num_base@std@@2HB 10145128     BaseVSShader.obj
 0003:0000112c       ?digits10@_Num_base@std@@2HB 1014512c     BaseVSShader.obj
 0003:00001130       ?max_digits10@_Num_base@std@@2HB 10145130     BaseVSShader.obj
 0003:00001134       ?max_exponent@_Num_base@std@@2HB 10145134     BaseVSShader.obj
 0003:00001138       ?max_exponent10@_Num_base@std@@2HB 10145138     BaseVSShader.obj
 0003:0000113c       ?min_exponent@_Num_base@std@@2HB 1014513c     BaseVSShader.obj
 0003:00001140       ?min_exponent10@_Num_base@std@@2HB 10145140     BaseVSShader.obj
 0003:00001144       ?radix@_Num_base@std@@2HB  10145144     BaseVSShader.obj
 0003:00001148       ?is_bounded@_Num_int_base@std@@2_NB 10145148     BaseVSShader.obj
 0003:00001149       ?is_exact@_Num_int_base@std@@2_NB 10145149     BaseVSShader.obj
 0003:0000114a       ?is_integer@_Num_int_base@std@@2_NB 1014514a     BaseVSShader.obj
 0003:0000114b       ?is_modulo@_Num_int_base@std@@2_NB 1014514b     BaseVSShader.obj
 0003:0000114c       ?is_specialized@_Num_int_base@std@@2_NB 1014514c     BaseVSShader.obj
 0003:00001150       ?radix@_Num_int_base@std@@2HB 10145150     BaseVSShader.obj
 0003:00001154       ?has_denorm@_Num_float_base@std@@2W4float_denorm_style@2@B 10145154     BaseVSShader.obj
 0003:00001158       ?has_denorm_loss@_Num_float_base@std@@2_NB 10145158     BaseVSShader.obj
 0003:00001159       ?has_infinity@_Num_float_base@std@@2_NB 10145159     BaseVSShader.obj
 0003:0000115a       ?has_quiet_NaN@_Num_float_base@std@@2_NB 1014515a     BaseVSShader.obj
 0003:0000115b       ?has_signaling_NaN@_Num_float_base@std@@2_NB 1014515b     BaseVSShader.obj
 0003:0000115c       ?is_bounded@_Num_float_base@std@@2_NB 1014515c     BaseVSShader.obj
 0003:0000115d       ?is_exact@_Num_float_base@std@@2_NB 1014515d     BaseVSShader.obj
 0003:0000115e       ?is_iec559@_Num_float_base@std@@2_NB 1014515e     BaseVSShader.obj
 0003:0000115f       ?is_integer@_Num_float_base@std@@2_NB 1014515f     BaseVSShader.obj
 0003:00001160       ?is_modulo@_Num_float_base@std@@2_NB 10145160     BaseVSShader.obj
 0003:00001161       ?is_signed@_Num_float_base@std@@2_NB 10145161     BaseVSShader.obj
 0003:00001162       ?is_specialized@_Num_float_base@std@@2_NB 10145162     BaseVSShader.obj
 0003:00001163       ?tinyness_before@_Num_float_base@std@@2_NB 10145163     BaseVSShader.obj
 0003:00001164       ?traps@_Num_float_base@std@@2_NB 10145164     BaseVSShader.obj
 0003:00001168       ?round_style@_Num_float_base@std@@2W4float_round_style@2@B 10145168     BaseVSShader.obj
 0003:0000116c       ?radix@_Num_float_base@std@@2HB 1014516c     BaseVSShader.obj
 0003:00001170       ?is_signed@?$numeric_limits@D@std@@2_NB 10145170     BaseVSShader.obj
 0003:00001174       ?digits@?$numeric_limits@D@std@@2HB 10145174     BaseVSShader.obj
 0003:00001178       ?digits10@?$numeric_limits@D@std@@2HB 10145178     BaseVSShader.obj
 0003:0000117c       ?max_digits10@?$numeric_limits@D@std@@2HB 1014517c     BaseVSShader.obj
 0003:00001180       ?is_signed@?$numeric_limits@_W@std@@2_NB 10145180     BaseVSShader.obj
 0003:00001184       ?digits@?$numeric_limits@_W@std@@2HB 10145184     BaseVSShader.obj
 0003:00001188       ?digits10@?$numeric_limits@_W@std@@2HB 10145188     BaseVSShader.obj
 0003:0000118c       ?max_digits10@?$numeric_limits@_W@std@@2HB 1014518c     BaseVSShader.obj
 0003:00001190       ?is_modulo@?$numeric_limits@_N@std@@2_NB 10145190     BaseVSShader.obj
 0003:00001191       ?is_signed@?$numeric_limits@_N@std@@2_NB 10145191     BaseVSShader.obj
 0003:00001194       ?digits@?$numeric_limits@_N@std@@2HB 10145194     BaseVSShader.obj
 0003:00001198       ?digits10@?$numeric_limits@_N@std@@2HB 10145198     BaseVSShader.obj
 0003:0000119c       ?max_digits10@?$numeric_limits@_N@std@@2HB 1014519c     BaseVSShader.obj
 0003:000011a0       ?is_signed@?$numeric_limits@C@std@@2_NB 101451a0     BaseVSShader.obj
 0003:000011a4       ?digits@?$numeric_limits@C@std@@2HB 101451a4     BaseVSShader.obj
 0003:000011a8       ?digits10@?$numeric_limits@C@std@@2HB 101451a8     BaseVSShader.obj
 0003:000011ac       ?max_digits10@?$numeric_limits@C@std@@2HB 101451ac     BaseVSShader.obj
 0003:000011b0       ?is_signed@?$numeric_limits@E@std@@2_NB 101451b0     BaseVSShader.obj
 0003:000011b4       ?digits@?$numeric_limits@E@std@@2HB 101451b4     BaseVSShader.obj
 0003:000011b8       ?digits10@?$numeric_limits@E@std@@2HB 101451b8     BaseVSShader.obj
 0003:000011bc       ?max_digits10@?$numeric_limits@E@std@@2HB 101451bc     BaseVSShader.obj
 0003:000011c0       ?is_signed@?$numeric_limits@F@std@@2_NB 101451c0     BaseVSShader.obj
 0003:000011c4       ?digits@?$numeric_limits@F@std@@2HB 101451c4     BaseVSShader.obj
 0003:000011c8       ?digits10@?$numeric_limits@F@std@@2HB 101451c8     BaseVSShader.obj
 0003:000011cc       ?max_digits10@?$numeric_limits@F@std@@2HB 101451cc     BaseVSShader.obj
 0003:000011d0       ?is_signed@?$numeric_limits@G@std@@2_NB 101451d0     BaseVSShader.obj
 0003:000011d4       ?digits@?$numeric_limits@G@std@@2HB 101451d4     BaseVSShader.obj
 0003:000011d8       ?digits10@?$numeric_limits@G@std@@2HB 101451d8     BaseVSShader.obj
 0003:000011dc       ?max_digits10@?$numeric_limits@G@std@@2HB 101451dc     BaseVSShader.obj
 0003:000011e0       ?is_signed@?$numeric_limits@H@std@@2_NB 101451e0     BaseVSShader.obj
 0003:000011e4       ?digits@?$numeric_limits@H@std@@2HB 101451e4     BaseVSShader.obj
 0003:000011e8       ?digits10@?$numeric_limits@H@std@@2HB 101451e8     BaseVSShader.obj
 0003:000011ec       ?max_digits10@?$numeric_limits@H@std@@2HB 101451ec     BaseVSShader.obj
 0003:000011f0       ?is_signed@?$numeric_limits@I@std@@2_NB 101451f0     BaseVSShader.obj
 0003:000011f4       ?digits@?$numeric_limits@I@std@@2HB 101451f4     BaseVSShader.obj
 0003:000011f8       ?digits10@?$numeric_limits@I@std@@2HB 101451f8     BaseVSShader.obj
 0003:000011fc       ?max_digits10@?$numeric_limits@I@std@@2HB 101451fc     BaseVSShader.obj
 0003:00001200       ?is_signed@?$numeric_limits@J@std@@2_NB 10145200     BaseVSShader.obj
 0003:00001204       ?digits@?$numeric_limits@J@std@@2HB 10145204     BaseVSShader.obj
 0003:00001208       ?digits10@?$numeric_limits@J@std@@2HB 10145208     BaseVSShader.obj
 0003:0000120c       ?max_digits10@?$numeric_limits@J@std@@2HB 1014520c     BaseVSShader.obj
 0003:00001210       ?is_signed@?$numeric_limits@K@std@@2_NB 10145210     BaseVSShader.obj
 0003:00001214       ?digits@?$numeric_limits@K@std@@2HB 10145214     BaseVSShader.obj
 0003:00001218       ?digits10@?$numeric_limits@K@std@@2HB 10145218     BaseVSShader.obj
 0003:0000121c       ?max_digits10@?$numeric_limits@K@std@@2HB 1014521c     BaseVSShader.obj
 0003:00001220       ?is_signed@?$numeric_limits@_J@std@@2_NB 10145220     BaseVSShader.obj
 0003:00001224       ?digits@?$numeric_limits@_J@std@@2HB 10145224     BaseVSShader.obj
 0003:00001228       ?digits10@?$numeric_limits@_J@std@@2HB 10145228     BaseVSShader.obj
 0003:0000122c       ?max_digits10@?$numeric_limits@_J@std@@2HB 1014522c     BaseVSShader.obj
 0003:00001230       ?is_signed@?$numeric_limits@_K@std@@2_NB 10145230     BaseVSShader.obj
 0003:00001234       ?digits@?$numeric_limits@_K@std@@2HB 10145234     BaseVSShader.obj
 0003:00001238       ?digits10@?$numeric_limits@_K@std@@2HB 10145238     BaseVSShader.obj
 0003:0000123c       ?max_digits10@?$numeric_limits@_K@std@@2HB 1014523c     BaseVSShader.obj
 0003:00001240       ?digits@?$numeric_limits@M@std@@2HB 10145240     BaseVSShader.obj
 0003:00001244       ?digits10@?$numeric_limits@M@std@@2HB 10145244     BaseVSShader.obj
 0003:00001248       ?max_digits10@?$numeric_limits@M@std@@2HB 10145248     BaseVSShader.obj
 0003:0000124c       ?max_exponent@?$numeric_limits@M@std@@2HB 1014524c     BaseVSShader.obj
 0003:00001250       ?max_exponent10@?$numeric_limits@M@std@@2HB 10145250     BaseVSShader.obj
 0003:00001254       ?min_exponent@?$numeric_limits@M@std@@2HB 10145254     BaseVSShader.obj
 0003:00001258       ?min_exponent10@?$numeric_limits@M@std@@2HB 10145258     BaseVSShader.obj
 0003:0000125c       ?digits@?$numeric_limits@N@std@@2HB 1014525c     BaseVSShader.obj
 0003:00001260       ?digits10@?$numeric_limits@N@std@@2HB 10145260     BaseVSShader.obj
 0003:00001264       ?max_digits10@?$numeric_limits@N@std@@2HB 10145264     BaseVSShader.obj
 0003:00001268       ?max_exponent@?$numeric_limits@N@std@@2HB 10145268     BaseVSShader.obj
 0003:0000126c       ?max_exponent10@?$numeric_limits@N@std@@2HB 1014526c     BaseVSShader.obj
 0003:00001270       ?min_exponent@?$numeric_limits@N@std@@2HB 10145270     BaseVSShader.obj
 0003:00001274       ?min_exponent10@?$numeric_limits@N@std@@2HB 10145274     BaseVSShader.obj
 0003:00001278       ?digits@?$numeric_limits@O@std@@2HB 10145278     BaseVSShader.obj
 0003:0000127c       ?digits10@?$numeric_limits@O@std@@2HB 1014527c     BaseVSShader.obj
 0003:00001280       ?max_digits10@?$numeric_limits@O@std@@2HB 10145280     BaseVSShader.obj
 0003:00001284       ?max_exponent@?$numeric_limits@O@std@@2HB 10145284     BaseVSShader.obj
 0003:00001288       ?max_exponent10@?$numeric_limits@O@std@@2HB 10145288     BaseVSShader.obj
 0003:0000128c       ?min_exponent@?$numeric_limits@O@std@@2HB 1014528c     BaseVSShader.obj
 0003:00001290       ?min_exponent10@?$numeric_limits@O@std@@2HB 10145290     BaseVSShader.obj
 0003:00001294       ?INVALID_INDEX@?$CUtlMemory@PADH@@2HB 10145294     BaseVSShader.obj
 0003:00001298       ?INVALID_INDEX@?$CUtlMemory@EH@@2HB 10145298     BaseVSShader.obj
 0003:0000129c       ?INVALID_INDEX@?$CUtlMemory@P6AXPAVIConVar@@PBDM@ZH@@2HB 1014529c     BaseVSShader.obj
 0003:000012d0       ?INVALID_INDEX@?$CUtlMemory@U?$UtlRBTreeNode_t@PBDG@@G@@2GB 101452d0     BaseVSShader.obj
 0003:000012d4       ?INVALID_INDEX@?$CUtlMemory@GH@@2HB 101452d4     BaseVSShader.obj
 0003:000012d8       ?INVALID_INDEX@?$CUtlMemory@Uhash_item_t@CCountedStringPool@@H@@2HB 101452d8     BaseVSShader.obj
 0003:000012dc       ?INVALID_INDEX@?$CUtlMemory@U?$UtlRBTreeNode_t@VCStringPoolIndex@CUtlSymbolTable@@G@@G@@2GB 101452dc     BaseVSShader.obj
 0003:000012e0       ?INVALID_INDEX@?$CUtlMemory@PAUStringPool_t@CUtlSymbolTable@@H@@2HB 101452e0     BaseVSShader.obj
 0003:000012e4       ??_C@_0BN@GEEFLAF@Assertion?5Failed?3?5pPixelVar2?$AA@ 101452e4     BaseVSShader.obj
 0003:00001308       ??_C@_0BM@DKDJELMF@Assertion?5Failed?3?5pPixelVar?$AA@ 10145308     BaseVSShader.obj
 0003:0000132c       ??_C@_0O@JKDIAHDA@?$CFs?5?$CI?$CFd?$CJ?5?3?5?$CFs?6?$AA@ 1014532c     BaseVSShader.obj
 0003:00001340       ??_C@_0FC@CNGJNMKJ@c?3?2projects?2games?2swarm?9deferred@ 10145340     BaseVSShader.obj
 0003:000013a4       ??_C@_0CE@KCGJLJEJ@Assertion?5Failed?3?5?$CBIsSnapshottin@ 101453a4     BaseVSShader.obj
 0003:000013d0       ??_C@_0DP@BLPMKPCJ@c?3?2projects?2games?2swarm?9deferred@ 101453d0     BaseVSShader.obj
 0003:0000141c       ??_C@_0CG@GIEHDGD@Assertion?5Failed?3?5?$CIi?5?$DO?$DN?50?$CJ?5?$CG?$CG?5?$CIi@ 1014541c     BaseVSShader.obj
 0003:00001450       ??_C@_0EK@MJBJHBHD@c?3?2projects?2games?2swarm?9deferred@ 10145450     BaseVSShader.obj
 0003:000014a8       ??_C@_0DH@MCDMJMOL@Assertion?5Failed?3?5?$CI?5numcomps?5?$DO0?5@ 101454a8     BaseVSShader.obj
 0003:000014ec       __real@3f800000            101454ec     BaseVSShader.obj
 0003:000014f0       __real@3bff9724            101454f0     BaseVSShader.obj
 0003:000014f4       __real@3f7df3b6            101454f4     BaseVSShader.obj
 0003:000014f8       ??_C@_0BN@GHBMABHN@Assertion?5Failed?3?5pVertexVar?$AA@ 101454f8     BaseVSShader.obj
 0003:0000151c       __real@00000000            1014551c     BaseVSShader.obj
 0003:00001520       ??_C@_0BM@CIMBBINP@Assertion?5Failed?3?5IsValid?$CI?$CJ?$AA@ 10145520     BaseVSShader.obj
 0003:00001544       ??_C@_0DP@JELMFKIJ@c?3?2projects?2games?2swarm?9deferred@ 10145544     BaseVSShader.obj
 0003:00001590       ??_C@_0CG@CAJAPNB@Assertion?5Failed?3?5?$CIi?5?$DO?$DN?50?$CJ?5?$CG?$CG?5?$CIi@ 10145590     BaseVSShader.obj
 0003:000015c0       ??_C@_0DN@JHJELBH@c?3?2projects?2games?2swarm?9deferred@ 101455c0     BaseVSShader.obj
 0003:0000160c       ??_C@_0CG@DMLGFOG@Assertion?5Failed?3?5?$CIi?5?$DO?$DN?50?$CJ?5?$CG?$CG?5?$CIi@ 1014560c     BaseVSShader.obj
 0003:0000163c       __real@3f000000            1014563c     BaseVSShader.obj
 0003:00001640       __real@40000000            10145640     BaseVSShader.obj
 0003:00001644       __real@bf800000            10145644     BaseVSShader.obj
 0003:00001648       __real@3f19999a            10145648     BaseVSShader.obj
 0003:0000164c       __real@42000000            1014564c     BaseVSShader.obj
 0003:00001650       ??_C@_0BH@OCFDAJKO@depthtodestalpha_ps20b?$AA@ 10145650     BaseVSShader.obj
 0003:0000166c       ??_C@_0BG@MHIPEPBN@depthtodestalpha_vs20?$AA@ 1014566c     BaseVSShader.obj
 0003:00001688       __real@7f7fffff            10145688     BaseVSShader.obj
 0003:0000168c       ??_C@_0P@EDPJKOMO@mat_fullbright?$AA@ 1014568c     BaseVSShader.obj
 0003:000016a0       ??_C@_01GBGANLPD@0?$AA@    101456a0     BaseVSShader.obj
 0003:000016a4       ??_C@_0BH@EIBEHGOL@mat_envmaptintoverride?$AA@ 101456a4     BaseVSShader.obj
 0003:000016c0       ??_C@_02PGHGPEOM@?91?$AA@  101456c0     BaseVSShader.obj
 0003:000016c4       ??_C@_0BE@DKGLCCGK@mat_envmaptintscale?$AA@ 101456c4     BaseVSShader.obj
 0003:000016dc       ??_C@_0BA@HNOAMPCF@GAUSSIAN_BLUR_6?$AA@ 101456dc     blur.obj
 0003:000016ef       ??_C@_00CNPNBAHC@?$AA@     101456ef     blur.obj
 0003:000016f4       ?INVALID_INDEX@?$CUtlMemory@PAVCShaderParam@GAUSSIAN_BLUR_6@@H@@2HB 101456f4     blur.obj
 0003:000016f8       ??_C@_0DO@CGKEHBMP@c?3?2projects?2games?2swarm?9deferred@ 101456f8     blur.obj
 0003:00001744       ??_C@_0CB@DGGMDFC@Assertion?5Failed?3?5nGrowSize?5?$DO?$DN?50@ 10145744     blur.obj
 0003:0000176c       ??_C@_0CA@BLICLCJF@Assertion?5Failed?3?5?$CBIsReadOnly?$CI?$CJ?$AA@ 1014576c     blur.obj
 0003:00001794       ??_C@_0M@NCINKPCJ@$ISVERTICAL?$AA@ 10145794     blur.obj
 0003:000017a4       ??_C@_0DO@HOGOPAFE@c?3?2projects?2games?2swarm?9deferred@ 101457a4     blur.obj
 0003:000017f0       ??_C@_0FH@JOIFLHBI@Assertion?5Failed?3?5?$CIBase?$CI?$CJ?5?$DN?$DN?5NUL@ 101457f0     blur.obj
 0003:00001858       ??_C@_0DK@CFLODBPI@Assertion?5Failed?3?5?$CIelem?5?$DN?$DN?5Count@ 10145858     blur.obj
 0003:000018a0       ??_C@_0BN@NMAMMOEJ@Assertion?5Failed?3?5i?5?$DM?5m_Size?$AA@ 101458a0     blur.obj
 0003:000018c4       ??_C@_0CA@KGMIIJNG@Assertion?5Failed?3?5IsIdxValid?$CIi?$CJ?$AA@ 101458c4     blur.obj
 0003:000018f0       ??_C@_0EI@GDMBHICD@Assertion?5Failed?3?5IsValidIndex?$CIe@ 101458f0     blur.obj
 0003:00001948       ??_C@_0BM@ODKIHEMA@Assertion?5Failed?3?5m_pMemory?$AA@ 10145948     blur.obj
 0003:0000196c       ??_C@_0BE@FAIBBENA@Assertion?5Failed?3?50?$AA@ 1014596c     blur.obj
 0003:00001984       ??_C@_0BK@MCKPAAPK@Assertion?5Failed?3?5num?5?$DO?50?$AA@ 10145984     blur.obj
 0003:000019ac       ??_7CShader@GAUSSIAN_BLUR_6@@6B@ 101459ac     blur.obj
 0003:000019f8       ??_C@_0EK@LNDBMDLM@c?3?2projects?2games?2swarm?9deferred@ 101459f8     blur.obj
 0003:00001a50       ??_C@_0DF@BMKNOKAM@Assertion?5Failed?3?5params?$FL?5BASETE@ 10145a50     blur.obj
 0003:00001a90       __real@40800000            10145a90     blur.obj
 0003:00001a94       ??_C@_0BE@CMFBLPFG@gaussianblur_6_ps30?$AA@ 10145a94     blur.obj
 0003:00001aac       ??_C@_0BB@DDHMNDHA@screenspace_vs30?$AA@ 10145aac     blur.obj
 0003:00001ac4       ??_7CBaseVSShader@@6B@     10145ac4     blur.obj
 0003:00001b0c       ??_C@_0BE@GDIKMFPM@DEBUG_LIGHTING_CTRL?$AA@ 10145b0c     debug_lightingctrl.obj
 0003:00001b28       ?INVALID_INDEX@?$CUtlMemory@PAVCShaderParam@DEBUG_LIGHTING_CTRL@@H@@2HB 10145b28     debug_lightingctrl.obj
 0003:00001b34       ??_7CShader@DEBUG_LIGHTING_CTRL@@6B@ 10145b34     debug_lightingctrl.obj
 0003:00001b7c       ??_C@_0BJ@OOFDLNIL@debug_lighting_ctrl_ps30?$AA@ 10145b7c     debug_lightingctrl.obj
 0003:00001b9c       ??_C@_0BC@PMEMINIB@defconstruct_vs30?$AA@ 10145b9c     debug_lightingctrl.obj
 0003:00001bb4       ??_C@_0N@FJBEEMCH@SENDWORLDPOS?$AA@ 10145bb4     debug_lightingctrl.obj
 0003:00001bc4       ??_C@_0BN@JCCCKFAK@?6?5?5?5VS?5stat?5var?5?$CFs?5?$DN?5?$CFd?5?$CI?$CFs?$CJ?$AA@ 10145bc4     debug_lightingctrl.obj
 0003:00001be8       ??_C@_0BC@DEGIJMBN@USEWORLDTRANSFORM?$AA@ 10145be8     debug_lightingctrl.obj
 0003:00001c00       ??_C@_0FP@HNHGODOK@c?3?2projects?2games?2swarm?9deferred@ 10145c00     debug_lightingctrl.obj
 0003:00001c74       ??_C@_0CD@BFPGKPGF@Assertion?5Failed?3?5i?5?$DO?$DN?50?5?$CG?$CG?5i?5?$DM?$DN@ 10145c74     debug_lightingctrl.obj
 0003:00001ca0       ??_C@_0CI@COONOIIL@Assertion?5Failed?3?5bAllStaticVars@ 10145ca0     debug_lightingctrl.obj
 0003:00001cd0       ??_C@_0BF@IBBLNGJC@DEBUG_RADIOSITY_GRID?$AA@ 10145cd0     debug_radiosity_grid.obj
 0003:00001cf0       ?INVALID_INDEX@?$CUtlMemory@PAVCShaderParam@DEBUG_RADIOSITY_GRID@@H@@2HB 10145cf0     debug_radiosity_grid.obj
 0003:00001cfc       ??_7CShader@DEBUG_RADIOSITY_GRID@@6B@ 10145cfc     debug_radiosity_grid.obj
 0003:00001d44       ??_C@_0BK@BIIFAKBN@debug_radiosity_grid_ps30?$AA@ 10145d44     debug_radiosity_grid.obj
 0003:00001d64       ??_C@_0BK@JHMFPPLN@debug_radiosity_grid_vs30?$AA@ 10145d64     debug_radiosity_grid.obj
 0003:00001d88       ??_C@_0FA@KCHIPIDI@c?3?2projects?2games?2swarm?9deferred@ 10145d88     debug_radiosity_grid.obj
 0003:00001de8       ??_C@_0CK@JMOCICN@Assertion?5Failed?3?5index?5?$DO?$DN?50?5?$CG?$CG?5@ 10145de8     debug_radiosity_grid.obj
 0003:00001e1c       ??_C@_0N@MMHMCEPA@DEBUG_SHADOW?$AA@ 10145e1c     debug_shadow.obj
 0003:00001e30       ?INVALID_INDEX@?$CUtlMemory@PAVCShaderParam@DEBUG_SHADOW@@H@@2HB 10145e30     debug_shadow.obj
 0003:00001e3c       ??_7CShader@DEBUG_SHADOW@@6B@ 10145e3c     debug_shadow.obj
 0003:00001e84       ??_C@_0BI@LHFNJANB@debug_shadow_ortho_ps30?$AA@ 10145e84     debug_shadow.obj
 0003:00001ea0       ??_C@_0DJ@JKMGACLE@Assertion?5Failed?3?5index?5?$DO?$DN?50?5?$CG?$CG?5@ 10145ea0     debug_shadow.obj
 0003:00001ee4       ??_C@_0CD@KAMDOCOL@Assertion?5Failed?3?5vOther?4IsValid@ 10145ee4     debug_shadow.obj
 0003:00001f10       ??_C@_0DM@EKGOPLOG@Assertion?5Failed?3?5index?5?$DO?$DN?50?5?$CG?$CG?5@ 10145f10     debug_shadow.obj
 0003:00001f58       ??_C@_0P@MDKPEJCF@DEFERRED_BRUSH?$AA@ 10145f58     deferred_brush.obj
 0003:00001f70       ?INVALID_INDEX@?$CUtlMemory@PAVCShaderParam@DEFERRED_BRUSH@@H@@2HB 10145f70     deferred_brush.obj
 0003:00001f74       ??_C@_08PFPGNHEE@$BUMPMAP?$AA@ 10145f74     deferred_brush.obj
 0003:00001f80       ??_C@_07GDNPHCDH@$SSBUMP?$AA@ 10145f80     deferred_brush.obj
 0003:00001f8c       ??_C@_08PFJMIPHP@$LITFACE?$AA@ 10145f8c     deferred_brush.obj
 0003:00001f98       ??_C@_0N@BOPHEENG@$PHONG_SCALE?$AA@ 10145f98     deferred_brush.obj
 0003:00001fa8       ??_C@_0L@EGCKKDOJ@$PHONG_EXP?$AA@ 10145fa8     deferred_brush.obj
 0003:00001fb8       ??_C@_0M@DEOACEAO@$PHONG_EXP2?$AA@ 10145fb8     deferred_brush.obj
 0003:00001fc8       ??_C@_0L@JAGJBDPJ@$PHONG_MAP?$AA@ 10145fc8     deferred_brush.obj
 0003:00001fd8       ??_C@_0P@NHJMNLLE@$PHONG_FRESNEL?$AA@ 10145fd8     deferred_brush.obj
 0003:00001fec       ??_C@_0P@KPGJKCOD@$FRESNELRANGES?$AA@ 10145fec     deferred_brush.obj
 0003:00002000       ??_C@_0BE@GEDBJHGM@$ALPHATESTREFERENCE?$AA@ 10146000     deferred_brush.obj
 0003:00002018       ??_C@_07NBEOHNNA@$ENVMAP?$AA@ 10146018     deferred_brush.obj
 0003:00002024       ??_C@_0BK@PAPJFBHL@shadertest?1shadertest_env?$AA@ 10146024     deferred_brush.obj
 0003:00002044       ??_C@_06FABHMPLJ@envmap?$AA@ 10146044     deferred_brush.obj
 0003:0000204c       ??_C@_0M@GKAPIEHF@$ENVMAPTINT?$AA@ 1014604c     deferred_brush.obj
 0003:0000205c       ??_C@_07INOGPGGA@?$FL1?51?51?$FN?$AA@ 1014605c     deferred_brush.obj
 0003:00002068       ??_C@_0M@NEOBNNPM@envmap?5tint?$AA@ 10146068     deferred_brush.obj
 0003:00002078       ??_C@_0BA@EPLKPKAO@$ENVMAPCONTRAST?$AA@ 10146078     deferred_brush.obj
 0003:0000208c       ??_C@_03MDAFIFFL@0?40?$AA@ 1014608c     deferred_brush.obj
 0003:00002090       ??_C@_0CG@CIFJOHKP@contrast?50?5?$DN?$DN?5normal?51?5?$DN?$DN?5color?$CK@ 10146090     deferred_brush.obj
 0003:000020c0       ??_C@_0BC@IDPPLOBL@$ENVMAPSATURATION?$AA@ 101460c0     deferred_brush.obj
 0003:000020d8       ??_C@_03HLLJOCDO@1?40?$AA@ 101460d8     deferred_brush.obj
 0003:000020dc       ??_C@_0CG@MHHCDKGK@saturation?50?5?$DN?$DN?5greyscale?51?5?$DN?$DN?5n@ 101460dc     deferred_brush.obj
 0003:0000210c       ??_C@_0M@BLOPGHNE@$ENVMAPMASK?$AA@ 1014610c     deferred_brush.obj
 0003:0000211c       ??_C@_0BO@JLAFIMAN@shadertest?1shadertest_envmask?$AA@ 1014611c     deferred_brush.obj
 0003:00002140       ??_C@_0M@KFABDOFN@envmap?5mask?$AA@ 10146140     deferred_brush.obj
 0003:00002150       ??_C@_0P@LDIFNAJJ@$SELFILLUMTINT?$AA@ 10146150     deferred_brush.obj
 0003:00002164       ??_C@_0BH@DBOPOPED@Self?9illumination?5tint?$AA@ 10146164     deferred_brush.obj
 0003:00002180       ??_C@_0BM@EFKJOJDH@$SELFILLUM_ENVMAPMASK_ALPHA?$AA@ 10146180     deferred_brush.obj
 0003:000021a4       ??_C@_0DM@OEILIDHN@defines?5that?5self?5illum?5value?5co@ 101461a4     deferred_brush.obj
 0003:000021ec       ??_C@_0BC@DMNOIDOB@$SELFILLUMFRESNEL?$AA@ 101461ec     deferred_brush.obj
 0003:00002204       ??_C@_0BD@LKKACLAB@Self?5illum?5fresnel?$AA@ 10146204     deferred_brush.obj
 0003:0000221c       ??_C@_0P@MCGFDDDI@$SELFILLUMMASK?$AA@ 1014621c     deferred_brush.obj
 0003:00002230       ??_C@_0BH@JAMKOLPG@shadertest?1BaseTexture?$AA@ 10146230     deferred_brush.obj
 0003:00002250       ??_C@_0EL@ILCJJFMK@If?5we?5bind?5a?5texture?5here?0?5it?5ov@ 10146250     deferred_brush.obj
 0003:000022ac       ??_C@_0O@NGGEHEEP@$BASETEXTURE2?$AA@ 101462ac     deferred_brush.obj
 0003:000022bc       ??_C@_09JMDECHCP@$BUMPMAP2?$AA@ 101462bc     deferred_brush.obj
 0003:000022c8       ??_C@_0N@GMNFKNNL@$ENVMAPMASK2?$AA@ 101462c8     deferred_brush.obj
 0003:000022d8       ??_C@_0BG@IMDJIJHP@$BLENDMODULATETEXTURE?$AA@ 101462d8     deferred_brush.obj
 0003:000022f4       ??_C@_0DA@LMGJHLKK@texture?5to?5use?5r?1g?5channels?5for?5@ 101462f4     deferred_brush.obj
 0003:00002330       ??_C@_0BE@FNNNKFKP@$BLENDMASKTRANSFORM?$AA@ 10146330     deferred_brush.obj
 0003:00002348       ??_C@_0CO@CGOPOACG@center?5?45?5?45?5scale?51?51?5rotate?50?5@ 10146348     deferred_brush.obj
 0003:00002380       ??_C@_0CJ@COBOOGPN@$blendmodulatetexture?5texcoord?5t@ 10146380     deferred_brush.obj
 0003:000023b4       ??_C@_0M@HIONGBJN@$MULTIBLEND?$AA@ 101463b4     deferred_brush.obj
 0003:000023c4       ??_C@_0O@MPHPEFAO@$BASETEXTURE3?$AA@ 101463c4     deferred_brush.obj
 0003:000023d4       ??_C@_0O@IADONDMJ@$BASETEXTURE4?$AA@ 101463d4     deferred_brush.obj
 0003:000023e4       ??_C@_09IFCPBGGO@$BUMPMAP3?$AA@ 101463e4     deferred_brush.obj
 0003:000023f0       ??_C@_09MKGOIAKJ@$BUMPMAP4?$AA@ 101463f0     deferred_brush.obj
 0003:000023fc       ??_C@_0BH@CNEGABFF@$BLENDMODULATETEXTURE2?$AA@ 101463fc     deferred_brush.obj
 0003:00002418       ??_C@_0BH@DEFNDABE@$BLENDMODULATETEXTURE3?$AA@ 10146418     deferred_brush.obj
 0003:00002434       ??_C@_0BF@KLEEDHKN@$BLENDMASKTRANSFORM2?$AA@ 10146434     deferred_brush.obj
 0003:00002450       ??_C@_0BF@LCFPAGOM@$BLENDMASKTRANSFORM3?$AA@ 10146450     deferred_brush.obj
 0003:00002474       ??_7CShader@DEFERRED_BRUSH@@6B@ 10146474     deferred_brush.obj
 0003:000024bc       ??_C@_0BD@FHIKDCGP@LightmappedGeneric?$AA@ 101464bc     deferred_brush.obj
 0003:000024d4       ??_C@_0L@EENFMOFI@MultiBlend?$AA@ 101464d4     deferred_brush.obj
 0003:000024e8       ??_C@_0FO@IOEEICJC@Assertion?5Failed?3?5pShaderAPI?5?$DN?$DN?5@ 101464e8     deferred_brush.obj
 0003:00002558       ??_C@_0FE@KAFCHLHE@c?3?2projects?2games?2swarm?9deferred@ 10146558     deferred_brush.obj
 0003:000025c0       ??_7CDeferredPerMaterialContextData@@6B@ 101465c0     deferred_brush.obj
 0003:000025cc       ??_7CBasePerMaterialContextData@@6B@ 101465cc     deferred_brush.obj
 0003:000025d4       ??_C@_0P@DOOLICPP@DEFERRED_MODEL?$AA@ 101465d4     deferred_model.obj
 0003:000025ec       ?INVALID_INDEX@?$CUtlMemory@PAVCShaderParam@DEFERRED_MODEL@@H@@2HB 101465ec     deferred_model.obj
 0003:000025f0       ??_C@_03LOHCHBBO@0?45?$AA@ 101465f0     deferred_model.obj
 0003:000025f4       ??_C@_0P@EPJMFIJC@$ENVMAPFRESNEL?$AA@ 101465f4     deferred_model.obj
 0003:00002608       ??_C@_09JOINEECP@$RIMLIGHT?$AA@ 10146608     deferred_model.obj
 0003:00002614       ??_C@_0BF@BFOOEHP@enables?5rim?5lighting?$AA@ 10146614     deferred_model.obj
 0003:00002630       ??_C@_0BC@HMMNDGGP@$RIMLIGHTEXPONENT?$AA@ 10146630     deferred_model.obj
 0003:00002648       ??_C@_03EMGHBCAM@4?40?$AA@ 10146648     deferred_model.obj
 0003:0000264c       ??_C@_0BI@ILNFICKJ@Exponent?5for?5rim?5lights?$AA@ 1014664c     deferred_model.obj
 0003:00002668       ??_C@_0BF@LAABNIJ@$RIMLIGHTALBEDOSCALE?$AA@ 10146668     deferred_model.obj
 0003:00002684       ??_C@_0BO@LCOBGEOD@Albedo?5influence?5on?5rim?5light?$AA@ 10146684     deferred_model.obj
 0003:000026a8       ??_C@_0O@JJAEIEBH@$RIMLIGHTTINT?$AA@ 101466a8     deferred_model.obj
 0003:000026b8       ??_C@_0BE@GGCGFFDO@Tint?5for?5rim?5lights?$AA@ 101466b8     deferred_model.obj
 0003:000026d0       ??_C@_0BM@IAGOGHJF@$RIMLIGHT_MODULATE_BY_LIGHT?$AA@ 101466d0     deferred_model.obj
 0003:000026f4       ??_C@_0BP@EMFNPGAG@Modulate?5rimlight?5by?5lighting?4?$AA@ 101466f4     deferred_model.obj
 0003:00002724       ??_7CShader@DEFERRED_MODEL@@6B@ 10146724     deferred_model.obj
 0003:0000276c       ??_C@_0BB@HPMBPLJH@VertexlitGeneric?$AA@ 1014676c     deferred_model.obj
 0003:00002780       ??_C@_0FE@CDFIFPII@c?3?2projects?2games?2swarm?9deferred@ 10146780     deferred_model.obj
 0003:000027e8       ??_C@_0BK@EJIGOHLE@deferred_radiosity_enable?$AA@ 101467e8     deferred_utility.obj
 0003:00002808       ??_C@_01HIHLOKLC@1?$AA@    10146808     deferred_utility.obj
 0003:0000280c       ??_C@_0BO@DKKIBBEF@deferred_radiosity_multiplier?$AA@ 1014680c     deferred_utility.obj
 0003:00002830       ??_C@_03KHGJEAFP@0?44?$AA@ 10146830     deferred_utility.obj
 0003:00002838       __real@3e99999a            10146838     defpass_composite.obj
 0003:0000283c       ??_C@_0BN@FGLLJJBP@?6?5?5?5PS?5dyn?5?5var?5?$CFs?5?$DN?5?$CFd?5?$CI?$CFs?$CJ?$AA@ 1014683c     defpass_composite.obj
 0003:00002860       ??_C@_0N@DELELAG@PIXELFOGTYPE?$AA@ 10146860     defpass_composite.obj
 0003:00002870       ??_C@_0BP@JLAOKCDG@pShaderAPI?9?$DOGetPixelFogCombo?$CI?$CJ?$AA@ 10146870     defpass_composite.obj
 0003:00002898       ??_C@_08DFPBFCBO@MORPHING?$AA@ 10146898     defpass_composite.obj
 0003:000028a4       ??_C@_0DG@DBPIPLNG@?$CIbModel?5?$CG?$CG?5pShaderAPI?9?$DOIsHWMorph@ 101468a4     defpass_composite.obj
 0003:000028e4       ??_C@_08GPMJLHI@SKINNING?$AA@ 101468e4     defpass_composite.obj
 0003:000028f0       ??_C@_0DJ@BACNMNGE@?$CIbModel?5?$CG?$CG?5pShaderAPI?9?$DOGetCurren@ 101468f0     defpass_composite.obj
 0003:00002934       ??_C@_0BN@DNGAPFLJ@?6?5?5?5VS?5dyn?5?5var?5?$CFs?5?$DN?5?$CFd?5?$CI?$CFs?$CJ?$AA@ 10146934     defpass_composite.obj
 0003:00002958       ??_C@_0BB@MGGDMHKK@COMPRESSED_VERTS?$AA@ 10146958     defpass_composite.obj
 0003:0000296c       ??_C@_0CL@LECLDCNL@?$CIbModel?5?$CG?$CG?5?$CIint?$CJvertexCompressio@ 1014696c     defpass_composite.obj
 0003:000029a0       ??_C@_0DF@NBADDFEJ@Assertion?5Failed?3?5PARM_DEFINED?$CI?5@ 101469a0     defpass_composite.obj
 0003:000029e0       ??_C@_0CL@FOIKFOHJ@Assertion?5Failed?3?5pDeferredConte@ 101469e0     defpass_composite.obj
 0003:00002a14       ??_C@_0P@JHFOHMJO@composite_ps30?$AA@ 10146a14     defpass_composite.obj
 0003:00002a28       ??_C@_0BH@MKPDKDLC@SELFILLUM_ENVMAP_ALPHA?$AA@ 10146a28     defpass_composite.obj
 0003:00002a44       ??_C@_0BL@HKGEMNFI@bSelfIllumMaskInEnvmapMask?$AA@ 10146a44     defpass_composite.obj
 0003:00002a64       ??_C@_0P@KAOABHGG@SELFILLUM_MASK?$AA@ 10146a64     defpass_composite.obj
 0003:00002a78       ??_C@_0P@LJNKJCEO@bSelfIllumMask?$AA@ 10146a78     defpass_composite.obj
 0003:00002a8c       ??_C@_09MIIMKPBB@SELFILLUM?$AA@ 10146a8c     defpass_composite.obj
 0003:00002a98       ??_C@_0L@DADJGCGD@bSelfIllum?$AA@ 10146a98     defpass_composite.obj
 0003:00002aa8       ??_C@_0BG@ELKKFHPE@RIMLIGHTMODULATELIGHT?$AA@ 10146aa8     defpass_composite.obj
 0003:00002ac4       ??_C@_0BC@LLOCCKB@bRimLightModLight?$AA@ 10146ac4     defpass_composite.obj
 0003:00002adc       ??_C@_08NNLIJLFN@RIMLIGHT?$AA@ 10146adc     defpass_composite.obj
 0003:00002ae8       ??_C@_09PHNIIKHK@bRimLight?$AA@ 10146ae8     defpass_composite.obj
 0003:00002af4       ??_C@_0N@JKJGIGOK@PHONGFRESNEL?$AA@ 10146af4     defpass_composite.obj
 0003:00002b04       ??_C@_0O@HOMAPJKF@bPhongFresnel?$AA@ 10146b04     defpass_composite.obj
 0003:00002b14       ??_C@_0O@ELENHJEP@ENVMAPFRESNEL?$AA@ 10146b14     defpass_composite.obj
 0003:00002b24       ??_C@_0P@EDMJLHGG@bEnvmapFresnel?$AA@ 10146b24     defpass_composite.obj
 0003:00002b38       ??_C@_0L@BAIKPANA@ENVMAPMASK?$AA@ 10146b38     defpass_composite.obj
 0003:00002b48       ??_C@_0M@DFIBGHDH@bEnvmapMask?$AA@ 10146b48     defpass_composite.obj
 0003:00002b58       ??_C@_06FEDMBBGL@ENVMAP?$AA@ 10146b58     defpass_composite.obj
 0003:00002b60       ??_C@_07PFCKFBPE@bEnvmap?$AA@ 10146b60     defpass_composite.obj
 0003:00002b6c       ??_C@_06EOGFDPLI@NOCULL?$AA@ 10146b6c     defpass_composite.obj
 0003:00002b74       ??_C@_07COLCFACD@bNoCull?$AA@ 10146b74     defpass_composite.obj
 0003:00002b80       ??_C@_0L@EEAEHAGJ@READNORMAL?$AA@ 10146b80     defpass_composite.obj
 0003:00002b90       ??_C@_0P@DMFEFHHD@bGBufferNormal?$AA@ 10146b90     defpass_composite.obj
 0003:00002ba4       ??_C@_0M@OPKGEIGN@TRANSLUCENT?$AA@ 10146ba4     defpass_composite.obj
 0003:00002bb4       ??_C@_0N@EDMFBFLF@bTranslucent?$AA@ 10146bb4     defpass_composite.obj
 0003:00002bc4       ??_C@_0BN@PJPJMJKM@?6?5?5?5PS?5stat?5var?5?$CFs?5?$DN?5?$CFd?5?$CI?$CFs?$CJ?$AA@ 10146bc4     defpass_composite.obj
 0003:00002be8       ??_C@_09GCBJNDKI@ALPHATEST?$AA@ 10146be8     defpass_composite.obj
 0003:00002bf4       ??_C@_0L@JNAABLOM@bAlphatest?$AA@ 10146bf4     defpass_composite.obj
 0003:00002c04       ??_C@_0P@BIBOIJDO@composite_vs30?$AA@ 10146c04     defpass_composite.obj
 0003:00002c18       ??_C@_0L@HDIIPGJJ@MULTIBLEND?$AA@ 10146c18     defpass_composite.obj
 0003:00002c28       ??_C@_0M@JAOOELEM@bMultiBlend?$AA@ 10146c28     defpass_composite.obj
 0003:00002c38       ??_C@_0O@HJHMIDOE@BLENDMODULATE?$AA@ 10146c38     defpass_composite.obj
 0003:00002c48       ??_C@_0P@IIIOCPJL@bBlendmodulate?$AA@ 10146c48     defpass_composite.obj
 0003:00002c5c       ??_C@_0N@NMGDLMMJ@BASETEXTURE2?$AA@ 10146c5c     defpass_composite.obj
 0003:00002c6c       ??_C@_0BJ@OHFMDHGJ@bAlbedo2?5?$CG?$CG?5?$CBbMultiBlend?$AA@ 10146c6c     defpass_composite.obj
 0003:00002c8c       ??_C@_06IMFBPHMK@EYEVEC?$AA@ 10146c8c     defpass_composite.obj
 0003:00002c94       ??_C@_0N@IMMHBBHK@bWorldEyeVec?$AA@ 10146c94     defpass_composite.obj
 0003:00002ca4       ??_C@_05OONCNBDC@DECAL?$AA@ 10146ca4     defpass_composite.obj
 0003:00002cac       ??_C@_0BD@GMHLPBIM@bModel?5?$CG?$CG?5bIsDecal?$AA@ 10146cac     defpass_composite.obj
 0003:00002cc4       ??_C@_0O@KCDELFFA@MORPHING_VTEX?$AA@ 10146cc4     defpass_composite.obj
 0003:00002cd4       ??_C@_0BE@OGAIPAIL@bModel?5?$CG?$CG?5bFastVTex?$AA@ 10146cd4     defpass_composite.obj
 0003:00002cec       ??_C@_05BJLDAIDO@MODEL?$AA@ 10146cec     defpass_composite.obj
 0003:00002cf4       ??_C@_06OFAOMJFH@bModel?$AA@ 10146cf4     defpass_composite.obj
 0003:00002d00       ??_C@_0FP@MNIGOFNN@Multiblend?5forced?5off?5due?5to?5inv@ 10146d00     defpass_composite.obj
 0003:00002d78       ??_C@_0FN@PJOCGKMM@Can?8t?5use?5separate?5selfillum?5mas@ 10146d78     defpass_composite.obj
 0003:00002de8       ??_C@_0DJ@EBBAGABH@Normal?5map?5sampling?5should?5stay?5@ 10146de8     defpass_composite.obj
 0003:00002e30       ??_C@_0FH@OGPOIIK@c?3?2projects?2games?2swarm?9deferred@ 10146e30     defpass_composite.obj
 0003:00002e98       ??_C@_0CO@DNNKDMB@blended?5albedo?5not?5supported?5by?5@ 10146e98     defpass_composite.obj
 0003:00002ed0       ??_C@_0FE@NEFDHLOP@c?3?2projects?2games?2swarm?9deferred@ 10146ed0     defpass_composite.obj
 0003:00002f34       ??_C@_0CE@BIJIPPLL@Assertion?5Failed?3?5m_iAllocated?5?$DO@ 10146f34     defpass_composite.obj
 0003:00002f60       ??_C@_0CL@KOBHKGBL@Assertion?5Failed?3?5m_iAllocated?5?$DO@ 10146f60     defpass_composite.obj
 0003:00002f98       ??_C@_0FM@HKCAGCIH@c?3?2projects?2games?2swarm?9deferred@ 10146f98     defpass_composite.obj
 0003:00003008       ??_C@_0CJ@KKFFBHBC@Assertion?5Failed?3?5bAllDynamicVar@ 10147008     defpass_composite.obj
 0003:00003040       ??_C@_0FM@JDKBLAN@c?3?2projects?2games?2swarm?9deferred@ 10147040     defpass_composite.obj
 0003:000030b0       ??_C@_0FC@NCKIBFOE@c?3?2projects?2games?2swarm?9deferred@ 101470b0     defpass_composite.obj
 0003:00003114       ??_C@_0CN@FHGCGLNF@Assertion?5Failed?3?5m_nNumBytesRem@ 10147114     defpass_composite.obj
 0003:0000314c       ??_C@_0BC@JCABGPGD@building_cubemaps?$AA@ 1014714c     defpass_composite.obj
 0003:00003168       __real@3e19999a            10147168     defpass_gbuffer.obj
 0003:0000316c       ??_C@_0DC@GLOEPGNC@Assertion?5Failed?3?5PARM_DEFINED?$CI?5@ 1014716c     defpass_gbuffer.obj
 0003:000031a8       __real@427c0000            101471a8     defpass_gbuffer.obj
 0003:000031ac       ??_C@_0N@FMIALCDM@gbuffer_ps30?$AA@ 101471ac     defpass_gbuffer.obj
 0003:000031bc       ??_C@_08FOIDKDOJ@PHONGMAP?$AA@ 101471bc     defpass_gbuffer.obj
 0003:000031c8       ??_C@_09HDEPLHPI@bPhongmap?$AA@ 101471c8     defpass_gbuffer.obj
 0003:000031d4       ??_C@_07KJMAMPCM@BUMPMAP?$AA@ 101471d4     defpass_gbuffer.obj
 0003:000031e0       ??_C@_0BP@FMPBKNFI@bBumpmap?5?$DP?5bSSBump?5?$DP?52?5?3?51?5?3?50?$AA@ 101471e0     defpass_gbuffer.obj
 0003:00003208       ??_C@_0N@NDMAEHJM@gbuffer_vs30?$AA@ 10147208     defpass_gbuffer.obj
 0003:00003218       ??_C@_0BA@IMBNLCIA@bMultiBlendBump?$AA@ 10147218     defpass_gbuffer.obj
 0003:0000322c       ??_C@_08NPABPIFN@BUMPMAP2?$AA@ 1014722c     defpass_gbuffer.obj
 0003:00003238       ??_C@_0BK@OFNOFHFF@bBumpmap2?5?$CG?$CG?5?$CBbMultiBlend?$AA@ 10147238     defpass_gbuffer.obj
 0003:00003258       ??_C@_0N@HLNNGIBF@TANGENTSPACE?$AA@ 10147258     defpass_gbuffer.obj
 0003:00003268       ??_C@_08FMFFHDBL@bBumpmap?$AA@ 10147268     defpass_gbuffer.obj
 0003:00003278       ??_C@_0FF@DKGHEIDG@c?3?2projects?2games?2swarm?9deferred@ 10147278     defpass_gbuffer.obj
 0003:000032e0       ??_C@_0BM@EFANPLOF@Assertion?5Failed?3?5?$CBbIsDecal?$AA@ 101472e0     defpass_gbuffer.obj
 0003:00003308       ??_C@_0FK@HMOIGDGA@c?3?2projects?2games?2swarm?9deferred@ 10147308     defpass_gbuffer.obj
 0003:00003378       ??_C@_0FK@PPCBKOK@c?3?2projects?2games?2swarm?9deferred@ 10147378     defpass_gbuffer.obj
 0003:000033e4       ??_C@_0CD@DONLPMKG@Assertion?5Failed?3?5i?5?$DO?$DN?50?5?$CG?$CG?5i?5?$DM?$DN@ 101473e4     defpass_gbuffer.obj
 0003:00003410       __real@437f0000            10147410     defpass_gbuffer.obj
 0003:00003414       __real@437c0000            10147414     defpass_gbuffer.obj
 0003:00003418       __real@43800000            10147418     defpass_gbuffer.obj
 0003:0000341c       ??_C@_0N@MAHGGFGK@test_packing?$AA@ 1014741c     defpass_gbuffer.obj
 0003:0000342c       ??_C@_0P@KANIJPDK@packed?5to?3?5?$CFu?6?$AA@ 1014742c     defpass_gbuffer.obj
 0003:00003440       ??_C@_0P@CMEPHLPA@test_unpacking?$AA@ 10147440     defpass_gbuffer.obj
 0003:00003454       ??_C@_0CL@ECNAMEG@unpacked?5to?3?5exp?5?$CFf?0?5halfl?5?$CFf?0?5l@ 10147454     defpass_gbuffer.obj
 0003:0000348c       ??_C@_09HDFEFAGB@RADIOSITY?$AA@ 1014748c     defpass_shadow.obj
 0003:00003498       ??_C@_0BA@DFFMPFDE@radiosityOutput?$AA@ 10147498     defpass_shadow.obj
 0003:000034ac       ??_C@_0M@CDNMIAMG@SHADOW_MODE?$AA@ 101474ac     defpass_shadow.obj
 0003:000034bc       ??_C@_0L@NBJKIDAF@shadowMode?$AA@ 101474bc     defpass_shadow.obj
 0003:000034d0       ??_C@_0FE@GJGDODJN@c?3?2projects?2games?2swarm?9deferred@ 101474d0     defpass_shadow.obj
 0003:00003534       ??_C@_0BA@PMPPCEKE@shadowpass_ps30?$AA@ 10147534     defpass_shadow.obj
 0003:00003548       ??_C@_0BA@HDLPNBAE@shadowpass_vs30?$AA@ 10147548     defpass_shadow.obj
 0003:0000355c       ??_C@_0N@EEJKIHIP@MULTITEXTURE?$AA@ 1014755c     defpass_shadow.obj
 0003:0000356c       ??_C@_0CI@JOPLEDJF@bMultiBlend?5?$DP?52?5?3?5bBaseTexture2?5@ 1014756c     defpass_shadow.obj
 0003:0000359c       ??_C@_0CN@ELHEKAHJ@Assertion?5Failed?3?5a?4IsValid?$CI?$CJ?5?$CG?$CG@ 1014759c     defpass_shadow.obj
 0003:000035d4       ??_C@_0DI@FPCHHAMA@Assertion?5Failed?3?5index?5?$DO?$DN?50?5?$CG?$CG?5@ 101475d4     defpass_shadow.obj
 0003:00003618       ??_C@_0FN@MMJHPGKE@c?3?2projects?2games?2swarm?9deferred@ 10147618     defpass_shadow.obj
 0003:00003688       ??_C@_0FN@LPINIPCO@c?3?2projects?2games?2swarm?9deferred@ 10147688     defpass_shadow.obj
 0003:00003704       ??_7CDeferredExtension@@6B@ 10147704     IDeferredExt.obj
 0003:00003774       ??_7IDeferredExtension@@6B@ 10147774     IDeferredExt.obj
 0003:000037e4       ??_7IBaseInterface@@6B@    101477e4     IDeferredExt.obj
 0003:000037f0       ??_C@_0FC@IDGPCAK@c?3?2projects?2games?2swarm?9deferred@ 101477f0     IDeferredExt.obj
 0003:00003854       ??_C@_0DG@DFKELFND@Assertion?5Failed?3?5index?5?$DO?$DN?50?5?$CG?$CG?5@ 10147854     IDeferredExt.obj
 0003:00003894       ??_C@_0DJ@HNFOEGDL@Assertion?5Failed?3?5index?5?$DO?$DN?50?5?$CG?$CG?5@ 10147894     IDeferredExt.obj
 0003:000038d8       ??_C@_0BM@KPJOJDDC@DeferredExtensionVersion001?$AA@ 101478d8     IDeferredExt.obj
 0003:000038fc       ??_C@_0BA@POIJCFOD@LIGHTING_GLOBAL?$AA@ 101478fc     lighting_global.obj
 0003:00003914       ?INVALID_INDEX@?$CUtlMemory@PAVCShaderParam@LIGHTING_GLOBAL@@H@@2HB 10147914     lighting_global.obj
 0003:0000391c       ??_7CShader@LIGHTING_GLOBAL@@6B@ 1014791c     lighting_global.obj
 0003:00003964       ??_C@_0L@EALNICCI@HAS_SHADOW?$AA@ 10147964     lighting_global.obj
 0003:00003974       ??_C@_0N@OAGMLKIC@data?4bShadow?$AA@ 10147974     lighting_global.obj
 0003:00003988       ??_C@_0FF@DHPECEIG@c?3?2projects?2games?2swarm?9deferred@ 10147988     lighting_global.obj
 0003:000039f0       ??_C@_0BN@DKKCJOCK@I?5shouldn?8t?5be?5drawn?5at?5all?4?$AA@ 101479f0     lighting_global.obj
 0003:00003a14       ??_C@_0BJ@DLCEIJI@lightingpass_global_ps30?$AA@ 10147a14     lighting_global.obj
 0003:00003a34       ??_C@_0CN@LKGFFIAF@Assertion?5Failed?3?5a?4IsValid?$CI?$CJ?5?$CG?$CG@ 10147a34     lighting_global.obj
 0003:00003a70       ??_C@_0GG@OAKJDCEL@c?3?2projects?2games?2swarm?9deferred@ 10147a70     lighting_global.obj
 0003:00003af0       ??_C@_0L@EJCKMAPM@NUM_SIMPLE?$AA@ 10147af0     lighting_pass_basic.obj
 0003:00003b00       ??_C@_0CC@POEBNEJ@pExt?9?$DOGetNumActiveLights_Simple?$CI@ 10147b00     lighting_pass_basic.obj
 0003:00003b28       ??_C@_0L@DLOPODK@NUM_COOKIE?$AA@ 10147b28     lighting_pass_basic.obj
 0003:00003b38       ??_C@_0M@MMKMGIPP@iNumCookied?$AA@ 10147b38     lighting_pass_basic.obj
 0003:00003b48       ??_C@_0N@OPNECPKC@NUM_SHADOWED?$AA@ 10147b48     lighting_pass_basic.obj
 0003:00003b58       ??_C@_0N@FPKBGPCF@iNumShadowed?$AA@ 10147b58     lighting_pass_basic.obj
 0003:00003b68       ??_C@_0BE@LHLPNGMP@NUM_SHADOWED_COOKIE?$AA@ 10147b68     lighting_pass_basic.obj
 0003:00003b80       ??_C@_0BE@HOABBPFG@iNumShadowedCookied?$AA@ 10147b80     lighting_pass_basic.obj
 0003:00003b98       ??_C@_0DK@FDDPBJD@Assertion?5Failed?3?5pExt?9?$DOGetActiv@ 10147b98     lighting_pass_basic.obj
 0003:00003be0       ??_C@_0FJ@KMGPAEID@c?3?2projects?2games?2swarm?9deferred@ 10147be0     lighting_pass_basic.obj
 0003:00003c4c       ??_C@_0DF@LAGJHDPF@Assertion?5Failed?3?5pExt?9?$DOGetActiv@ 10147c4c     lighting_pass_basic.obj
 0003:00003c8c       ??_C@_0BH@HGNBOMCE@lightingpass_spot_ps30?$AA@ 10147c8c     lighting_pass_basic.obj
 0003:00003ca8       ??_C@_0BI@NHKHKNPC@lightingpass_point_ps30?$AA@ 10147ca8     lighting_pass_basic.obj
 0003:00003cc4       ??_C@_0BJ@KLGBGHDD@bWorldProjection?5?$DP?51?5?3?50?$AA@ 10147cc4     lighting_pass_basic.obj
 0003:00003ce8       ??_C@_0GF@IKECHPGB@c?3?2projects?2games?2swarm?9deferred@ 10147ce8     lighting_pass_basic.obj
 0003:00003d64       ??_C@_0CD@CHMAMNOH@Assertion?5Failed?3?5i?5?$DO?$DN?50?5?$CG?$CG?5i?5?$DM?$DN@ 10147d64     lighting_pass_basic.obj
 0003:00003d90       ??_C@_0CE@OCILFFIL@Assertion?5Failed?3?5i?5?$DO?$DN?50?5?$CG?$CG?5i?5?$DM?$DN@ 10147d90     lighting_pass_basic.obj
 0003:00003dc0       ??_C@_0GE@HAGIEGKM@c?3?2projects?2games?2swarm?9deferred@ 10147dc0     lighting_pass_basic.obj
 0003:00003e40       ??_C@_0EG@FLAMBCAB@Assertion?5Failed?3?5iNumShadowed?5?$DM@ 10147e40     lighting_pass_volum.obj
 0003:00003e98       ??_C@_0FE@JHPCKPKC@Assertion?5Failed?3?5iNumShadowedCo@ 10147e98     lighting_pass_volum.obj
 0003:00003efc       ??_C@_0DM@JJIGCEIN@Assertion?5Failed?3?5?$CIiNumShadowedC@ 10147efc     lighting_pass_volum.obj
 0003:00003f48       ??_C@_0FJ@HFAHEKMO@c?3?2projects?2games?2swarm?9deferred@ 10147f48     lighting_pass_volum.obj
 0003:00003fb4       ??_C@_0BE@BIADKPIN@volumpass_spot_ps30?$AA@ 10147fb4     lighting_pass_volum.obj
 0003:00003fcc       ??_C@_0BF@HIMDGEPN@volumpass_point_ps30?$AA@ 10147fcc     lighting_pass_volum.obj
 0003:00003fe8       ??_C@_0GC@BKJPOGHI@c?3?2projects?2games?2swarm?9deferred@ 10147fe8     lighting_pass_volum.obj
 0003:00004060       ??_C@_0GB@BCOMMOKD@c?3?2projects?2games?2swarm?9deferred@ 10148060     lighting_pass_volum.obj
 0003:000040d4       ??_C@_0P@LDLILGGF@LIGHTING_WORLD?$AA@ 101480d4     lighting_world.obj
 0003:000040ec       ?INVALID_INDEX@?$CUtlMemory@PAVCShaderParam@LIGHTING_WORLD@@H@@2HB 101480ec     lighting_world.obj
 0003:000040f0       ??_C@_0L@NANOGOM@$LIGHTTYPE?$AA@ 101480f0     lighting_world.obj
 0003:00004100       ??_C@_0BB@MPDKFFBN@$WORLDPROJECTION?$AA@ 10148100     lighting_world.obj
 0003:0000411c       ??_7CShader@LIGHTING_WORLD@@6B@ 1014811c     lighting_world.obj
 0003:00004164       ??_C@_0BA@OLACJHOM@LIGHTING_VOLUME?$AA@ 10148164     lighting_volume.obj
 0003:0000417c       ?INVALID_INDEX@?$CUtlMemory@PAVCShaderParam@LIGHTING_VOLUME@@H@@2HB 1014817c     lighting_volume.obj
 0003:00004184       ??_7CShader@LIGHTING_VOLUME@@6B@ 10148184     lighting_volume.obj
 0003:000041cc       ??_C@_0BA@KBLGFIHN@RADIOSITY_BLEND?$AA@ 101481cc     radiosity_blend.obj
 0003:000041e4       ?INVALID_INDEX@?$CUtlMemory@PAVCShaderParam@RADIOSITY_BLEND@@H@@2HB 101481e4     radiosity_blend.obj
 0003:000041ec       ??_7CShader@RADIOSITY_BLEND@@6B@ 101481ec     radiosity_blend.obj
 0003:00004234       ??_C@_0BF@LJJBJODB@radiosity_blend_ps30?$AA@ 10148234     radiosity_blend.obj
 0003:00004250       ??_C@_0BB@CGEMPBIF@RADIOSITY_GLOBAL?$AA@ 10148250     radiosity_global.obj
 0003:00004268       ?INVALID_INDEX@?$CUtlMemory@PAVCShaderParam@RADIOSITY_GLOBAL@@H@@2HB 10148268     radiosity_global.obj
 0003:00004274       ??_7CShader@RADIOSITY_GLOBAL@@6B@ 10148274     radiosity_global.obj
 0003:000042bc       ??_C@_07JDMPGCJB@CASCADE?$AA@ 101482bc     radiosity_global.obj
 0003:000042c8       ??_C@_06GPFGCBFO@iIndex?$AA@ 101482c8     radiosity_global.obj
 0003:000042d0       ??_C@_0BK@ENGBDJMO@radiosity_gen_global_ps30?$AA@ 101482d0     radiosity_global.obj
 0003:000042f0       ??_C@_0BD@FGAKGPBP@radiosity_gen_vs30?$AA@ 101482f0     radiosity_global.obj
 0003:00004308       ??_C@_0GH@HGMGAHOE@c?3?2projects?2games?2swarm?9deferred@ 10148308     radiosity_global.obj
 0003:00004384       ??_C@_0BE@HGMBLJPK@RADIOSITY_PROPAGATE?$AA@ 10148384     radiosity_propagate.obj
 0003:000043a0       ?INVALID_INDEX@?$CUtlMemory@PAVCShaderParam@RADIOSITY_PROPAGATE@@H@@2HB 101483a0     radiosity_propagate.obj
 0003:000043a4       ??_C@_0L@OKCAPPED@$NORMALMAP?$AA@ 101483a4     radiosity_propagate.obj
 0003:000043b4       ??_C@_05MDALCGFN@$BLUR?$AA@ 101483b4     radiosity_propagate.obj
 0003:000043c4       ??_7CShader@RADIOSITY_PROPAGATE@@6B@ 101483c4     radiosity_propagate.obj
 0003:0000440c       ??_C@_0DD@KJAOCJEE@Assertion?5Failed?3?5params?$FL?5NORMAL@ 1014840c     radiosity_propagate.obj
 0003:00004450       ??_C@_0FJ@NKHEHKLD@c?3?2projects?2games?2swarm?9deferred@ 10148450     radiosity_propagate.obj
 0003:000044bc       ??_C@_0BJ@IANPHHJL@radiosity_propagate_ps30?$AA@ 101484bc     radiosity_propagate.obj
 0003:000044dc       ??_C@_04CINGDHMD@BLUR?$AA@ 101484dc     radiosity_propagate.obj
 0003:000044e4       ??_C@_0BB@BNBBIOGE@PARM_INT?$CI?5BLUR?5?$CJ?$AA@ 101484e4     radiosity_propagate.obj
 0003:000044f8       ??_C@_0BJ@PJPICDL@radiosity_propagate_vs30?$AA@ 101484f8     radiosity_propagate.obj
 0003:00004518       ??_C@_0GG@HJMJPIHI@c?3?2projects?2games?2swarm?9deferred@ 10148518     radiosity_propagate.obj
 0003:00004594       ??_C@_0N@JOAJJCBI@VOLUME_BLEND?$AA@ 10148594     volume_blend.obj
 0003:000045a8       ?INVALID_INDEX@?$CUtlMemory@PAVCShaderParam@VOLUME_BLEND@@H@@2HB 101485a8     volume_blend.obj
 0003:000045b4       ??_7CShader@VOLUME_BLEND@@6B@ 101485b4     volume_blend.obj
 0003:00004600       ??_C@_0FC@NOMIHKAH@c?3?2projects?2games?2swarm?9deferred@ 10148600     volume_blend.obj
 0003:00004664       ??_C@_0BC@MMNPPILI@volume_blend_ps30?$AA@ 10148664     volume_blend.obj
 0003:0000467c       ??_C@_0P@ICAHGCFC@VOLUME_PREPASS?$AA@ 1014867c     volume_prepass.obj
 0003:00004694       ?INVALID_INDEX@?$CUtlMemory@PAVCShaderParam@VOLUME_PREPASS@@H@@2HB 10148694     volume_prepass.obj
 0003:0000469c       ??_7CShader@VOLUME_PREPASS@@6B@ 1014869c     volume_prepass.obj
 0003:000046e4       ??_C@_0BE@FNDOFLJP@volume_prepass_ps30?$AA@ 101486e4     volume_prepass.obj
 0003:000046fc       ??_C@_0BE@NCHOKODP@volume_prepass_vs30?$AA@ 101486fc     volume_prepass.obj
 0003:00004718       __real@40019999a0000000    10148718     mathlib:color_conversion.obj
 0003:00004728       __real@3fdd1745c0000000    10148728     mathlib:color_conversion.obj
 0003:00004734       __real@3f733333            10148734     mathlib:color_conversion.obj
 0003:00004738       __real@4003333340000000    10148738     mathlib:color_conversion.obj
 0003:00004744       __real@3f72a76f            10148744     mathlib:color_conversion.obj
 0003:00004748       __real@3d6147ae            10148748     mathlib:color_conversion.obj
 0003:0000474c       __real@3d9e8391            1014874c     mathlib:color_conversion.obj
 0003:00004750       __real@3d25aee6            10148750     mathlib:color_conversion.obj
 0003:00004754       __real@3f870a3d            10148754     mathlib:color_conversion.obj
 0003:00004758       __real@3fdaaaaaa0000000    10148758     mathlib:color_conversion.obj
 0003:00004764       __real@414eb852            10148764     mathlib:color_conversion.obj
 0003:00004768       __real@3b4d2e1c            10148768     mathlib:color_conversion.obj
 0003:0000476c       __real@3b800000            1014876c     mathlib:color_conversion.obj
 0003:00004770       __real@447f0000            10148770     mathlib:color_conversion.obj
 0003:00004774       __real@3f40c0c1            10148774     mathlib:color_conversion.obj
 0003:00004778       __real@3b000000            10148778     mathlib:color_conversion.obj
 0003:0000477c       __real@42800000            1014877c     mathlib:color_conversion.obj
 0003:00004780       __real@43ff0000            10148780     mathlib:color_conversion.obj
 0003:00004784       __real@3e808081            10148784     mathlib:color_conversion.obj
 0003:00004788       __real@3ec0c0c1            10148788     mathlib:color_conversion.obj
 0003:0000478c       __real@3a802008            1014878c     mathlib:color_conversion.obj
 0003:00004790       __real@4b000000            10148790     mathlib:color_conversion.obj
 0003:00004794       __real@80000000            10148794     mathlib:color_conversion.obj
 0003:00004798       __real@3c000000            10148798     mathlib:color_conversion.obj
 0003:0000479c       __real@44800000            1014879c     mathlib:color_conversion.obj
 0003:000047a0       __real@44ff0000            101487a0     mathlib:color_conversion.obj
 0003:000047a4       __real@3f806060            101487a4     mathlib:color_conversion.obj
 0003:000047a8       __real@3f002008            101487a8     mathlib:color_conversion.obj
 0003:000047ac       __real@3e008081            101487ac     mathlib:color_conversion.obj
 0003:000047b0       __real@40006060            101487b0     mathlib:color_conversion.obj
 0003:000047b4       __real@3d802008            101487b4     mathlib:color_conversion.obj
 0003:000047b8       __real@3e002008            101487b8     mathlib:color_conversion.obj
 0003:000047bc       __real@40806060            101487bc     mathlib:color_conversion.obj
 0003:000047c0       __real@3f008081            101487c0     mathlib:color_conversion.obj
 0003:000047c4       __real@3f006060            101487c4     mathlib:color_conversion.obj
 0003:000047c8       __real@447fc000            101487c8     mathlib:color_conversion.obj
 0003:000047d0       __real@3f50000000000000    101487d0     mathlib:color_conversion.obj
 0003:000047dc       __real@3e800000            101487dc     mathlib:color_conversion.obj
 0003:000047e0       __real@406fe00000000000    101487e0     mathlib:color_conversion.obj
 0003:000047f0       __real@3fec000000000000    101487f0     mathlib:color_conversion.obj
 0003:00004800       __real@3f50040100401004    10148800     mathlib:color_conversion.obj
 0003:0000480c       __real@3b808081            1014880c     mathlib:color_conversion.obj
 0003:00004810       __real@3fc0000000000000    10148810     mathlib:color_conversion.obj
 0003:00004820       __real@3fb3333333333333    10148820     mathlib:color_conversion.obj
 0003:0000482c       __real@3d4ccccd            1014882c     mathlib:color_conversion.obj
 0003:00004830       __real@3e000000            10148830     mathlib:color_conversion.obj
 0003:00004834       __real@40400000            10148834     mathlib:color_conversion.obj
 0003:0000483c       __real@358637bd            1014883c     mathlib:vmatrix.obj
 0003:00004840       __mask@@AbsFloat@          10148840     mathlib:vmatrix.obj
 0003:00004854       __real@3c23d70a            10148854     mathlib:vmatrix.obj
 0003:00004858       __real@3c8efa35            10148858     mathlib:vmatrix.obj
 0003:0000485c       __real@42652ee1            1014885c     mathlib:vmatrix.obj
 0003:00004860       __real@3a83126f            10148860     mathlib:vmatrix.obj
 0003:00004868       __real@3fd45f306dc9c883    10148868     mathlib:vmatrix.obj
 0003:00004874       __real@43340000            10148874     mathlib:vmatrix.obj
 0003:00004878       __real@3f50624dd2f1a9fc    10148878     mathlib:vmatrix.obj
 0003:00004888       __real@bf50624dd2f1a9fc    10148888     mathlib:vmatrix.obj
 0003:00004898       __real@3f91df46a2529d39    10148898     mathlib:vmatrix.obj
 0003:000048a8       __real@3ff0000000000000    101488a8     mathlib:vmatrix.obj
 0003:000048b8       __real@4000000000000000    101488b8     mathlib:vmatrix.obj
 0003:000048c8       __real@3f81df46a2529d39    101488c8     mathlib:vmatrix.obj
 0003:000048d4       __real@c0000000            101488d4     mathlib:vmatrix.obj
 0003:000048dc       ?nanmask@@3HB              101488dc     mathlib:mathlib_base.obj
 0003:000048e4       __real@34000000            101488e4     mathlib:mathlib_base.obj
 0003:000048e8       __real@3bb40000            101488e8     mathlib:mathlib_base.obj
 0003:000048ec       __real@43360b61            101488ec     mathlib:mathlib_base.obj
 0003:000048f0       __real@3f9921fb54442d18    101488f0     mathlib:mathlib_base.obj
 0003:00004900       __real@3eb0c6f7a0b5ed8d    10148900     mathlib:mathlib_base.obj
 0003:0000490c       __real@43b40000            1014890c     mathlib:mathlib_base.obj
 0003:00004910       __real@42b40000            10148910     mathlib:mathlib_base.obj
 0003:00004914       __real@43870000            10148914     mathlib:mathlib_base.obj
 0003:00004918       __real@4330000000000000    10148918     mathlib:mathlib_base.obj
 0003:00004928       __real@8000000000000000    10148928     mathlib:mathlib_base.obj
 0003:00004938       __real@0000000000000000    10148938     mathlib:mathlib_base.obj
 0003:00004944       __real@ff7fffff            10148944     mathlib:mathlib_base.obj
 0003:00004948       __real@bfb8aa65            10148948     mathlib:mathlib_base.obj
 0003:00004950       __real@3fe0000000000000    10148950     mathlib:mathlib_base.obj
 0003:00004960       __real@400921fb54442d18    10148960     mathlib:mathlib_base.obj
 0003:00004970       __real@3ff921fb54442d18    10148970     mathlib:mathlib_base.obj
 0003:0000497c       __real@3727c5ac            1014897c     mathlib:mathlib_base.obj
 0003:00004980       __real@c0a00000            10148980     mathlib:mathlib_base.obj
 0003:00004984       __real@c0400000            10148984     mathlib:mathlib_base.obj
 0003:00004988       __real@bf000000            10148988     mathlib:mathlib_base.obj
 0003:0000498c       __real@3fc00000            1014898c     mathlib:mathlib_base.obj
 0003:00004990       __real@3e2aaaab            10148990     mathlib:mathlib_base.obj
 0003:00004994       __real@40a00000            10148994     mathlib:mathlib_base.obj
 0003:00004998       __real@40500000            10148998     mathlib:mathlib_base.obj
 0003:0000499c       __real@be800000            1014899c     mathlib:mathlib_base.obj
 0003:000049a0       __real@40c00000            101489a0     mathlib:mathlib_base.obj
 0003:000049a4       __real@3f2aaaab            101489a4     mathlib:mathlib_base.obj
 0003:000049a8       __real@c0c00000            101489a8     mathlib:mathlib_base.obj
 0003:000049ac       __real@3f4ccccd            101489ac     mathlib:mathlib_base.obj
 0003:000049b0       __real@3f400000            101489b0     mathlib:mathlib_base.obj
 0003:000049b4       ??_C@_0BL@KENLNLMD@SSE?5and?5SSE2?5are?5required?4?$AA@ 101489b4     mathlib:mathlib_base.obj
 0003:000049d4       __real@c3340000            101489d4     mathlib:mathlib_base.obj
 0003:000049d8       __real@4076800000000000    101489d8     mathlib:mathlib_base.obj
 0003:000049e4       __real@c6800000            101489e4     mathlib:mathlib_base.obj
 0003:000049e8       __real@43330000            101489e8     mathlib:mathlib_base.obj
 0003:000049f0       __real@3d719799812dea11    101489f0     mathlib:mathlib_base.obj
 0003:000049fc       __real@42700000            101489fc     mathlib:mathlib_base.obj
 0003:00004a00       __real@3c888889            10148a00     mathlib:mathlib_base.obj
 0003:00004a08       __real@3fd5555560000000    10148a08     mathlib:mathlib_base.obj
 0003:00004a18       __real@401921fb54442d18    10148a18     mathlib:mathlib_base.obj
 0003:00004a24       __real@38000100            10148a24     mathlib:mathlib_base.obj
 0003:00004a28       __real@3f800001            10148a28     mathlib:mathlib_base.obj
 0003:00004a30       __real@3fa999999999999a    10148a30     mathlib:mathlib_base.obj
 0003:00004a50       ?Four_PointFives@@3T__m128@@B 10148a50     mathlib:sseconst.obj
 0003:00004a60       ?Four_Zeros@@3T__m128@@B   10148a60     mathlib:sseconst.obj
 0003:00004a70       ?Four_Ones@@3T__m128@@B    10148a70     mathlib:sseconst.obj
 0003:00004a80       ?Four_Twos@@3T__m128@@B    10148a80     mathlib:sseconst.obj
 0003:00004a90       ?Four_Threes@@3T__m128@@B  10148a90     mathlib:sseconst.obj
 0003:00004aa0       ?Four_Fours@@3T__m128@@B   10148aa0     mathlib:sseconst.obj
 0003:00004ab0       ?Four_Origin@@3T__m128@@B  10148ab0     mathlib:sseconst.obj
 0003:00004ac0       ?Four_NegativeOnes@@3T__m128@@B 10148ac0     mathlib:sseconst.obj
 0003:00004ad0       ?Four_2ToThe21s@@3T__m128@@B 10148ad0     mathlib:sseconst.obj
 0003:00004ae0       ?Four_2ToThe22s@@3T__m128@@B 10148ae0     mathlib:sseconst.obj
 0003:00004af0       ?Four_2ToThe23s@@3T__m128@@B 10148af0     mathlib:sseconst.obj
 0003:00004b00       ?Four_2ToThe24s@@3T__m128@@B 10148b00     mathlib:sseconst.obj
 0003:00004b10       ?Four_Thirds@@3T__m128@@B  10148b10     mathlib:sseconst.obj
 0003:00004b20       ?Four_TwoThirds@@3T__m128@@B 10148b20     mathlib:sseconst.obj
 0003:00004b30       ?Four_Point225s@@3T__m128@@B 10148b30     mathlib:sseconst.obj
 0003:00004b40       ?Four_Epsilons@@3T__m128@@B 10148b40     mathlib:sseconst.obj
 0003:00004b50       ?Four_FLT_MAX@@3T__m128@@B 10148b50     mathlib:sseconst.obj
 0003:00004b60       ?Four_Negative_FLT_MAX@@3T__m128@@B 10148b60     mathlib:sseconst.obj
 0003:00004b70       ?g_SIMD_0123@@3T__m128@@B  10148b70     mathlib:sseconst.obj
 0003:00004b80       ?g_SIMD_clear_signmask@@3QBHB 10148b80     mathlib:sseconst.obj
 0003:00004b90       ?g_SIMD_signmask@@3QBHB    10148b90     mathlib:sseconst.obj
 0003:00004ba0       ?g_SIMD_lsbmask@@3QBHB     10148ba0     mathlib:sseconst.obj
 0003:00004bb0       ?g_SIMD_clear_wmask@@3QBHB 10148bb0     mathlib:sseconst.obj
 0003:00004bc0       ?g_SIMD_AllOnesMask@@3QBHB 10148bc0     mathlib:sseconst.obj
 0003:00004bd0       ?g_SIMD_Low16BitsMask@@3QBHB 10148bd0     mathlib:sseconst.obj
 0003:00004be0       ?g_SIMD_ComponentMask@@3QAY03$$CBHA 10148be0     mathlib:sseconst.obj
 0003:00004c20       ?g_SIMD_SkipTailMask@@3QAY03$$CBHA 10148c20     mathlib:sseconst.obj
 0003:00004c60       ?g_SIMD_EveryOtherMask@@3QBHB 10148c60     mathlib:sseconst.obj
 0003:00004ce8       __real@41f0000000000000    10148ce8     mathlib:randsse.obj
 0003:00004cf8       __real@3ef0000000000000    10148cf8     mathlib:randsse.obj
 0003:00004d04       ??_C@_0DO@JEGLGEMI@tint?5value?5to?5be?5applied?5when?5ru@ 10148d04     shaderlib:BaseShader.obj
 0003:00004d50       ??_C@_09DFNDCFLK@$srgbtint?$AA@ 10148d50     shaderlib:BaseShader.obj
 0003:00004d5c       ??_C@_06KEONFOCA@color2?$AA@ 10148d5c     shaderlib:BaseShader.obj
 0003:00004d64       ??_C@_07CBJPDCJL@$color2?$AA@ 10148d64     shaderlib:BaseShader.obj
 0003:00004d70       ??_C@_0CA@FNHEODEF@Animation?5Frame?5for?5$flashlight?$AA@ 10148d70     shaderlib:BaseShader.obj
 0003:00004d98       ??_C@_0BI@FBLAAOOF@$flashlighttextureframe?$AA@ 10148d98     shaderlib:BaseShader.obj
 0003:00004db4       ??_C@_0BG@DCPCIEMH@effects?1flashlight001?$AA@ 10148db4     shaderlib:BaseShader.obj
 0003:00004dd0       ??_C@_0CD@IJMMJMM@flashlight?5spotlight?5shape?5textu@ 10148dd0     shaderlib:BaseShader.obj
 0003:00004dfc       ??_C@_0BD@OEFGBNBD@$flashlighttexture?$AA@ 10148dfc     shaderlib:BaseShader.obj
 0003:00004e14       ??_C@_0CA@IPALKODP@Base?5Texture?5Texcoord?5Transform?$AA@ 10148e14     shaderlib:BaseShader.obj
 0003:00004e3c       ??_C@_0BG@CPMMPAAK@$basetexturetransform?$AA@ 10148e3c     shaderlib:BaseShader.obj
 0003:00004e58       ??_C@_0BA@IPLPKCPL@Animation?5Frame?$AA@ 10148e58     shaderlib:BaseShader.obj
 0003:00004e6c       ??_C@_06NPMBDFBB@$frame?$AA@ 10148e6c     shaderlib:BaseShader.obj
 0003:00004e74       ??_C@_0CE@NAOMCFML@Base?5Texture?5with?5lighting?5built@ 10148e74     shaderlib:BaseShader.obj
 0003:00004ea0       ??_C@_0N@NEFMJPPI@$basetexture?$AA@ 10148ea0     shaderlib:BaseShader.obj
 0003:00004eb0       ??_C@_05IAEKHIAN@alpha?$AA@ 10148eb0     shaderlib:BaseShader.obj
 0003:00004eb8       ??_C@_06JHBGBLFP@$alpha?$AA@ 10148eb8     shaderlib:BaseShader.obj
 0003:00004ec0       ??_C@_05PEENBMOG@color?$AA@ 10148ec0     shaderlib:BaseShader.obj
 0003:00004ec8       ??_C@_06ODBBHPLE@$color?$AA@ 10148ec8     shaderlib:BaseShader.obj
 0003:00004ed0       ??_C@_0P@JEJGAOCB@flags2_defined?$AA@ 10148ed0     shaderlib:BaseShader.obj
 0003:00004ee4       ??_C@_0BA@GAJLMDIE@$flags_defined2?$AA@ 10148ee4     shaderlib:BaseShader.obj
 0003:00004ef8       ??_C@_06EMKHIFEA@flags2?$AA@ 10148ef8     shaderlib:BaseShader.obj
 0003:00004f00       ??_C@_07MJNFOJPL@$flags2?$AA@ 10148f00     shaderlib:BaseShader.obj
 0003:00004f0c       ??_C@_0O@OHELCBMC@flags_defined?$AA@ 10148f0c     shaderlib:BaseShader.obj
 0003:00004f1c       ??_C@_0P@ODJKAABP@$flags_defined?$AA@ 10148f1c     shaderlib:BaseShader.obj
 0003:00004f30       ??_C@_05GECEPKB@flags?$AA@ 10148f30     shaderlib:BaseShader.obj
 0003:00004f38       ??_C@_06BBBOCMPD@$flags?$AA@ 10148f38     shaderlib:BaseShader.obj
 0003:00004f4c       ??_7CBaseShader@@6B@       10148f4c     shaderlib:BaseShader.obj
 0003:00004f98       ??_7IShader@@6B@           10148f98     shaderlib:BaseShader.obj
 0003:00004fd8       ??_C@_0EN@BFMOKMHF@c?3?2projects?2games?2swarm?9deferred@ 10148fd8     shaderlib:BaseShader.obj
 0003:00005034       ??_C@_0DJ@IEKKNNBE@Assertion?5Failed?3?5nParamIndex?5?$DM?5@ 10149034     shaderlib:BaseShader.obj
 0003:00005078       ??_C@_0BO@FCAAIOOB@Assertion?5Failed?3?5?$CBs_ppParams?$AA@ 10149078     shaderlib:BaseShader.obj
 0003:0000509c       ??_C@_0DE@GMEILGOM@Assertion?5Failed?3?5?$CBs_bBuildingIn@ 1014909c     shaderlib:BaseShader.obj
 0003:000050dc       ??_C@_0CD@OJKBBPAO@Assertion?5Failed?3?5IsSnapshotting@ 101490dc     shaderlib:BaseShader.obj
 0003:00005108       ??_C@_0DD@PAKAIKJJ@Assertion?5Failed?3?5s_bBuildingIns@ 10149108     shaderlib:BaseShader.obj
 0003:0000514c       ??_7CPerInstanceContextData@@6B@ 1014914c     shaderlib:BaseShader.obj
 0003:00005158       ??_7CBasePerInstanceContextData@@6B@ 10149158     shaderlib:BaseShader.obj
 0003:00005160       ??_C@_0BN@DBLHADPA@Assertion?5Failed?3?5s_ppParams?$AA@ 10149160     shaderlib:BaseShader.obj
 0003:00005184       ??_C@_0CE@NDBGIIIO@Assertion?5Failed?3?5nTextureVar?5?$CB?$DN@ 10149184     shaderlib:BaseShader.obj
 0003:000051b0       ??_C@_0EP@OPBAJFPM@Assertion?5Failed?3?5IS_FLAG2_SET?$CI?5@ 101491b0     shaderlib:BaseShader.obj
 0003:00005210       ??_C@_0EH@JAEFAJCM@c?3?2projects?2games?2swarm?9deferred@ 10149210     shaderlib:BaseShader.obj
 0003:00005268       ??_C@_0P@BGOENDIE@getting?5scary?6?$AA@ 10149268     shaderlib:BaseShader.obj
 0003:00005280       ?INVALID_INDEX@?$CUtlMemory@PAVIShader@@H@@2HB 10149280     shaderlib:ShaderDLL.obj
 0003:00005288       ??_C@_0EM@NMKCKBLI@c?3?2projects?2games?2swarm?9deferred@ 10149288     shaderlib:ShaderDLL.obj
 0003:000052e4       __real@400ccccd            101492e4     shaderlib:ShaderDLL.obj
 0003:000052ec       ??_7CShaderDLL@@6BIShaderDLL@@@ 101492ec     shaderlib:ShaderDLL.obj
 0003:000052f8       ??_7CShaderDLL@@6BIShaderDLLInternal@@@ 101492f8     shaderlib:ShaderDLL.obj
 0003:0000531c       ??_7IShaderDLLInternal@@6B@ 1014931c     shaderlib:ShaderDLL.obj
 0003:00005334       ??_7IShaderDLL@@6B@        10149334     shaderlib:ShaderDLL.obj
 0003:0000533c       ??_C@_0BA@ICDFCBDO@ShaderSystem002?$AA@ 1014933c     shaderlib:ShaderDLL.obj
 0003:00005350       ??_C@_0BJ@PPMLNMML@VMaterialSystemConfig004?$AA@ 10149350     shaderlib:ShaderDLL.obj
 0003:00005370       ??_C@_0CA@DFPNNCGF@MaterialSystemHardwareConfig013?$AA@ 10149370     shaderlib:ShaderDLL.obj
 0003:00005398       ??_C@_0BK@CCADECGF@Assertion?5Failed?3?5pShader?$AA@ 10149398     shaderlib:ShaderDLL.obj
 0003:000053b8       ??_C@_0N@OBPFIHDD@ShaderDLL004?$AA@ 101493b8     shaderlib:ShaderDLL.obj
 0003:000053cc       ??_7CShaderLibConVarAccessor@@6B@ 101493cc     shaderlib:shaderlib_cvar.obj
 0003:000053d8       ??_7IConCommandBaseAccessor@@6B@ 101493d8     shaderlib:shaderlib_cvar.obj
 0003:000053e0       ??_C@_08HDEJNBCC@ss_added?$AA@ 101493e0     tier1:convar.obj
 0003:000053ec       ??_C@_02FCBLNKNB@ss?$AA@   101493ec     tier1:convar.obj
 0003:000053f0       ??_C@_04CCHAHKJA@user?$AA@ 101493f0     tier1:convar.obj
 0003:000053f8       ??_C@_0BG@HMGMADBK@clientcmd_can_execute?$AA@ 101493f8     tier1:convar.obj
 0003:00005414       ??_C@_0BD@OPIELDHG@server_can_execute?$AA@ 10149414     tier1:convar.obj
 0003:0000542c       ??_C@_0L@ONNDKGKI@replicated?$AA@ 1014942c     tier1:convar.obj
 0003:0000543c       ??_C@_05GHKBAFPA@cheat?$AA@ 1014943c     tier1:convar.obj
 0003:00005444       ??_C@_0N@JKDKMKHL@notconnected?$AA@ 10149444     tier1:convar.obj
 0003:00005454       ??_C@_0N@CDKFDNKI@singleplayer?$AA@ 10149454     tier1:convar.obj
 0003:00005464       ??_C@_06LIGDCBBN@notify?$AA@ 10149464     tier1:convar.obj
 0003:0000546c       ??_C@_07NEJBDDEA@archive?$AA@ 1014946c     tier1:convar.obj
 0003:00005478       ??_C@_06DGDLPBAN@client?$AA@ 10149478     tier1:convar.obj
 0003:00005480       ??_C@_04MJNAPEEI@game?$AA@ 10149480     tier1:convar.obj
 0003:00005488       ?INVALID_INDEX@?$CUtlMemory@VCUtlString@@H@@2HB 10149488     tier1:convar.obj
 0003:0000548c       ??_C@_0BG@FHJDLLKG@FCVAR_NEVER_AS_STRING?$AA@ 1014948c     tier1:convar.obj
 0003:000054ac       ??_7ConCommandBase@@6B@    101494ac     tier1:convar.obj
 0003:000054ec       ??_7ConCommand@@6B@        101494ec     tier1:convar.obj
 0003:00005538       ??_7IConVar@@6B@           10149538     tier1:convar.obj
 0003:00005560       ??_C@_0M@EBMLABJH@?$CFi?5?$CFi?5?$CFi?5?$CFi?$AA@ 10149560     tier1:convar.obj
 0003:00005570       ??_C@_02NJPGOMH@?$CFf?$AA@ 10149570     tier1:convar.obj
 0003:00005574       ??_C@_0DC@BPEMDMOJ@Warning?3?5?5?$CFs?5?$DN?5?8?$CFs?8?5is?5infinite?0@ 10149574     tier1:convar.obj
 0003:000055b0       ??_C@_02DPKJAMEF@?$CFd?$AA@ 101495b0     tier1:convar.obj
 0003:000055b4       ??_C@_04HGGBINEM@?$CFs?$CFd?$AA@ 101495b4     tier1:convar.obj
 0003:000055bc       ??_C@_03EEBNCBOD@?5?$CFs?$AA@ 101495bc     tier1:convar.obj
 0003:000055c0       ??_C@_06IJAGBFDH@?$CF?980s?6?$AA@ 101495c0     tier1:convar.obj
 0003:000055c8       ??_C@_0P@GPPHALFA@?$CF?980s?5?9?5?$CF?480s?6?$AA@ 101495c8     tier1:convar.obj
 0003:000055dc       ??_C@_05NKLPODEL@?$CC?$CFs?$CC?5?$AA@ 101495dc     tier1:convar.obj
 0003:000055e4       ??_C@_0BP@NJMLFLDN@?5?$FL?$CF?43f?5server?5clamped?5to?5?$CF?43f?$FN?$AA@ 101495e4     tier1:convar.obj
 0003:0000560c       __real@38d1b717            1014960c     tier1:convar.obj
 0003:00005610       ??_C@_08MJLLGCBE@?5max?4?5?$CFf?$AA@ 10149610     tier1:convar.obj
 0003:0000561c       ??_C@_08CPNLMNPF@?5min?4?5?$CFf?$AA@ 1014961c     tier1:convar.obj
 0003:00005628       ??_C@_0P@EPMAFFFB@?5?$CI?5def?4?5?$CC?$CFs?$CC?5?$CJ?$AA@ 10149628     tier1:convar.obj
 0003:0000563c       ??_C@_0M@NMBENLGP@?$CC?$CFs?$CC?5?$DN?5?$CC?$CFs?$CC?$AA@ 1014963c     tier1:convar.obj
 0003:00005650       ??_7CDefaultAccessor@@6B@  10149650     tier1:convar.obj
 0003:00005658       ??_C@_06PGALACC@?$HL?$HN?$CI?$CJ?8?3?$AA@ 10149658     tier1:convar.obj
 0003:00005660       ??_C@_0DC@FCCBDICF@ConVarRef?5?$CFs?5doesn?8t?5point?5to?5an@ 10149660     tier1:convar.obj
 0003:000056a0       ??_C@_0FI@KPCNOHIM@CCommand?3?3Tokenize?3?5Encountered?5@ 101496a0     tier1:convar.obj
 0003:00005710       ??_C@_0FK@JGFIGFJD@CCommand?3?3Tokenize?3?5Encountered?5@ 10149710     tier1:convar.obj
 0003:00005780       ??_7ConVar@@6BIConVar@@@   10149780     tier1:convar.obj
 0003:000057ac       ??_7ConVar@@6BConCommandBase@@@ 101497ac     tier1:convar.obj
 0003:00005808       ??_C@_0DN@BPHDDJLF@InstallChangeCallback?5ignoring?5d@ 10149808     tier1:convar.obj
 0003:00005854       ??_C@_0DO@KEMKBFA@InstallChangeCallback?5called?5wit@ 10149854     tier1:convar.obj
 0003:000058a0       ??_C@_0DD@BMOCNE@ConVar?$CI?$CFs?$CJ?5defined?5with?5infinite@ 101498a0     tier1:convar.obj
 0003:000058e4       ??_7CEmptyConVar@@6BIConVar@@@ 101498e4     tier1:convar.obj
 0003:00005914       ??_7CEmptyConVar@@6BConCommandBase@@@ 10149914     tier1:convar.obj
 0003:00005970       ??_C@_0CH@DNILKGJA@V_AppendSlash?3?5ran?5out?5of?5space?5@ 10149970     tier1:strtools.obj
 0003:000059a0       __real@3fb999999999999a    101499a0     tier1:strtools.obj
 0003:000059b0       __real@4050400000000000    101499b0     tier1:strtools.obj
 0003:000059c0       __real@4024000000000000    101499c0     tier1:strtools.obj
 0003:000059d0       __real@4058400000000000    101499d0     tier1:strtools.obj
 0003:000059e0       __real@4048000000000000    101499e0     tier1:strtools.obj
 0003:000059f0       __real@4030000000000000    101499f0     tier1:strtools.obj
 0003:000059fc       ??_C@_01CLKCMJKC@?5?$AA@   101499fc     tier1:strtools.obj
 0003:00005a00       ??_C@_01LFCBOECM@?4?$AA@   10149a00     tier1:strtools.obj
 0003:00005a04       ??_C@_08BIBOIFBG@?$CF?$CF?4?$CFif?$CFs?$AA@ 10149a04     tier1:strtools.obj
 0003:00005a10       ??_C@_04EMEGLOCB@?$CFi?$CFs?$AA@ 10149a10     tier1:strtools.obj
 0003:00005a18       __real@3ee4f8b588e368f1    10149a18     tier1:strtools.obj
 0003:00005a24       ??_C@_06LCIDCBMH@?5bytes?$AA@ 10149a24     tier1:strtools.obj
 0003:00005a2c       ??_C@_03MAAJMAHL@?5KB?$AA@ 10149a2c     tier1:strtools.obj
 0003:00005a30       ??_C@_03MEIELMMJ@?5MB?$AA@ 10149a30     tier1:strtools.obj
 0003:00005a34       __real@447a0000            10149a34     tier1:strtools.obj
 0003:00005a38       ??_C@_04OHGLKFFN@?$CF03d?$AA@ 10149a38     tier1:strtools.obj
 0003:00005a40       ??_C@_05CMAMCNEC@?$CF03d?0?$AA@ 10149a40     tier1:strtools.obj
 0003:00005a48       ??_C@_03DPLIHHLN@?$CFd?0?$AA@ 10149a48     tier1:strtools.obj
 0003:00005a4c       ??_C@_01JOAMLHOP@?9?$AA@   10149a4c     tier1:strtools.obj
 0003:00005a50       ??_C@_04NOJCDH@?$CF02x?$AA@ 10149a50     tier1:strtools.obj
 0003:00005a58       ??_C@_03OOAAEEIB@?4?$CFc?$AA@ 10149a58     tier1:strtools.obj
 0003:00005a5c       ??_C@_02CEGDFPFP@?4?2?$AA@ 10149a5c     tier1:strtools.obj
 0003:00005a60       ??_C@_02CAHBHFGK@?4?1?$AA@ 10149a60     tier1:strtools.obj
 0003:00005a64       ??_C@_0DB@FOILCOJM@V_MakeAbsolutePath?3?5tried?5to?5?$CC?4?4@ 10149a64     tier1:strtools.obj
 0003:00005aa0       ??_C@_0CE@INIPJBEP@V_MakeAbsolutePath?3?5_getcwd?5fail@ 10149aa0     tier1:strtools.obj
 0003:00005acc       ??_C@_0P@GHFPNOJB@bad?5allocation?$AA@ 10149acc     tier1:interface.obj
 0003:00005ae0       ??_C@_04HLONOPDM@?4dll?$AA@ 10149ae0     tier1:interface.obj
 0003:00005ae8       ??_C@_03GBJHGNO@_ds?$AA@   10149ae8     tier1:interface.obj
 0003:00005aec       ??_C@_03MHCPBOMJ@?9ds?$AA@ 10149aec     tier1:interface.obj
 0003:00005af0       ??_C@_05HCDPKIDE@_xlsp?$AA@ 10149af0     tier1:interface.obj
 0003:00005af8       ??_C@_05DENFAEPO@?9xlsp?$AA@ 10149af8     tier1:interface.obj
 0003:00005b00       ??_C@_0BI@PCKJMKNF@VALVE?9MODULE?9DEBUG?9?$CF08X?$AA@ 10149b00     tier1:interface.obj
 0003:00005b1c       ??_C@_0BM@OIEJAJOK@Module?5?$CFs?5is?5a?5debug?5build?6?$AA@ 10149b1c     tier1:interface.obj
 0003:00005b40       ??_C@_0M@OJHILNKA@?9allowdebug?$AA@ 10149b40     tier1:interface.obj
 0003:00005b50       ??_C@_0L@EJCNAOMG@BuiltDebug?$AA@ 10149b50     tier1:interface.obj
 0003:00005b60       ??_C@_05GFOLEBJA@?$CFs?1?$CFs?$AA@ 10149b60     tier1:interface.obj
 0003:00005b68       ??_C@_09ILGMALND@?$CFs?1bin?1?$CFs?$AA@ 10149b68     tier1:interface.obj
 0003:00005b74       ??_C@_04MMFEEKAB@bin?1?$AA@ 10149b74     tier1:interface.obj
 0003:00005b7c       ??_C@_0BA@OBHPCBFP@CreateInterface?$AA@ 10149b7c     tier1:interface.obj
 0003:00005b94       ??_7CDllDemandLoader@@6B@  10149b94     tier1:interface.obj
 0003:00005b9c       ??_C@_03CCCGLAML@?$CFlg?$AA@ 10149b9c     tier1:utlstring.obj
 0003:00005ba0       ??_C@_01BJJEKLCA@?$CC?$AA@ 10149ba0     tier1:utlbuffer.obj
 0003:00005ba4       ??_C@_01GEODFPGF@?8?$AA@   10149ba4     tier1:utlbuffer.obj
 0003:00005ba8       ??_C@_01OGPIMHDM@?$DP?$AA@ 10149ba8     tier1:utlbuffer.obj
 0003:00005bac       ??_C@_01KICIPPFI@?2?$AA@   10149bac     tier1:utlbuffer.obj
 0003:00005bb0       ??_C@_01MCMALHOG@a?$AA@    10149bb0     tier1:utlbuffer.obj
 0003:00005bb4       ??_C@_01INIBCBCB@f?$AA@    10149bb4     tier1:utlbuffer.obj
 0003:00005bb8       ??_C@_01KDCPPGHE@r?$AA@    10149bb8     tier1:utlbuffer.obj
 0003:00005bbc       ??_C@_01OJONOECF@b?$AA@    10149bbc     tier1:utlbuffer.obj
 0003:00005bc0       ??_C@_01MHEDDDHA@v?$AA@    10149bc0     tier1:utlbuffer.obj
 0003:00005bc4       ??_C@_01PFHFFBPC@t?$AA@    10149bc4     tier1:utlbuffer.obj
 0003:00005bc8       ??_C@_01EFFIKLCJ@n?$AA@    10149bc8     tier1:utlbuffer.obj
 0003:00005bd0       ??_7CUtlCharConversion@@6B@ 10149bd0     tier1:utlbuffer.obj
 0003:00005bdc       ??_7CUtlNoEscConversion@@6B@ 10149bdc     tier1:utlbuffer.obj
 0003:00005be8       ??_7CUtlCStringConversion@@6B@ 10149be8     tier1:utlbuffer.obj
 0003:00005bf0       ??_C@_02PCIJFNDE@?$AN?6?$AA@ 10149bf0     tier1:utlbuffer.obj
 0003:00005bf4       __FPinit                   10149bf4     LIBCMTD:_fpinit_.obj
 0003:00005c00       __OP_FMODjmptab            10149c00     LIBCMTD:_87fmod_.obj
 0003:00005c60       ??_C@_0DA@HMCPFNKN@f?3?2dd?2vctools?2crt_bld?2self_x86?2c@ 10149c60     LIBCMTD:onexit.obj
 0003:00005ca0       ??_7type_info@@6B@         10149ca0     LIBCMTD:typinfo.obj
 0003:00005ca8       ?ProcessDetach@NativeDll@<CrtImplementationDetails>@@0IB 10149ca8     LIBCMTD:tncleanup.obj
 0003:00005cac       ?ProcessAttach@NativeDll@<CrtImplementationDetails>@@0IB 10149cac     LIBCMTD:tncleanup.obj
 0003:00005cb0       ?ThreadAttach@NativeDll@<CrtImplementationDetails>@@0IB 10149cb0     LIBCMTD:tncleanup.obj
 0003:00005cb4       ?ThreadDetach@NativeDll@<CrtImplementationDetails>@@0IB 10149cb4     LIBCMTD:tncleanup.obj
 0003:00005cb8       ?ProcessVerifier@NativeDll@<CrtImplementationDetails>@@0IB 10149cb8     LIBCMTD:tncleanup.obj
 0003:00005cbc       ??_C@_1O@GKDHFACN@?$AAp?$AAr?$AAi?$AAn?$AAt?$AAf?$AA?$AA@ 10149cbc     LIBCMTD:printf.obj
 0003:00005cd0       ??_C@_1GA@LHEGHOAF@?$AAf?$AA?3?$AA?2?$AAd?$AAd?$AA?2?$AAv?$AAc?$AAt?$AAo?$AAo?$AAl?$AAs?$AA?2?$AAc?$AAr?$AAt?$AA_?$AAb?$AAl?$AAd?$AA?2?$AAs?$AAe?$AAl?$AAf?$AA_?$AAx?$AA8?$AA6?$AA?2?$AAc@ 10149cd0     LIBCMTD:printf.obj
 0003:00005d44       ??_C@_1CC@MGIEJOME@?$AA?$CI?$AAf?$AAo?$AAr?$AAm?$AAa?$AAt?$AA?5?$AA?$CB?$AA?$DN?$AA?5?$AAN?$AAU?$AAL?$AAL?$AA?$CJ?$AA?$AA@ 10149d44     LIBCMTD:printf.obj
 0003:00005d70       ??_7bad_alloc@std@@6B@     10149d70     LIBCMTD:dbgnew.obj
 0003:00005d80       ??_C@_1GE@BDAODJCD@?$AAf?$AA?3?$AA?2?$AAd?$AAd?$AA?2?$AAv?$AAc?$AAt?$AAo?$AAo?$AAl?$AAs?$AA?2?$AAc?$AAr?$AAt?$AA_?$AAb?$AAl?$AAd?$AA?2?$AAs?$AAe?$AAl?$AAf?$AA_?$AAx?$AA8?$AA6?$AA?2?$AAc@ 10149d80     LIBCMTD:dbgdel.obj
 0003:00005df8       ??_C@_1EO@LHDAJOCM@?$AA_?$AAB?$AAL?$AAO?$AAC?$AAK?$AA_?$AAT?$AAY?$AAP?$AAE?$AA_?$AAI?$AAS?$AA_?$AAV?$AAA?$AAL?$AAI?$AAD?$AA?$CI?$AAp?$AAH?$AAe?$AAa?$AAd?$AA?9?$AA?$DO?$AAn?$AAB?$AAl?$AAo@ 10149df8     LIBCMTD:dbgdel.obj
 0003:00005e58       __pDefaultRawDllMain       10149e58     LIBCMTD:dllcrt0.obj
 0003:00005e58       __pRawDllMain              10149e58     LIBCMTD:dllcrt0.obj
 0003:00005e5c       ??_C@_0DB@OLNOAEGF@f?3?2dd?2vctools?2crt_bld?2self_x86?2c@ 10149e5c     LIBCMTD:dllcrt0.obj
 0003:00013758       ??_C@_1BC@KMGJCMNP@?$AAv?$AAs?$AAc?$AAa?$AAn?$AA_?$AAf?$AAn?$AA?$AA@ 10157758     LIBCMTD:sscanf.obj
 0003:00013770       ??_C@_1GA@GDIHGGDN@?$AAf?$AA?3?$AA?2?$AAd?$AAd?$AA?2?$AAv?$AAc?$AAt?$AAo?$AAo?$AAl?$AAs?$AA?2?$AAc?$AAr?$AAt?$AA_?$AAb?$AAl?$AAd?$AA?2?$AAs?$AAe?$AAl?$AAf?$AA_?$AAx?$AA8?$AA6?$AA?2?$AAc@ 10157770     LIBCMTD:sscanf.obj
 0003:000137e4       ??_C@_1CC@OLIJCKA@?$AA?$CI?$AAs?$AAt?$AAr?$AAi?$AAn?$AAg?$AA?5?$AA?$CB?$AA?$DN?$AA?5?$AAN?$AAU?$AAL?$AAL?$AA?$CJ?$AA?$AA@ 101577e4     LIBCMTD:sscanf.obj
 0003:0001380c       ??_C@_1BA@NJCJMLHI@?$AA_?$AAa?$AAt?$AAo?$AAf?$AA_?$AAl?$AA?$AA@ 1015780c     LIBCMTD:atof.obj
 0003:00013820       ??_C@_1FM@HAAJIFE@?$AAf?$AA?3?$AA?2?$AAd?$AAd?$AA?2?$AAv?$AAc?$AAt?$AAo?$AAo?$AAl?$AAs?$AA?2?$AAc?$AAr?$AAt?$AA_?$AAb?$AAl?$AAd?$AA?2?$AAs?$AAe?$AAl?$AAf?$AA_?$AAx?$AA8?$AA6?$AA?2?$AAc@ 10157820     LIBCMTD:atof.obj
 0003:00013890       ??_C@_1BK@LAOAACLJ@?$AAn?$AAp?$AAt?$AAr?$AA?5?$AA?$CB?$AA?$DN?$AA?5?$AAN?$AAU?$AAL?$AAL?$AA?$AA@ 10157890     LIBCMTD:atof.obj
 0003:000138b0       ??_C@_1EC@FABAOFFO@?$AA?$CI?$AAc?$AAo?$AAu?$AAn?$AAt?$AA?5?$AA?$DN?$AA?$DN?$AA?5?$AA0?$AA?$CJ?$AA?5?$AA?$HM?$AA?$HM?$AA?5?$AA?$CI?$AAs?$AAt?$AAr?$AAi?$AAn?$AAg?$AA?5?$AA?$CB?$AA?$DN?$AA?5?$AAN?$AAU?$AAL?$AAL?$AA?$CJ@ 101578b0     LIBCMTD:vsnprint.obj
 0003:00013900       ??_C@_1BK@FHMHFMNL@?$AA_?$AAv?$AAs?$AAn?$AAp?$AAr?$AAi?$AAn?$AAt?$AAf?$AA_?$AAl?$AA?$AA@ 10157900     LIBCMTD:vsnprint.obj
 0003:00013920       ??_C@_1GE@DPADKNCG@?$AAf?$AA?3?$AA?2?$AAd?$AAd?$AA?2?$AAv?$AAc?$AAt?$AAo?$AAo?$AAl?$AAs?$AA?2?$AAc?$AAr?$AAt?$AA_?$AAb?$AAl?$AAd?$AA?2?$AAs?$AAe?$AAl?$AAf?$AA_?$AAx?$AA8?$AA6?$AA?2?$AAc@ 10157920     LIBCMTD:vsnprint.obj
 0003:00013998       ??_C@_0CB@CGKGGDFI@Access?5violation?5?9?5no?5RTTI?5data?$CB@ 10157998     LIBCMTD:rtti.obj
 0003:000139c0       ??_C@_0CB@EEENAAHH@Bad?5read?5pointer?5?9?5no?5RTTI?5data?$CB@ 101579c0     LIBCMTD:rtti.obj
 0003:000139e8       ??_C@_0CE@FFJAJLDK@Attempted?5a?5typeid?5of?5NULL?5point@ 101579e8     LIBCMTD:rtti.obj
 0003:00013a14       ??_C@_0BC@JNJNLHBP@Bad?5dynamic_cast?$CB?$AA@ 10157a14     LIBCMTD:rtti.obj
 0003:00013a2c       ??_C@_1BK@NOHKJANJ@?$AA?$CI?$AAm?$AAa?$AAx?$AAl?$AAe?$AAn?$AA?5?$AA?$DO?$AA?5?$AA0?$AA?$CJ?$AA?$AA@ 10157a2c     LIBCMTD:getcwd.obj
 0003:00013a4c       ??_C@_1CA@EAHAIGAM@?$AA_?$AAg?$AAe?$AAt?$AAd?$AAc?$AAw?$AAd?$AA_?$AAl?$AAk?$AA_?$AAd?$AAb?$AAg?$AA?$AA@ 10157a4c     LIBCMTD:getcwd.obj
 0003:00013a78       ??_C@_1GA@IFOABPDF@?$AAf?$AA?3?$AA?2?$AAd?$AAd?$AA?2?$AAv?$AAc?$AAt?$AAo?$AAo?$AAl?$AAs?$AA?2?$AAc?$AAr?$AAt?$AA_?$AAb?$AAl?$AAd?$AA?2?$AAs?$AAe?$AAl?$AAf?$AA_?$AAx?$AA8?$AA6?$AA?2?$AAc@ 10157a78     LIBCMTD:getcwd.obj
 0003:00013aec       ??_C@_1CI@ICBAMKHM@?$AA?$CI?$AA?$CC?$AAI?$AAn?$AAv?$AAa?$AAl?$AAi?$AAd?$AA?5?$AAD?$AAr?$AAi?$AAv?$AAe?$AA?$CC?$AA?0?$AA0?$AA?$CJ?$AA?$AA@ 10157aec     LIBCMTD:getcwd.obj
 0003:00013b1c       ??_C@_0CP@CGEOCNHO@f?3?2dd?2vctools?2crt_bld?2self_x86?2c@ 10157b1c     LIBCMTD:chdir.obj
 0003:00013b54       ??_C@_1O@HIELJLOL@?$AA_?$AAc?$AAh?$AAd?$AAi?$AAr?$AA?$AA@ 10157b54     LIBCMTD:chdir.obj
 0003:00013b68       ??_C@_1FO@PDKBFEFB@?$AAf?$AA?3?$AA?2?$AAd?$AAd?$AA?2?$AAv?$AAc?$AAt?$AAo?$AAo?$AAl?$AAs?$AA?2?$AAc?$AAr?$AAt?$AA_?$AAb?$AAl?$AAd?$AA?2?$AAs?$AAe?$AAl?$AAf?$AA_?$AAx?$AA8?$AA6?$AA?2?$AAc@ 10157b68     LIBCMTD:chdir.obj
 0003:00013bd8       ??_C@_1BO@DPAOGEII@?$AA?$CI?$AAp?$AAa?$AAt?$AAh?$AA?5?$AA?$CB?$AA?$DN?$AA?5?$AAN?$AAU?$AAL?$AAL?$AA?$CJ?$AA?$AA@ 10157bd8     LIBCMTD:chdir.obj
 0003:00013bfc       ??_C@_1BM@JBFIAFJJ@?$AA_?$AAv?$AAs?$AAn?$AAw?$AAp?$AAr?$AAi?$AAn?$AAt?$AAf?$AA_?$AAl?$AA?$AA@ 10157bfc     LIBCMTD:vsnwprnt.obj
 0003:00013c20       ??_C@_1GE@KINELFI@?$AAf?$AA?3?$AA?2?$AAd?$AAd?$AA?2?$AAv?$AAc?$AAt?$AAo?$AAo?$AAl?$AAs?$AA?2?$AAc?$AAr?$AAt?$AA_?$AAb?$AAl?$AAd?$AA?2?$AAs?$AAe?$AAl?$AAf?$AA_?$AAx?$AA8?$AA6?$AA?2?$AAc@ 10157c20     LIBCMTD:vsnwprnt.obj
 0003:00013c98       ??_C@_1BA@KBJJGFFE@?$AAs?$AAp?$AAr?$AAi?$AAn?$AAt?$AAf?$AA?$AA@ 10157c98     LIBCMTD:sprintf.obj
 0003:00013cb0       ??_C@_1GC@BMNPEKNN@?$AAf?$AA?3?$AA?2?$AAd?$AAd?$AA?2?$AAv?$AAc?$AAt?$AAo?$AAo?$AAl?$AAs?$AA?2?$AAc?$AAr?$AAt?$AA_?$AAb?$AAl?$AAd?$AA?2?$AAs?$AAe?$AAl?$AAf?$AA_?$AAx?$AA8?$AA6?$AA?2?$AAc@ 10157cb0     LIBCMTD:sprintf.obj
 0003:00013d28       ??_C@_1FE@CEHLKAHD@?$AAi?$AAb?$AAa?$AAs?$AAe?$AA?5?$AA?$DN?$AA?$DN?$AA?5?$AA0?$AA?5?$AA?$HM?$AA?$HM?$AA?5?$AA?$CI?$AA2?$AA?5?$AA?$DM?$AA?$DN?$AA?5?$AAi?$AAb?$AAa?$AAs?$AAe?$AA?5?$AA?$CG?$AA?$CG?$AA?5?$AAi?$AAb?$AAa@ 10157d28     LIBCMTD:strtol.obj
 0003:00013d8c       ??_C@_1BA@LOLAMAJG@?$AAs?$AAt?$AAr?$AAt?$AAo?$AAx?$AAl?$AA?$AA@ 10157d8c     LIBCMTD:strtol.obj
 0003:00013da0       ??_C@_1GA@IPHKKOEI@?$AAf?$AA?3?$AA?2?$AAd?$AAd?$AA?2?$AAv?$AAc?$AAt?$AAo?$AAo?$AAl?$AAs?$AA?2?$AAc?$AAr?$AAt?$AA_?$AAb?$AAl?$AAd?$AA?2?$AAs?$AAe?$AAl?$AAf?$AA_?$AAx?$AA8?$AA6?$AA?2?$AAc@ 10157da0     LIBCMTD:strtol.obj
 0003:00013e14       ??_C@_1BA@BMMDEPNE@?$AAs?$AAt?$AAr?$AAt?$AAo?$AAx?$AAq?$AA?$AA@ 10157e14     LIBCMTD:strtoq.obj
 0003:00013e28       ??_C@_1GA@GIMEIKLC@?$AAf?$AA?3?$AA?2?$AAd?$AAd?$AA?2?$AAv?$AAc?$AAt?$AAo?$AAo?$AAl?$AAs?$AA?2?$AAc?$AAr?$AAt?$AA_?$AAb?$AAl?$AAd?$AA?2?$AAs?$AAe?$AAl?$AAf?$AA_?$AAx?$AA8?$AA6?$AA?2?$AAc@ 10157e28     LIBCMTD:strtoq.obj
 0003:00013e9c       ??_C@_1BE@KFBKGHJC@?$AA_?$AAs?$AAt?$AAr?$AAt?$AAo?$AAd?$AA_?$AAl?$AA?$AA@ 10157e9c     LIBCMTD:strtod.obj
 0003:00013eb8       ??_C@_1GA@FMJPLFPN@?$AAf?$AA?3?$AA?2?$AAd?$AAd?$AA?2?$AAv?$AAc?$AAt?$AAo?$AAo?$AAl?$AAs?$AA?2?$AAc?$AAr?$AAt?$AA_?$AAb?$AAl?$AAd?$AA?2?$AAs?$AAe?$AAl?$AAf?$AA_?$AAx?$AA8?$AA6?$AA?2?$AAc@ 10157eb8     LIBCMTD:strtod.obj
 0003:00013f2c       ??_C@_0BO@GNIAFIKK@Unknown?5Runtime?5Check?5Error?6?$AN?$AA@ 10157f2c     LIBCMTD:_error_.obj
 0003:00013f50       ??_C@_0CM@NGINOKPC@Stack?5memory?5around?5_alloca?5was?5@ 10157f50     LIBCMTD:_error_.obj
 0003:00013f84       ??_C@_0DG@HKJMLLLP@A?5local?5variable?5was?5used?5before@ 10157f84     LIBCMTD:_error_.obj
 0003:00013fc4       ??_C@_0BN@FFOINMNJ@Stack?5memory?5was?5corrupted?6?$AN?$AA@ 10157fc4     LIBCMTD:_error_.obj
 0003:00013fe8       ??_C@_0BBN@GPMLNJCF@A?5cast?5to?5a?5smaller?5data?5type?5ha@ 10157fe8     LIBCMTD:_error_.obj
 0003:00014140       ??_C@_0NN@NGPKDKPD@The?5value?5of?5ESP?5was?5not?5properl@ 10158140     LIBCMTD:_error_.obj
 0003:00014308       ??_C@_0CA@IODNCDPG@Run?9Time?5Check?5Failure?5?$CD?$CFd?5?9?5?$CFs?$AA@ 10158308     LIBCMTD:_error_.obj
 0003:00014330       ??_C@_0BE@GNBOBNCK@Unknown?5Module?5Name?$AA@ 10158330     LIBCMTD:_error_.obj
 0003:00014348       ??_C@_0BB@PFFGGCJP@Unknown?5Filename?$AA@ 10158348     LIBCMTD:_error_.obj
 0003:00014360       ??_C@_1EA@NFKNIFJP@?$AAR?$AAu?$AAn?$AA?9?$AAT?$AAi?$AAm?$AAe?$AA?5?$AAC?$AAh?$AAe?$AAc?$AAk?$AA?5?$AAF?$AAa?$AAi?$AAl?$AAu?$AAr?$AAe?$AA?5?$AA?$CD?$AA?$CF?$AAd?$AA?5?$AA?9?$AA?5?$AA?$CF?$AAs?$AA?$AA@ 10158360     LIBCMTD:_error_.obj
 0003:000143b0       ??_C@_1GM@OLMCBDMB@?$AAR?$AAu?$AAn?$AAt?$AAi?$AAm?$AAe?$AA?5?$AAC?$AAh?$AAe?$AAc?$AAk?$AA?5?$AAE?$AAr?$AAr?$AAo?$AAr?$AA?4?$AA?6?$AA?$AN?$AA?5?$AAU?$AAn?$AAa?$AAb?$AAl?$AAe?$AA?5?$AAt?$AAo@ 101583b0     LIBCMTD:_error_.obj
 0003:00014434       ??_C@_0CG@IAFNJNEE@Stack?5corrupted?5near?5unknown?5var@ 10158434     LIBCMTD:_error_.obj
 0003:00014468       ??_C@_0EJ@LJKNEOLN@Stack?5area?5around?5_alloca?5memory@ 10158468     LIBCMTD:_error_.obj
 0003:000144c0       ??_C@_08KJEDNCKC@?$CFs?$CFs?$CFs?$CFs?$AA@ 101584c0     LIBCMTD:_error_.obj
 0003:000144cc       ??_C@_02LLMPMKNF@?$DO?5?$AA@ 101584cc     LIBCMTD:_error_.obj
 0003:000144d0       ??_C@_01EEMJAFIK@?6?$AA@   101584d0     LIBCMTD:_error_.obj
 0003:000144d4       ??_C@_0BC@KIBAILCI@?$CFs?$CFs?$CFp?$CFs?$CFld?$CFs?$CFd?$CFs?$AA@ 101584d4     LIBCMTD:_error_.obj
 0003:000144f0       ??_C@_0EI@CLEPFNGI@Stack?5area?5around?5_alloca?5memory@ 101584f0     LIBCMTD:_error_.obj
 0003:00014548       ??_C@_0N@MHFFIMFG@?6Address?3?50x?$AA@ 10158548     LIBCMTD:_error_.obj
 0003:00014558       ??_C@_07DFDJCKFN@?6Size?3?5?$AA@ 10158558     LIBCMTD:_error_.obj
 0003:00014564       ??_C@_0CK@DKGBICFE@?6Allocation?5number?5within?5this?5f@ 10158564     LIBCMTD:_error_.obj
 0003:00014598       ??_C@_08OMAHNMHJ@?6Data?3?5?$DM?$AA@ 10158598     LIBCMTD:_error_.obj
 0003:000145a4       ??_C@_09FOPFMPEJ@wsprintfA?$AA@ 101585a4     LIBCMTD:_error_.obj
 0003:000145b0       ??_C@_1BG@OILDLIOJ@?$AAu?$AAs?$AAe?$AAr?$AA3?$AA2?$AA?4?$AAd?$AAl?$AAl?$AA?$AA@ 101585b0     LIBCMTD:_error_.obj
 0003:000145cc       ??_C@_05MKKEDADM@?$CF?42X?5?$AA@ 101585cc     LIBCMTD:_error_.obj
 0003:000145d4       ??_C@_0DE@OHJBPMBP@A?5variable?5is?5being?5used?5without@ 101585d4     LIBCMTD:_error_.obj
 0003:00014614       ??_C@_0BP@OGBCLIBO@Stack?5around?5_alloca?5corrupted?$AA@ 10158614     LIBCMTD:_userapi_.obj
 0003:0001463c       ??_C@_0CK@CNLNOEPB@Local?5variable?5used?5before?5initi@ 1015863c     LIBCMTD:_userapi_.obj
 0003:00014670       ??_C@_0BI@CIGMDCBH@Stack?5memory?5corruption?$AA@ 10158670     LIBCMTD:_userapi_.obj
 0003:0001468c       ??_C@_0CK@FEGOIOPB@Cast?5to?5smaller?5type?5causing?5los@ 1015868c     LIBCMTD:_userapi_.obj
 0003:000146c0       ??_C@_0BJ@HEGAHDFO@Stack?5pointer?5corruption?$AA@ 101586c0     LIBCMTD:_userapi_.obj
 0003:000146f8       ??_C@_0DP@CBBAPGOP@f?3?2dd?2vctools?2crt_bld?2self_x86?2c@ 101586f8     LIBCMTD:chkesp.obj
 0003:00014748       ??_C@_0NM@DNEDKLDF@The?5value?5of?5ESP?5was?5not?5properl@ 10158748     LIBCMTD:chkesp.obj
 0003:00014850       ??_C@_1GE@KOCFNGPB@?$AA_?$AAc?$AAo?$AAn?$AAt?$AAr?$AAo?$AAl?$AAf?$AAp?$AA_?$AAs?$AA?$CI?$AA?$CI?$AA?$CI?$AAv?$AAo?$AAi?$AAd?$AA?5?$AA?$CK?$AA?$CJ?$AA0?$AA?$CJ?$AA?0?$AA?5?$AA0?$AAx?$AA0?$AA0?$AA0?$AA1@ 10158850     LIBCMTD:fp8.obj
 0003:000148c8       ??_C@_1CK@JMKHCBEI@?$AA_?$AAs?$AAe?$AAt?$AAd?$AAe?$AAf?$AAa?$AAu?$AAl?$AAt?$AAp?$AAr?$AAe?$AAc?$AAi?$AAs?$AAi?$AAo?$AAn?$AA?$AA@ 101588c8     LIBCMTD:fp8.obj
 0003:00014900       ??_C@_1GG@PHGJJHBC@?$AAf?$AA?3?$AA?2?$AAd?$AAd?$AA?2?$AAv?$AAc?$AAt?$AAo?$AAo?$AAl?$AAs?$AA?2?$AAc?$AAr?$AAt?$AA_?$AAb?$AAl?$AAd?$AA?2?$AAs?$AAe?$AAl?$AAf?$AA_?$AAx?$AA8?$AA6?$AA?2?$AAc@ 10158900     LIBCMTD:fp8.obj
 0003:0001497c       ??_C@_1CA@CBMNPEO@?$AAs?$AAi?$AAz?$AAe?$AAI?$AAn?$AAB?$AAy?$AAt?$AAe?$AAs?$AA?5?$AA?$DO?$AA?5?$AA0?$AA?$AA@ 1015897c     LIBCMTD:cvt.obj
 0003:000149a4       ??_C@_1BC@INKAPMHI@?$AA_?$AAc?$AAf?$AAt?$AAo?$AAe?$AA_?$AAl?$AA?$AA@ 101589a4     LIBCMTD:cvt.obj
 0003:000149c0       ??_C@_1GO@NCCGBNKI@?$AAf?$AA?3?$AA?2?$AAd?$AAd?$AA?2?$AAv?$AAc?$AAt?$AAo?$AAo?$AAl?$AAs?$AA?2?$AAc?$AAr?$AAt?$AA_?$AAb?$AAl?$AAd?$AA?2?$AAs?$AAe?$AAl?$AAf?$AA_?$AAx?$AA8?$AA6?$AA?2?$AAc@ 101589c0     LIBCMTD:cvt.obj
 0003:00014a44       ??_C@_1BI@ICGGMGLK@?$AAb?$AAu?$AAf?$AA?5?$AA?$CB?$AA?$DN?$AA?5?$AAN?$AAU?$AAL?$AAL?$AA?$AA@ 10158a44     LIBCMTD:cvt.obj
 0003:00014a60       ??_C@_05KLBDPFGC@e?$CL000?$AA@ 10158a60     LIBCMTD:cvt.obj
 0003:00014a68       ??_C@_1LE@EOIFGNCJ@?$AAs?$AAt?$AAr?$AAc?$AAp?$AAy?$AA_?$AAs?$AA?$CI?$AAp?$AA?0?$AA?5?$AA?$CI?$AAs?$AAi?$AAz?$AAe?$AAI?$AAn?$AAB?$AAy?$AAt?$AAe?$AAs?$AA?5?$AA?$DN?$AA?$DN?$AA?5?$AA?$CI?$AAs?$AAi?$AAz@ 10158a68     LIBCMTD:cvt.obj
 0003:00014b40       ??_C@_1HE@NACBNDPP@?$AAs?$AAi?$AAz?$AAe?$AAI?$AAn?$AAB?$AAy?$AAt?$AAe?$AAs?$AA?5?$AA?$DO?$AA?5?$AA?$CI?$AAs?$AAi?$AAz?$AAe?$AA_?$AAt?$AA?$CJ?$AA?$CI?$AA3?$AA?5?$AA?$CL?$AA?5?$AA?$CI?$AAn?$AAd?$AAe?$AAc@ 10158b40     LIBCMTD:cvt.obj
 0003:00014bcc       ??_C@_1BE@OLBNEILL@?$AA_?$AAc?$AAf?$AAt?$AAo?$AAe?$AA2?$AA_?$AAl?$AA?$AA@ 10158bcc     LIBCMTD:cvt.obj
 0003:00014be8       ??_C@_1FC@IKIMAMJB@?$AAs?$AAi?$AAz?$AAe?$AAI?$AAn?$AAB?$AAy?$AAt?$AAe?$AAs?$AA?5?$AA?$DO?$AA?5?$AA?$CI?$AAs?$AAi?$AAz?$AAe?$AA_?$AAt?$AA?$CJ?$AA?$CI?$AA1?$AA?5?$AA?$CL?$AA?5?$AA4?$AA?5?$AA?$CL?$AA?5?$AAn@ 10158be8     LIBCMTD:cvt.obj
 0003:00014c4c       ??_C@_1BC@JOKPCIC@?$AA_?$AAc?$AAf?$AAt?$AAo?$AAa?$AA_?$AAl?$AA?$AA@ 10158c4c     LIBCMTD:cvt.obj
 0003:00014c64       ??_C@_1BC@DCPPLJL@?$AA_?$AAc?$AAf?$AAt?$AAo?$AAf?$AA_?$AAl?$AA?$AA@ 10158c64     LIBCMTD:cvt.obj
 0003:00014c7c       ??_C@_1BE@CKPDLI@?$AA_?$AAc?$AAf?$AAt?$AAo?$AAf?$AA2?$AA_?$AAl?$AA?$AA@ 10158c7c     LIBCMTD:cvt.obj
 0003:00014c94       ??_C@_1BC@MPIFPLAF@?$AA_?$AAc?$AAf?$AAt?$AAo?$AAg?$AA_?$AAl?$AA?$AA@ 10158c94     LIBCMTD:cvt.obj
 0003:00014cf0       __indefinite               10158cf0     LIBCMTD:_87disp_.obj
 0003:00014cfa       __piby2                    10158cfa     LIBCMTD:_87disp_.obj
 0003:00014d24       ??_C@_0P@MIGLKIOC@CorExitProcess?$AA@ 10158d24     LIBCMTD:crt0dat.obj
 0003:00014d38       ??_C@_1BI@BGOHAHKC@?$AAm?$AAs?$AAc?$AAo?$AAr?$AAe?$AAe?$AA?4?$AAd?$AAl?$AAl?$AA?$AA@ 10158d38     LIBCMTD:crt0dat.obj
 0003:00014d54       ??_C@_1CC@CDIPMFPD@?$AA_?$AAw?$AAp?$AAg?$AAm?$AAp?$AAt?$AAr?$AA?5?$AA?$CB?$AA?$DN?$AA?5?$AAN?$AAU?$AAL?$AAL?$AA?$AA@ 10158d54     LIBCMTD:crt0dat.obj
 0003:00014d7c       ??_C@_1BK@PNLDCCDP@?$AA_?$AAg?$AAe?$AAt?$AA_?$AAw?$AAp?$AAg?$AAm?$AAp?$AAt?$AAr?$AA?$AA@ 10158d7c     LIBCMTD:crt0dat.obj
 0003:00014da0       ??_C@_1GC@DGCPEDNJ@?$AAf?$AA?3?$AA?2?$AAd?$AAd?$AA?2?$AAv?$AAc?$AAt?$AAo?$AAo?$AAl?$AAs?$AA?2?$AAc?$AAr?$AAt?$AA_?$AAb?$AAl?$AAd?$AA?2?$AAs?$AAe?$AAl?$AAf?$AA_?$AAx?$AA8?$AA6?$AA?2?$AAc@ 10158da0     LIBCMTD:crt0dat.obj
 0003:00014e18       ??_C@_1BO@LKEBEKJP@?$AAp?$AAV?$AAa?$AAl?$AAu?$AAe?$AA?5?$AA?$CB?$AA?$DN?$AA?5?$AAN?$AAU?$AAL?$AAL?$AA?$AA@ 10158e18     LIBCMTD:crt0dat.obj
 0003:00014e3c       ??_C@_1CA@BBNAFCKO@?$AA_?$AAp?$AAg?$AAm?$AAp?$AAt?$AAr?$AA?5?$AA?$CB?$AA?$DN?$AA?5?$AAN?$AAU?$AAL?$AAL?$AA?$AA@ 10158e3c     LIBCMTD:crt0dat.obj
 0003:00014e64       ??_C@_1BI@COAAPHJK@?$AA_?$AAg?$AAe?$AAt?$AA_?$AAp?$AAg?$AAm?$AAp?$AAt?$AAr?$AA?$AA@ 10158e64     LIBCMTD:crt0dat.obj
 0003:00014e80       ??_C@_06PJIGMIJB@Client?$AA@ 10158e80     LIBCMTD:dbgheap.obj
 0003:00014e88       ??_C@_06KMEJCCGM@Ignore?$AA@ 10158e88     LIBCMTD:dbgheap.obj
 0003:00014e90       ??_C@_03OGPFLFLO@CRT?$AA@  10158e90     LIBCMTD:dbgheap.obj
 0003:00014e94       ??_C@_06EFAGIKOH@Normal?$AA@ 10158e94     LIBCMTD:dbgheap.obj
 0003:00014e9c       ??_C@_04HJMOFLDF@Free?$AA@ 10158e9c     LIBCMTD:dbgheap.obj
 0003:00014ebc       ??_C@_0DC@JEMAGEKG@Error?3?5memory?5allocation?3?5bad?5me@ 10158ebc     LIBCMTD:dbgheap.obj
 0003:00014ef8       ??_C@_0CF@BICKFLAF@Invalid?5allocation?5size?3?5?$CFIu?5byt@ 10158ef8     LIBCMTD:dbgheap.obj
 0003:00014f24       ??_C@_02DKCKIIND@?$CFs?$AA@ 10158f24     LIBCMTD:dbgheap.obj
 0003:00014f28       ??_C@_0CB@CCLOLAHO@Client?5hook?5allocation?5failure?4?6@ 10158f28     LIBCMTD:dbgheap.obj
 0003:00014f50       ??_C@_0DF@BBEGIFEK@Client?5hook?5allocation?5failure?5a@ 10158f50     LIBCMTD:dbgheap.obj
 0003:00014f90       ??_C@_1GC@DNJKKEAA@?$AAf?$AA?3?$AA?2?$AAd?$AAd?$AA?2?$AAv?$AAc?$AAt?$AAo?$AAo?$AAl?$AAs?$AA?2?$AAc?$AAr?$AAt?$AA_?$AAb?$AAl?$AAd?$AA?2?$AAs?$AAe?$AAl?$AAf?$AA_?$AAx?$AA8?$AA6?$AA?2?$AAc@ 10158f90     LIBCMTD:dbgheap.obj
 0003:00015008       ??_C@_1CE@LJFEPPMP@?$AA_?$AAC?$AAr?$AAt?$AAC?$AAh?$AAe?$AAc?$AAk?$AAM?$AAe?$AAm?$AAo?$AAr?$AAy?$AA?$CI?$AA?$CJ?$AA?$AA@ 10159008     LIBCMTD:dbgheap.obj
 0003:00015034       ??_C@_1DE@KOOKLFBB@?$AA_?$AAp?$AAF?$AAi?$AAr?$AAs?$AAt?$AAB?$AAl?$AAo?$AAc?$AAk?$AA?5?$AA?$DN?$AA?$DN?$AA?5?$AAp?$AAO?$AAl?$AAd?$AAB?$AAl?$AAo?$AAc?$AAk?$AA?$AA@ 10159034     LIBCMTD:dbgheap.obj
 0003:00015074       ??_C@_1DC@GEFKNOOL@?$AA_?$AAp?$AAL?$AAa?$AAs?$AAt?$AAB?$AAl?$AAo?$AAc?$AAk?$AA?5?$AA?$DN?$AA?$DN?$AA?5?$AAp?$AAO?$AAl?$AAd?$AAB?$AAl?$AAo?$AAc?$AAk?$AA?$AA@ 10159074     LIBCMTD:dbgheap.obj
 0003:000150b0       ??_C@_1GE@PCKLOLAO@?$AAf?$AAR?$AAe?$AAa?$AAl?$AAl?$AAo?$AAc?$AA?5?$AA?$HM?$AA?$HM?$AA?5?$AA?$CI?$AA?$CB?$AAf?$AAR?$AAe?$AAa?$AAl?$AAl?$AAo?$AAc?$AA?5?$AA?$CG?$AA?$CG?$AA?5?$AAp?$AAN?$AAe?$AAw?$AAB?$AAl@ 101590b0     LIBCMTD:dbgheap.obj
 0003:00015128       ??_C@_0DA@HFBKENN@Error?3?5possible?5heap?5corruption?5@ 10159128     LIBCMTD:dbgheap.obj
 0003:00015168       ??_C@_1IK@DCPKDGNH@?$AAp?$AAO?$AAl?$AAd?$AAB?$AAl?$AAo?$AAc?$AAk?$AA?9?$AA?$DO?$AAn?$AAL?$AAi?$AAn?$AAe?$AA?5?$AA?$DN?$AA?$DN?$AA?5?$AAI?$AAG?$AAN?$AAO?$AAR?$AAE?$AA_?$AAL?$AAI?$AAN?$AAE?$AA?5@ 10159168     LIBCMTD:dbgheap.obj
 0003:00015210       ??_C@_1EE@GFOPCECE@?$AA_?$AAC?$AAr?$AAt?$AAI?$AAs?$AAV?$AAa?$AAl?$AAi?$AAd?$AAH?$AAe?$AAa?$AAp?$AAP?$AAo?$AAi?$AAn?$AAt?$AAe?$AAr?$AA?$CI?$AAp?$AAU?$AAs?$AAe?$AAr?$AAD?$AAa?$AAt?$AAa@ 10159210     LIBCMTD:dbgheap.obj
 0003:00015268       ??_C@_0EM@LGFLMAGJ@The?5Block?5at?50x?$CFp?5was?5allocated?5@ 10159268     LIBCMTD:dbgheap.obj
 0003:000152c8       ??_C@_0FA@EFEIGJKG@Error?3?5memory?5allocation?3?5bad?5me@ 101592c8     LIBCMTD:dbgheap.obj
 0003:00015328       ??_C@_0ED@GPCPBAGP@Invalid?5allocation?5size?3?5?$CFIu?5byt@ 10159328     LIBCMTD:dbgheap.obj
 0003:00015378       ??_C@_0CE@DOFMDOL@Client?5hook?5re?9allocation?5failur@ 10159378     LIBCMTD:dbgheap.obj
 0003:000153a4       ??_C@_0DI@KKJPDPGM@Client?5hook?5re?9allocation?5failur@ 101593a4     LIBCMTD:dbgheap.obj
 0003:000153e8       ??_C@_1BI@HAPNGHDP@?$AA_?$AAe?$AAx?$AAp?$AAa?$AAn?$AAd?$AA_?$AAd?$AAb?$AAg?$AA?$AA@ 101593e8     LIBCMTD:dbgheap.obj
 0003:00015404       ??_C@_1CE@CJACEFBA@?$AAp?$AAU?$AAs?$AAe?$AAr?$AAD?$AAa?$AAt?$AAa?$AA?5?$AA?$CB?$AA?$DN?$AA?5?$AAN?$AAU?$AAL?$AAL?$AA?$AA@ 10159404     LIBCMTD:dbgheap.obj
 0003:00015430       ??_C@_1CM@MMAADDMD@?$AA_?$AAp?$AAF?$AAi?$AAr?$AAs?$AAt?$AAB?$AAl?$AAo?$AAc?$AAk?$AA?5?$AA?$DN?$AA?$DN?$AA?5?$AAp?$AAH?$AAe?$AAa?$AAd?$AA?$AA@ 10159430     LIBCMTD:dbgheap.obj
 0003:00015464       ??_C@_1CK@DMAGEMBG@?$AA_?$AAp?$AAL?$AAa?$AAs?$AAt?$AAB?$AAl?$AAo?$AAc?$AAk?$AA?5?$AA?$DN?$AA?$DN?$AA?5?$AAp?$AAH?$AAe?$AAa?$AAd?$AA?$AA@ 10159464     LIBCMTD:dbgheap.obj
 0003:00015498       ??_C@_1DM@ODCJIDCP@?$AAp?$AAH?$AAe?$AAa?$AAd?$AA?9?$AA?$DO?$AAn?$AAB?$AAl?$AAo?$AAc?$AAk?$AAU?$AAs?$AAe?$AA?5?$AA?$DN?$AA?$DN?$AA?5?$AAn?$AAB?$AAl?$AAo?$AAc?$AAk?$AAU?$AAs?$AAe?$AA?$AA@ 10159498     LIBCMTD:dbgheap.obj
 0003:000154e0       ??_C@_1HK@HPCBMDFG@?$AAp?$AAH?$AAe?$AAa?$AAd?$AA?9?$AA?$DO?$AAn?$AAL?$AAi?$AAn?$AAe?$AA?5?$AA?$DN?$AA?$DN?$AA?5?$AAI?$AAG?$AAN?$AAO?$AAR?$AAE?$AA_?$AAL?$AAI?$AAN?$AAE?$AA?5?$AA?$CG?$AA?$CG?$AA?5?$AAp@ 101594e0     LIBCMTD:dbgheap.obj
 0003:00015578       ??_C@_0IG@LEMBDCJK@HEAP?5CORRUPTION?5DETECTED?3?5after?5@ 10159578     LIBCMTD:dbgheap.obj
 0003:00015618       ??_C@_0KE@MBMNHHHN@HEAP?5CORRUPTION?5DETECTED?3?5after?5@ 10159618     LIBCMTD:dbgheap.obj
 0003:000156e0       ??_C@_0IK@PJCGLBOB@HEAP?5CORRUPTION?5DETECTED?3?5before@ 101596e0     LIBCMTD:dbgheap.obj
 0003:00015788       ??_C@_0KI@JGFOHMEB@HEAP?5CORRUPTION?5DETECTED?3?5before@ 10159788     LIBCMTD:dbgheap.obj
 0003:00015854       ??_C@_0BL@KEIPLFAC@Client?5hook?5free?5failure?4?6?$AA@ 10159854     LIBCMTD:dbgheap.obj
 0003:00015878       ??_C@_0EJ@HEIBCIMJ@The?5Block?5at?50x?$CFp?5was?5allocated?5@ 10159878     LIBCMTD:dbgheap.obj
 0003:000158d0       ??_C@_1BG@MBKOGDLD@?$AA_?$AAm?$AAs?$AAi?$AAz?$AAe?$AA_?$AAd?$AAb?$AAg?$AA?$AA@ 101598d0     LIBCMTD:dbgheap.obj
 0003:000158ec       ??_C@_0CI@JMLBEDHJ@?$CFhs?5located?5at?50x?$CFp?5is?5?$CFIu?5bytes@ 101598ec     LIBCMTD:dbgheap.obj
 0003:00015920       ??_C@_0EG@DGJMPDBH@?$CFhs?5located?5at?50x?$CFp?5is?5?$CFIu?5bytes@ 10159920     LIBCMTD:dbgheap.obj
 0003:00015978       ??_C@_0IC@BBJIOOJH@HEAP?5CORRUPTION?5DETECTED?3?5on?5top@ 10159978     LIBCMTD:dbgheap.obj
 0003:00015a18       ??_C@_0KA@IHNJJKPL@HEAP?5CORRUPTION?5DETECTED?3?5on?5top@ 10159a18     LIBCMTD:dbgheap.obj
 0003:00015ad8       ??_C@_07OHKEFPKJ@DAMAGED?$AA@ 10159ad8     LIBCMTD:dbgheap.obj
 0003:00015ae4       ??_C@_0CL@HNNNMKMJ@_heapchk?5fails?5with?5unknown?5retu@ 10159ae4     LIBCMTD:dbgheap.obj
 0003:00015b18       ??_C@_0CC@MFFCHFHO@_heapchk?5fails?5with?5_HEAPBADPTR?4@ 10159b18     LIBCMTD:dbgheap.obj
 0003:00015b40       ??_C@_0CC@MJGLGBDG@_heapchk?5fails?5with?5_HEAPBADEND?4@ 10159b40     LIBCMTD:dbgheap.obj
 0003:00015b68       ??_C@_0CD@CPKEAPBD@_heapchk?5fails?5with?5_HEAPBADNODE@ 10159b68     LIBCMTD:dbgheap.obj
 0003:00015b94       ??_C@_0CE@MKKHMBMK@_heapchk?5fails?5with?5_HEAPBADBEGI@ 10159b94     LIBCMTD:dbgheap.obj
 0003:00015bc0       ??_C@_1BO@GJFDNMNF@?$AA_?$AAC?$AAr?$AAt?$AAS?$AAe?$AAt?$AAD?$AAb?$AAg?$AAF?$AAl?$AAa?$AAg?$AA?$AA@ 10159bc0     LIBCMTD:dbgheap.obj
 0003:00015be8       ??_C@_1BHO@NNANJNF@?$AA?$CI?$AAf?$AAN?$AAe?$AAw?$AAB?$AAi?$AAt?$AAs?$AA?$DN?$AA?$DN?$AA_?$AAC?$AAR?$AAT?$AAD?$AAB?$AAG?$AA_?$AAR?$AAE?$AAP?$AAO?$AAR?$AAT?$AA_?$AAF?$AAL?$AAA?$AAG?$AA?$CJ?$AA?5@ 10159be8     LIBCMTD:dbgheap.obj
 0003:00015db4       ??_C@_1DE@GJCKCKEC@?$AA_?$AAC?$AAr?$AAt?$AAD?$AAo?$AAF?$AAo?$AAr?$AAA?$AAl?$AAl?$AAC?$AAl?$AAi?$AAe?$AAn?$AAt?$AAO?$AAb?$AAj?$AAe?$AAc?$AAt?$AAs?$AA?$AA@ 10159db4     LIBCMTD:dbgheap.obj
 0003:00015df4       ??_C@_1BI@CJGCEEDL@?$AAp?$AAf?$AAn?$AA?5?$AA?$CB?$AA?$DN?$AA?5?$AAN?$AAU?$AAL?$AAL?$AA?$AA@ 10159df4     LIBCMTD:dbgheap.obj
 0003:00015e10       ??_C@_0CB@EAAIGELO@Bad?5memory?5block?5found?5at?50x?$CFp?4?6@ 10159e10     LIBCMTD:dbgheap.obj
 0003:00015e38       ??_C@_0DP@LEFMFBOD@Bad?5memory?5block?5found?5at?50x?$CFp?4?6@ 10159e38     LIBCMTD:dbgheap.obj
 0003:00015e84       ??_C@_1CE@NJJKELF@?$AA_?$AAC?$AAr?$AAt?$AAM?$AAe?$AAm?$AAC?$AAh?$AAe?$AAc?$AAk?$AAp?$AAo?$AAi?$AAn?$AAt?$AA?$AA@ 10159e84     LIBCMTD:dbgheap.obj
 0003:00015eb0       ??_C@_1BM@MIMANDHC@?$AAs?$AAt?$AAa?$AAt?$AAe?$AA?5?$AA?$CB?$AA?$DN?$AA?5?$AAN?$AAU?$AAL?$AAL?$AA?$AA@ 10159eb0     LIBCMTD:dbgheap.obj
 0003:00015ed4       ??_C@_1CC@DFPEDFBP@?$AAn?$AAe?$AAw?$AAS?$AAt?$AAa?$AAt?$AAe?$AA?5?$AA?$CB?$AA?$DN?$AA?5?$AAN?$AAU?$AAL?$AAL?$AA?$AA@ 10159ed4     LIBCMTD:dbgheap.obj
 0003:00015efc       ??_C@_1CC@DHPFEMMN@?$AAo?$AAl?$AAd?$AAS?$AAt?$AAa?$AAt?$AAe?$AA?5?$AA?$CB?$AA?$DN?$AA?5?$AAN?$AAU?$AAL?$AAL?$AA?$AA@ 10159efc     LIBCMTD:dbgheap.obj
 0003:00015f24       ??_C@_1CE@PDIENACM@?$AA_?$AAC?$AAr?$AAt?$AAM?$AAe?$AAm?$AAD?$AAi?$AAf?$AAf?$AAe?$AAr?$AAe?$AAn?$AAc?$AAe?$AA?$AA@ 10159f24     LIBCMTD:dbgheap.obj
 0003:00015f50       ??_C@_0BH@GFGKJDCO@Object?5dump?5complete?4?6?$AA@ 10159f50     LIBCMTD:dbgheap.obj
 0003:00015f6c       ??_C@_0DA@MDLBNIBM@crt?5block?5at?50x?$CFp?0?5subtype?5?$CFx?0?5?$CF@ 10159f6c     LIBCMTD:dbgheap.obj
 0003:00015fa8       ??_C@_0CH@FAGDDGPN@normal?5block?5at?50x?$CFp?0?5?$CFIu?5bytes?5@ 10159fa8     LIBCMTD:dbgheap.obj
 0003:00015fd8       ??_C@_0DD@GHNAAKBB@client?5block?5at?50x?$CFp?0?5subtype?5?$CFx@ 10159fd8     LIBCMTD:dbgheap.obj
 0003:00016018       ??_C@_06PKLGBFGM@?$HL?$CFld?$HN?5?$AA@ 1015a018     LIBCMTD:dbgheap.obj
 0003:00016020       ??_C@_0L@JMEFFCCJ@?$CFhs?$CI?$CFd?$CJ?5?3?5?$AA@ 1015a020     LIBCMTD:dbgheap.obj
 0003:00016030       ??_C@_0BE@OIEFNFL@?$CDFile?5Error?$CD?$CI?$CFd?$CJ?5?3?5?$AA@ 1015a030     LIBCMTD:dbgheap.obj
 0003:00016048       ??_C@_0BE@KCIPKCIA@Dumping?5objects?5?9?$DO?6?$AA@ 1015a048     LIBCMTD:dbgheap.obj
 0003:00016060       ??_C@_0BA@HJBKCELP@?5Data?3?5?$DM?$CFs?$DO?5?$CFs?6?$AA@ 1015a060     LIBCMTD:dbgheap.obj
 0003:00016074       ??_C@_1BI@KALLJECN@?$AA?$CI?$AA?$CK?$AA_?$AAe?$AAr?$AAr?$AAn?$AAo?$AA?$CI?$AA?$CJ?$AA?$CJ?$AA?$AA@ 1015a074     LIBCMTD:dbgheap.obj
 0003:00016090       ??_C@_1CG@LPFIACGM@?$AA_?$AAp?$AAr?$AAi?$AAn?$AAt?$AAM?$AAe?$AAm?$AAB?$AAl?$AAo?$AAc?$AAk?$AAD?$AAa?$AAt?$AAa?$AA?$AA@ 1015a090     LIBCMTD:dbgheap.obj
 0003:000160c0       ??_C@_0BI@JBFPOEJA@Detected?5memory?5leaks?$CB?6?$AA@ 1015a0c0     LIBCMTD:dbgheap.obj
 0003:000160dc       ??_C@_0BP@DEDHGGGI@Total?5allocations?3?5?$CFId?5bytes?4?6?$AA@ 1015a0dc     LIBCMTD:dbgheap.obj
 0003:00016104       ??_C@_0CB@BLHDAFNE@Largest?5number?5used?3?5?$CFId?5bytes?4?6@ 1015a104     LIBCMTD:dbgheap.obj
 0003:0001612c       ??_C@_0BO@DACNIABB@?$CFId?5bytes?5in?5?$CFId?5?$CFhs?5Blocks?4?6?$AA@ 1015a12c     LIBCMTD:dbgheap.obj
 0003:00016150       ??_C@_1CM@MPNIBKGK@?$AA_?$AAC?$AAr?$AAt?$AAM?$AAe?$AAm?$AAD?$AAu?$AAm?$AAp?$AAS?$AAt?$AAa?$AAt?$AAi?$AAs?$AAt?$AAi?$AAc?$AAs?$AA?$AA@ 1015a150     LIBCMTD:dbgheap.obj
 0003:00016184       ??_C@_1DK@LFLKFPDA@?$AAo?$AAf?$AAf?$AAs?$AAe?$AAt?$AA?5?$AA?$DN?$AA?$DN?$AA?5?$AA0?$AA?5?$AA?$HM?$AA?$HM?$AA?5?$AAo?$AAf?$AAf?$AAs?$AAe?$AAt?$AA?5?$AA?$DM?$AA?5?$AAs?$AAi?$AAz?$AAe?$AA?$AA@ 1015a184     LIBCMTD:dbgheap.obj
 0003:000161cc       ??_C@_1DG@DONCJBBJ@?$AA_?$AAa?$AAl?$AAi?$AAg?$AAn?$AAe?$AAd?$AA_?$AAo?$AAf?$AAf?$AAs?$AAe?$AAt?$AA_?$AAm?$AAa?$AAl?$AAl?$AAo?$AAc?$AA_?$AAd?$AAb?$AAg?$AA?$AA@ 1015a1cc     LIBCMTD:dbgheap.obj
 0003:0001620c       ??_C@_1CE@NPMGPNNP@?$AAI?$AAS?$AA_?$AA2?$AA_?$AAP?$AAO?$AAW?$AA_?$AAN?$AA?$CI?$AAa?$AAl?$AAi?$AAg?$AAn?$AA?$CJ?$AA?$AA@ 1015a20c     LIBCMTD:dbgheap.obj
 0003:00016238       ??_C@_1DI@NINIKFFK@?$AA_?$AAa?$AAl?$AAi?$AAg?$AAn?$AAe?$AAd?$AA_?$AAo?$AAf?$AAf?$AAs?$AAe?$AAt?$AA_?$AAr?$AAe?$AAa?$AAl?$AAl?$AAo?$AAc?$AA_?$AAd?$AAb?$AAg?$AA?$AA@ 1015a238     LIBCMTD:dbgheap.obj
 0003:0001627c       ??_C@_0DL@PGHMMKNE@Damage?5before?50x?$CFp?5which?5was?5all@ 1015a27c     LIBCMTD:dbgheap.obj
 0003:000162c8       ??_C@_0EI@NDNJMAJK@The?5block?5at?50x?$CFp?5was?5not?5alloca@ 1015a2c8     LIBCMTD:dbgheap.obj
 0003:00016320       ??_C@_0EF@PGELACII@The?5block?5at?50x?$CFp?5was?5not?5alloca@ 1015a320     LIBCMTD:dbgheap.obj
 0003:00016374       ??_C@_1CG@CEGMHIMN@?$AA_?$AAa?$AAl?$AAi?$AAg?$AAn?$AAe?$AAd?$AA_?$AAm?$AAs?$AAi?$AAz?$AAe?$AA_?$AAd?$AAb?$AAg?$AA?$AA@ 1015a374     LIBCMTD:dbgheap.obj
 0003:000163a4       ??_C@_1CC@MOBIKHH@?$AAm?$AAe?$AAm?$AAb?$AAl?$AAo?$AAc?$AAk?$AA?5?$AA?$CB?$AA?$DN?$AA?5?$AAN?$AAU?$AAL?$AAL?$AA?$AA@ 1015a3a4     LIBCMTD:dbgheap.obj
 0003:000163d0       ??_C@_1HG@KNCBMCDD@?$AAf?$AA?3?$AA?2?$AAd?$AAd?$AA?2?$AAv?$AAc?$AAt?$AAo?$AAo?$AAl?$AAs?$AA?2?$AAc?$AAr?$AAt?$AA_?$AAb?$AAl?$AAd?$AA?2?$AAs?$AAe?$AAl?$AAf?$AA_?$AAx?$AA8?$AA6?$AA?2?$AAc@ 1015a3d0     LIBCMTD:typname.obj
 0003:00016460       ??_C@_1CK@GELGGBDK@?$AAp?$AAN?$AAo?$AAd?$AAe?$AA?9?$AA?$DO?$AA_?$AAN?$AAe?$AAx?$AAt?$AA?5?$AA?$CB?$AA?$DN?$AA?5?$AAN?$AAU?$AAL?$AAL?$AA?$AA@ 1015a460     LIBCMTD:typname.obj
 0003:00016498       ??_C@_1JK@NAFNEPGC@?$AAs?$AAt?$AAr?$AAc?$AAp?$AAy?$AA_?$AAs?$AA?5?$AA?$CI?$AA?$CI?$AAc?$AAh?$AAa?$AAr?$AA?5?$AA?$CK?$AA?$CJ?$AA?$CI?$AA?$CI?$AAt?$AAy?$AAp?$AAe?$AA_?$AAi?$AAn?$AAf?$AAo?$AA?5?$AA?$CK?$AA?$CJ@ 1015a498     LIBCMTD:typname.obj
 0003:00016550       ??_C@_1CM@OOICDMK@?$AAt?$AAy?$AAp?$AAe?$AA_?$AAi?$AAn?$AAf?$AAo?$AA?3?$AA?3?$AA_?$AAN?$AAa?$AAm?$AAe?$AA_?$AAb?$AAa?$AAs?$AAe?$AA?$AA@ 1015a550     LIBCMTD:typname.obj
 0003:00016588       ??_C@_1GI@EAJKJPED@?$AAs?$AAt?$AAr?$AAc?$AAp?$AAy?$AA_?$AAs?$AA?5?$AA?$CI?$AAp?$AAT?$AAm?$AAp?$AAT?$AAy?$AAp?$AAe?$AAN?$AAa?$AAm?$AAe?$AA?0?$AA?5?$AAl?$AAe?$AAn?$AA?$CL?$AA2?$AA?0?$AA?5?$AA?$CI@ 1015a588     LIBCMTD:typname.obj
 0003:00016604       ??_C@_1DO@OJJLFJPE@?$AAt?$AAy?$AAp?$AAe?$AA_?$AAi?$AAn?$AAf?$AAo?$AA?3?$AA?3?$AA_?$AAN?$AAa?$AAm?$AAe?$AA_?$AAb?$AAa?$AAs?$AAe?$AA_?$AAi?$AAn?$AAt?$AAe?$AAr?$AAn?$AAa?$AAl?$AA?$AA@ 1015a604     LIBCMTD:typname.obj
 0003:00016650       ??_C@_1BO@BKOMIGKJ@?$AAr?$AAu?$AAn?$AAt?$AAi?$AAm?$AAe?$AA?5?$AAe?$AAr?$AAr?$AAo?$AAr?$AA?5?$AA?$AA@ 1015a650     LIBCMTD:crt0msg.obj
 0003:00016674       ??_C@_15JNBOKNOG@?$AA?$AN?$AA?6?$AA?$AA@ 1015a674     LIBCMTD:crt0msg.obj
 0003:0001667c       ??_C@_1BM@JBBEPPHI@?$AAT?$AAL?$AAO?$AAS?$AAS?$AA?5?$AAe?$AAr?$AAr?$AAo?$AAr?$AA?$AN?$AA?6?$AA?$AA@ 1015a67c     LIBCMTD:crt0msg.obj
 0003:000166a0       ??_C@_1BK@KMOMNAAI@?$AAS?$AAI?$AAN?$AAG?$AA?5?$AAe?$AAr?$AAr?$AAo?$AAr?$AA?$AN?$AA?6?$AA?$AA@ 1015a6a0     LIBCMTD:crt0msg.obj
 0003:000166c0       ??_C@_1BO@BFCDCGC@?$AAD?$AAO?$AAM?$AAA?$AAI?$AAN?$AA?5?$AAe?$AAr?$AAr?$AAo?$AAr?$AA?$AN?$AA?6?$AA?$AA@ 1015a6c0     LIBCMTD:crt0msg.obj
 0003:000166e8       ??_C@_1BOO@KGEDBGAJ@?$AAR?$AA6?$AA0?$AA3?$AA3?$AA?$AN?$AA?6?$AA?9?$AA?5?$AAA?$AAt?$AAt?$AAe?$AAm?$AAp?$AAt?$AA?5?$AAt?$AAo?$AA?5?$AAu?$AAs?$AAe?$AA?5?$AAM?$AAS?$AAI?$AAL?$AA?5?$AAc?$AAo?$AAd@ 1015a6e8     LIBCMTD:crt0msg.obj
 0003:00016938       ??_C@_1GG@GOPILAJP@?$AAR?$AA6?$AA0?$AA3?$AA2?$AA?$AN?$AA?6?$AA?9?$AA?5?$AAn?$AAo?$AAt?$AA?5?$AAe?$AAn?$AAo?$AAu?$AAg?$AAh?$AA?5?$AAs?$AAp?$AAa?$AAc?$AAe?$AA?5?$AAf?$AAo?$AAr?$AA?5?$AAl?$AAo@ 1015a938     LIBCMTD:crt0msg.obj
 0003:000169b8       ??_C@_1MG@ENCOOIDF@?$AAR?$AA6?$AA0?$AA3?$AA1?$AA?$AN?$AA?6?$AA?9?$AA?5?$AAA?$AAt?$AAt?$AAe?$AAm?$AAp?$AAt?$AA?5?$AAt?$AAo?$AA?5?$AAi?$AAn?$AAi?$AAt?$AAi?$AAa?$AAl?$AAi?$AAz?$AAe?$AA?5?$AAt@ 1015a9b8     LIBCMTD:crt0msg.obj
 0003:00016aa8       ??_C@_1DO@BMFCDCD@?$AAR?$AA6?$AA0?$AA3?$AA0?$AA?$AN?$AA?6?$AA?9?$AA?5?$AAC?$AAR?$AAT?$AA?5?$AAn?$AAo?$AAt?$AA?5?$AAi?$AAn?$AAi?$AAt?$AAi?$AAa?$AAl?$AAi?$AAz?$AAe?$AAd?$AA?$AN?$AA?6?$AA?$AA@ 1015aaa8     LIBCMTD:crt0msg.obj
 0003:00016af8       ??_C@_1EK@HHFLMAOL@?$AAR?$AA6?$AA0?$AA2?$AA8?$AA?$AN?$AA?6?$AA?9?$AA?5?$AAu?$AAn?$AAa?$AAb?$AAl?$AAe?$AA?5?$AAt?$AAo?$AA?5?$AAi?$AAn?$AAi?$AAt?$AAi?$AAa?$AAl?$AAi?$AAz?$AAe?$AA?5?$AAh?$AAe@ 1015aaf8     LIBCMTD:crt0msg.obj
 0003:00016b50       ??_C@_1GK@MFGOKLAG@?$AAR?$AA6?$AA0?$AA2?$AA7?$AA?$AN?$AA?6?$AA?9?$AA?5?$AAn?$AAo?$AAt?$AA?5?$AAe?$AAn?$AAo?$AAu?$AAg?$AAh?$AA?5?$AAs?$AAp?$AAa?$AAc?$AAe?$AA?5?$AAf?$AAo?$AAr?$AA?5?$AAl?$AAo@ 1015ab50     LIBCMTD:crt0msg.obj
 0003:00016bd0       ??_C@_1GK@MCAAGJMO@?$AAR?$AA6?$AA0?$AA2?$AA6?$AA?$AN?$AA?6?$AA?9?$AA?5?$AAn?$AAo?$AAt?$AA?5?$AAe?$AAn?$AAo?$AAu?$AAg?$AAh?$AA?5?$AAs?$AAp?$AAa?$AAc?$AAe?$AA?5?$AAf?$AAo?$AAr?$AA?5?$AAs?$AAt@ 1015abd0     LIBCMTD:crt0msg.obj
 0003:00016c50       ??_C@_1EM@MAADIHMB@?$AAR?$AA6?$AA0?$AA2?$AA5?$AA?$AN?$AA?6?$AA?9?$AA?5?$AAp?$AAu?$AAr?$AAe?$AA?5?$AAv?$AAi?$AAr?$AAt?$AAu?$AAa?$AAl?$AA?5?$AAf?$AAu?$AAn?$AAc?$AAt?$AAi?$AAo?$AAn?$AA?5?$AAc@ 1015ac50     LIBCMTD:crt0msg.obj
 0003:00016cb0       ??_C@_1GK@FHCKBEFA@?$AAR?$AA6?$AA0?$AA2?$AA4?$AA?$AN?$AA?6?$AA?9?$AA?5?$AAn?$AAo?$AAt?$AA?5?$AAe?$AAn?$AAo?$AAu?$AAg?$AAh?$AA?5?$AAs?$AAp?$AAa?$AAc?$AAe?$AA?5?$AAf?$AAo?$AAr?$AA?5?$AA_?$AAo@ 1015acb0     LIBCMTD:crt0msg.obj
 0003:00016d30       ??_C@_1FC@ECHBIFBC@?$AAR?$AA6?$AA0?$AA1?$AA9?$AA?$AN?$AA?6?$AA?9?$AA?5?$AAu?$AAn?$AAa?$AAb?$AAl?$AAe?$AA?5?$AAt?$AAo?$AA?5?$AAo?$AAp?$AAe?$AAn?$AA?5?$AAc?$AAo?$AAn?$AAs?$AAo?$AAl?$AAe?$AA?5@ 1015ad30     LIBCMTD:crt0msg.obj
 0003:00016d98       ??_C@_1EC@JIBHAOPH@?$AAR?$AA6?$AA0?$AA1?$AA8?$AA?$AN?$AA?6?$AA?9?$AA?5?$AAu?$AAn?$AAe?$AAx?$AAp?$AAe?$AAc?$AAt?$AAe?$AAd?$AA?5?$AAh?$AAe?$AAa?$AAp?$AA?5?$AAe?$AAr?$AAr?$AAo?$AAr?$AA?$AN?$AA?6@ 1015ad98     LIBCMTD:crt0msg.obj
 0003:00016de8       ??_C@_1FK@BEOGODMC@?$AAR?$AA6?$AA0?$AA1?$AA7?$AA?$AN?$AA?6?$AA?9?$AA?5?$AAu?$AAn?$AAe?$AAx?$AAp?$AAe?$AAc?$AAt?$AAe?$AAd?$AA?5?$AAm?$AAu?$AAl?$AAt?$AAi?$AAt?$AAh?$AAr?$AAe?$AAa?$AAd?$AA?5@ 1015ade8     LIBCMTD:crt0msg.obj
 0003:00016e58       ??_C@_1FI@LOGNIKDM@?$AAR?$AA6?$AA0?$AA1?$AA6?$AA?$AN?$AA?6?$AA?9?$AA?5?$AAn?$AAo?$AAt?$AA?5?$AAe?$AAn?$AAo?$AAu?$AAg?$AAh?$AA?5?$AAs?$AAp?$AAa?$AAc?$AAe?$AA?5?$AAf?$AAo?$AAr?$AA?5?$AAt?$AAh@ 1015ae58     LIBCMTD:crt0msg.obj
 0003:00016ec8       ??_C@_1EG@BEHAGFJD@?$AAR?$AA6?$AA0?$AA1?$AA0?$AA?$AN?$AA?6?$AA?9?$AA?5?$AAa?$AAb?$AAo?$AAr?$AAt?$AA?$CI?$AA?$CJ?$AA?5?$AAh?$AAa?$AAs?$AA?5?$AAb?$AAe?$AAe?$AAn?$AA?5?$AAc?$AAa?$AAl?$AAl?$AAe?$AAd@ 1015aec8     LIBCMTD:crt0msg.obj
 0003:00016f20       ??_C@_1FI@HONFMGBI@?$AAR?$AA6?$AA0?$AA0?$AA9?$AA?$AN?$AA?6?$AA?9?$AA?5?$AAn?$AAo?$AAt?$AA?5?$AAe?$AAn?$AAo?$AAu?$AAg?$AAh?$AA?5?$AAs?$AAp?$AAa?$AAc?$AAe?$AA?5?$AAf?$AAo?$AAr?$AA?5?$AAe?$AAn@ 1015af20     LIBCMTD:crt0msg.obj
 0003:00016f90       ??_C@_1FE@LLNEDJMD@?$AAR?$AA6?$AA0?$AA0?$AA8?$AA?$AN?$AA?6?$AA?9?$AA?5?$AAn?$AAo?$AAt?$AA?5?$AAe?$AAn?$AAo?$AAu?$AAg?$AAh?$AA?5?$AAs?$AAp?$AAa?$AAc?$AAe?$AA?5?$AAf?$AAo?$AAr?$AA?5?$AAa?$AAr@ 1015af90     LIBCMTD:crt0msg.obj
 0003:00016ff8       ??_C@_1FK@PGACCAFB@?$AAR?$AA6?$AA0?$AA0?$AA2?$AA?$AN?$AA?6?$AA?9?$AA?5?$AAf?$AAl?$AAo?$AAa?$AAt?$AAi?$AAn?$AAg?$AA?5?$AAp?$AAo?$AAi?$AAn?$AAt?$AA?5?$AAs?$AAu?$AAp?$AAp?$AAo?$AAr?$AAt?$AA?5@ 1015aff8     LIBCMTD:crt0msg.obj
 0003:00017140       ??_C@_1EK@MBDPDCGA@?$AAM?$AAi?$AAc?$AAr?$AAo?$AAs?$AAo?$AAf?$AAt?$AA?5?$AAV?$AAi?$AAs?$AAu?$AAa?$AAl?$AA?5?$AAC?$AA?$CL?$AA?$CL?$AA?5?$AAR?$AAu?$AAn?$AAt?$AAi?$AAm?$AAe?$AA?5?$AAL?$AAi?$AAb@ 1015b140     LIBCMTD:crt0msg.obj
 0003:00017198       ??_C@_1IG@NMONDPP@?$AAw?$AAc?$AAs?$AAc?$AAa?$AAt?$AA_?$AAs?$AA?$CI?$AAo?$AAu?$AAt?$AAm?$AAs?$AAg?$AA?0?$AA?5?$AA?$CI?$AAs?$AAi?$AAz?$AAe?$AAo?$AAf?$AA?$CI?$AAo?$AAu?$AAt?$AAm?$AAs?$AAg?$AA?$CJ@ 1015b198     LIBCMTD:crt0msg.obj
 0003:00017238       ??_C@_15IABLJNFO@?$AA?6?$AA?6?$AA?$AA@ 1015b238     LIBCMTD:crt0msg.obj
 0003:00017240       ??_C@_1IA@DCJGKHFO@?$AAw?$AAc?$AAs?$AAc?$AAa?$AAt?$AA_?$AAs?$AA?$CI?$AAo?$AAu?$AAt?$AAm?$AAs?$AAg?$AA?0?$AA?5?$AA?$CI?$AAs?$AAi?$AAz?$AAe?$AAo?$AAf?$AA?$CI?$AAo?$AAu?$AAt?$AAm?$AAs?$AAg?$AA?$CJ@ 1015b240     LIBCMTD:crt0msg.obj
 0003:000172dc       ??_C@_17LGKOMLJ@?$AA?4?$AA?4?$AA?4?$AA?$AA@ 1015b2dc     LIBCMTD:crt0msg.obj
 0003:000172e8       ??_C@_1HI@FLHKGEBE@?$AAw?$AAc?$AAs?$AAn?$AAc?$AAp?$AAy?$AA_?$AAs?$AA?$CI?$AAp?$AAc?$AAh?$AA?0?$AA?5?$AAp?$AAr?$AAo?$AAg?$AAn?$AAa?$AAm?$AAe?$AA_?$AAs?$AAi?$AAz?$AAe?$AA?5?$AA?9?$AA?5?$AA?$CI@ 1015b2e8     LIBCMTD:crt0msg.obj
 0003:00017378       ??_C@_1CO@EAEJAADC@?$AA?$DM?$AAp?$AAr?$AAo?$AAg?$AAr?$AAa?$AAm?$AA?5?$AAn?$AAa?$AAm?$AAe?$AA?5?$AAu?$AAn?$AAk?$AAn?$AAo?$AAw?$AAn?$AA?$DO?$AA?$AA@ 1015b378     LIBCMTD:crt0msg.obj
 0003:000173b0       ??_C@_1HK@FJJNAABO@?$AAw?$AAc?$AAs?$AAc?$AAp?$AAy?$AA_?$AAs?$AA?$CI?$AAp?$AAr?$AAo?$AAg?$AAn?$AAa?$AAm?$AAe?$AA?0?$AA?5?$AAp?$AAr?$AAo?$AAg?$AAn?$AAa?$AAm?$AAe?$AA_?$AAs?$AAi?$AAz?$AAe@ 1015b3b0     LIBCMTD:crt0msg.obj
 0003:00017444       ??_C@_1DE@JNGNBFGO@?$AAR?$AAu?$AAn?$AAt?$AAi?$AAm?$AAe?$AA?5?$AAE?$AAr?$AAr?$AAo?$AAr?$AA?$CB?$AA?6?$AA?6?$AAP?$AAr?$AAo?$AAg?$AAr?$AAa?$AAm?$AA?3?$AA?5?$AA?$AA@ 1015b444     LIBCMTD:crt0msg.obj
 0003:00017488       ??_C@_1KO@BKLCKNFL@?$AAw?$AAc?$AAs?$AAc?$AAp?$AAy?$AA_?$AAs?$AA?$CI?$AAo?$AAu?$AAt?$AAm?$AAs?$AAg?$AA?0?$AA?5?$AA?$CI?$AAs?$AAi?$AAz?$AAe?$AAo?$AAf?$AA?$CI?$AAo?$AAu?$AAt?$AAm?$AAs?$AAg?$AA?$CJ@ 1015b488     LIBCMTD:crt0msg.obj
 0003:00017558       ??_C@_1BI@EAHMBMEC@?$AA_?$AAN?$AAM?$AAS?$AAG?$AA_?$AAW?$AAR?$AAI?$AAT?$AAE?$AA?$AA@ 1015b558     LIBCMTD:crt0msg.obj
 0003:00017578       ??_C@_1GC@HKOJBOFF@?$AAf?$AA?3?$AA?2?$AAd?$AAd?$AA?2?$AAv?$AAc?$AAt?$AAo?$AAo?$AAl?$AAs?$AA?2?$AAc?$AAr?$AAt?$AA_?$AAb?$AAl?$AAd?$AA?2?$AAs?$AAe?$AAl?$AAf?$AA_?$AAx?$AA8?$AA6?$AA?2?$AAc@ 1015b578     LIBCMTD:crt0msg.obj
 0003:000175f0       ??_C@_1GO@NGIGJNHH@?$AAs?$AAt?$AAr?$AAn?$AAc?$AAp?$AAy?$AA_?$AAs?$AA?$CI?$AA?$CK?$AAs?$AAt?$AAr?$AAa?$AAd?$AAd?$AAr?$AAe?$AAs?$AAs?$AA?0?$AA?5?$AAo?$AAu?$AAt?$AAs?$AAi?$AAz?$AAe?$AA?0?$AA?5@ 1015b5f0     LIBCMTD:inithelp.obj
 0003:00017674       ??_C@_1CA@KHHCPEI@?$AA_?$AA_?$AAg?$AAe?$AAt?$AAl?$AAo?$AAc?$AAa?$AAl?$AAe?$AAi?$AAn?$AAf?$AAo?$AA?$AA@ 1015b674     LIBCMTD:inithelp.obj
 0003:000176a0       ??_C@_1GE@PLPIMDHG@?$AAf?$AA?3?$AA?2?$AAd?$AAd?$AA?2?$AAv?$AAc?$AAt?$AAo?$AAo?$AAl?$AAs?$AA?2?$AAc?$AAr?$AAt?$AA_?$AAb?$AAl?$AAd?$AA?2?$AAs?$AAe?$AAl?$AAf?$AA_?$AAx?$AA8?$AA6?$AA?2?$AAc@ 1015b6a0     LIBCMTD:inithelp.obj
 0003:00017718       ??_C@_0DC@CFDMMFIG@f?3?2dd?2vctools?2crt_bld?2self_x86?2c@ 1015b718     LIBCMTD:inithelp.obj
 0003:00017754       ??_C@_0CP@BNKDODJJ@f?3?2dd?2vctools?2crt_bld?2self_x86?2c@ 1015b754     LIBCMTD:_file.obj
 0003:0001778c       ??_C@_0DB@OLNNDFNH@f?3?2dd?2vctools?2crt_bld?2self_x86?2c@ 1015b78c     LIBCMTD:_sftbuf.obj
 0003:000177c8       ??_C@_1GC@DGAFOCMO@?$AAf?$AA?3?$AA?2?$AAd?$AAd?$AA?2?$AAv?$AAc?$AAt?$AAo?$AAo?$AAl?$AAs?$AA?2?$AAc?$AAr?$AAt?$AA_?$AAb?$AAl?$AAd?$AA?2?$AAs?$AAe?$AAl?$AAf?$AA_?$AAx?$AA8?$AA6?$AA?2?$AAc@ 1015b7c8     LIBCMTD:_sftbuf.obj
 0003:00017840       ??_C@_1BI@MFCLPIBM@?$AAs?$AAt?$AAr?$AA?5?$AA?$CB?$AA?$DN?$AA?5?$AAN?$AAU?$AAL?$AAL?$AA?$AA@ 1015b840     LIBCMTD:_sftbuf.obj
 0003:0001785c       ??_C@_1CO@KCKAACMI@?$AAf?$AAl?$AAa?$AAg?$AA?5?$AA?$DN?$AA?$DN?$AA?5?$AA0?$AA?5?$AA?$HM?$AA?$HM?$AA?5?$AAf?$AAl?$AAa?$AAg?$AA?5?$AA?$DN?$AA?$DN?$AA?5?$AA1?$AA?$AA@ 1015b85c     LIBCMTD:_sftbuf.obj
 0003:00017894       ??_C@_1O@CEDCILHN@?$AA?$CI?$AAn?$AAu?$AAl?$AAl?$AA?$CJ?$AA?$AA@ 1015b894     LIBCMTD:output.obj
 0003:000178a4       ??_C@_06OJHGLDPL@?$CInull?$CJ?$AA@ 1015b8a4     LIBCMTD:output.obj
 0003:000178b0       ___lookuptable             1015b8b0     LIBCMTD:output.obj
 0003:0001791c       ??_C@_0DA@NFBEBPEE@f?3?2dd?2vctools?2crt_bld?2self_x86?2c@ 1015b91c     LIBCMTD:output.obj
 0003:00017958       ??_C@_1EK@PNGFDECN@?$AA?$CI?$AA?$CC?$AA?8?$AAn?$AA?8?$AA?5?$AAf?$AAo?$AAr?$AAm?$AAa?$AAt?$AA?5?$AAs?$AAp?$AAe?$AAc?$AAi?$AAf?$AAi?$AAe?$AAr?$AA?5?$AAd?$AAi?$AAs?$AAa?$AAb?$AAl?$AAe?$AAd?$AA?$CC@ 1015b958     LIBCMTD:output.obj
 0003:000179b0       ??_C@_1CC@IFFHEMNF@?$AA?$CI?$AAc?$AAh?$AA?5?$AA?$CB?$AA?$DN?$AA?5?$AA_?$AAT?$AA?$CI?$AA?8?$AA?2?$AA0?$AA?8?$AA?$CJ?$AA?$CJ?$AA?$AA@ 1015b9b0     LIBCMTD:output.obj
 0003:000179d8       ??_C@_1BAA@ODEGEDCK@?$AA?$CI?$AA?5?$AA?$CI?$AA_?$AAS?$AAt?$AAr?$AAe?$AAa?$AAm?$AA?9?$AA?$DO?$AA_?$AAf?$AAl?$AAa?$AAg?$AA?5?$AA?$CG?$AA?5?$AA_?$AAI?$AAO?$AAS?$AAT?$AAR?$AAG?$AA?$CJ?$AA?5?$AA?$HM?$AA?$HM?$AA?5@ 1015b9d8     LIBCMTD:output.obj
 0003:00017b0c       ??_C@_1BE@IONLIDNC@?$AA_?$AAo?$AAu?$AAt?$AAp?$AAu?$AAt?$AA_?$AAl?$AA?$AA@ 1015bb0c     LIBCMTD:output.obj
 0003:00017b28       ??_C@_1GA@HHFOFBLN@?$AAf?$AA?3?$AA?2?$AAd?$AAd?$AA?2?$AAv?$AAc?$AAt?$AAo?$AAo?$AAl?$AAs?$AA?2?$AAc?$AAr?$AAt?$AA_?$AAb?$AAl?$AAd?$AA?2?$AAs?$AAe?$AAl?$AAf?$AA_?$AAx?$AA8?$AA6?$AA?2?$AAc@ 1015bb28     LIBCMTD:output.obj
 0003:00017b9c       ??_C@_1CC@FADMNIL@?$AA?$CI?$AAs?$AAt?$AAr?$AAe?$AAa?$AAm?$AA?5?$AA?$CB?$AA?$DN?$AA?5?$AAN?$AAU?$AAL?$AAL?$AA?$CJ?$AA?$AA@ 1015bb9c     LIBCMTD:output.obj
 0003:00017bc4       ??_C@_1BG@KCMPBBDK@?$AA_?$AAg?$AAe?$AAt?$AA_?$AAe?$AAr?$AAr?$AAn?$AAo?$AA?$AA@ 1015bbc4     LIBCMTD:dosmap.obj
 0003:00017be0       ??_C@_1GA@MFGIMPNL@?$AAf?$AA?3?$AA?2?$AAd?$AAd?$AA?2?$AAv?$AAc?$AAt?$AAo?$AAo?$AAl?$AAs?$AA?2?$AAc?$AAr?$AAt?$AA_?$AAb?$AAl?$AAd?$AA?2?$AAs?$AAe?$AAl?$AAf?$AA_?$AAx?$AA8?$AA6?$AA?2?$AAc@ 1015bbe0     LIBCMTD:dosmap.obj
 0003:00017c54       ??_C@_1BM@INIPHHDD@?$AA_?$AAg?$AAe?$AAt?$AA_?$AAd?$AAo?$AAs?$AAe?$AAr?$AAr?$AAn?$AAo?$AA?$AA@ 1015bc54     LIBCMTD:dosmap.obj
 0003:00017c78       ??_C@_1CC@CGHMNGDG@?$AAA?$AAs?$AAs?$AAe?$AAr?$AAt?$AAi?$AAo?$AAn?$AA?5?$AAF?$AAa?$AAi?$AAl?$AAe?$AAd?$AA?$AA@ 1015bc78     LIBCMTD:dbgrptw.obj
 0003:00017ca0       ??_C@_1M@ILHOPKA@?$AAE?$AAr?$AAr?$AAo?$AAr?$AA?$AA@ 1015bca0     LIBCMTD:dbgrptw.obj
 0003:00017cb0       ??_C@_1BA@GLMCNLEM@?$AAW?$AAa?$AAr?$AAn?$AAi?$AAn?$AAg?$AA?$AA@ 1015bcb0     LIBCMTD:dbgrptw.obj
 0003:00017cd4       ??_C@_0DA@PCCBBBID@f?3?2dd?2vctools?2crt_bld?2self_x86?2c@ 1015bcd4     LIBCMTD:dbgrptw.obj
 0003:00017d10       ??_C@_1FI@PHIAFFHM@?$AA?$CI?$AA?$CC?$AAT?$AAh?$AAe?$AA?5?$AAh?$AAo?$AAo?$AAk?$AA?5?$AAf?$AAu?$AAn?$AAc?$AAt?$AAi?$AAo?$AAn?$AA?5?$AAi?$AAs?$AA?5?$AAn?$AAo?$AAt?$AA?5?$AAi?$AAn?$AA?5?$AAt?$AAh@ 1015bd10     LIBCMTD:dbgrptw.obj
 0003:00017d7c       ??_C@_1CG@JBJEFOCM@?$AAp?$AAf?$AAn?$AAN?$AAe?$AAw?$AAH?$AAo?$AAo?$AAk?$AA?5?$AA?$CB?$AA?$DN?$AA?5?$AAN?$AAU?$AAL?$AAL?$AA?$AA@ 1015bd7c     LIBCMTD:dbgrptw.obj
 0003:00017dac       ??_C@_1CI@IIHEAKEI@?$AA_?$AAC?$AAr?$AAt?$AAS?$AAe?$AAt?$AAR?$AAe?$AAp?$AAo?$AAr?$AAt?$AAH?$AAo?$AAo?$AAk?$AAW?$AA2?$AA?$AA@ 1015bdac     LIBCMTD:dbgrptw.obj
 0003:00017de0       ??_C@_1GA@IBJGKIFE@?$AAf?$AA?3?$AA?2?$AAd?$AAd?$AA?2?$AAv?$AAc?$AAt?$AAo?$AAo?$AAl?$AAs?$AA?2?$AAc?$AAr?$AAt?$AA_?$AAb?$AAl?$AAd?$AA?2?$AAs?$AAe?$AAl?$AAf?$AA_?$AAx?$AA8?$AA6?$AA?2?$AAc@ 1015bde0     LIBCMTD:dbgrptw.obj
 0003:00017e58       ??_C@_1HI@OFEHGPPC@?$AAm?$AAo?$AAd?$AAe?$AA?5?$AA?$DN?$AA?$DN?$AA?5?$AA_?$AAC?$AAR?$AAT?$AA_?$AAR?$AAP?$AAT?$AAH?$AAO?$AAO?$AAK?$AA_?$AAI?$AAN?$AAS?$AAT?$AAA?$AAL?$AAL?$AA?5?$AA?$HM?$AA?$HM?$AA?5@ 1015be58     LIBCMTD:dbgrptw.obj
 0003:00017ee8       ??_C@_1EG@PEOEAKBB@?$AAM?$AAi?$AAc?$AAr?$AAo?$AAs?$AAo?$AAf?$AAt?$AA?5?$AAV?$AAi?$AAs?$AAu?$AAa?$AAl?$AA?5?$AAC?$AA?$CL?$AA?$CL?$AA?5?$AAD?$AAe?$AAb?$AAu?$AAg?$AA?5?$AAL?$AAi?$AAb?$AAr?$AAa@ 1015bee8     LIBCMTD:dbgrptw.obj
 0003:00017f40       ??_C@_1FG@BBOLDHGF@?$AA_?$AAC?$AAr?$AAt?$AAD?$AAb?$AAg?$AAR?$AAe?$AAp?$AAo?$AAr?$AAt?$AA?3?$AA?5?$AAS?$AAt?$AAr?$AAi?$AAn?$AAg?$AA?5?$AAt?$AAo?$AAo?$AA?5?$AAl?$AAo?$AAn?$AAg?$AA?5?$AAo@ 1015bf40     LIBCMTD:dbgrptw.obj
 0003:00017fa8       ??_C@_1JI@EACPGHID@?$AAw?$AAc?$AAs?$AAc?$AAp?$AAy?$AA_?$AAs?$AA?$CI?$AAs?$AAz?$AAO?$AAu?$AAt?$AAM?$AAe?$AAs?$AAs?$AAa?$AAg?$AAe?$AA?0?$AA?5?$AA4?$AA0?$AA9?$AA6?$AA?0?$AA?5?$AAL?$AA?$CC?$AA_@ 1015bfa8     LIBCMTD:dbgrptw.obj
 0003:00018060       ??_C@_1KK@MEFMPOLM@?$AAD?$AAe?$AAb?$AAu?$AAg?$AA?5?$AA?$CF?$AAs?$AA?$CB?$AA?6?$AA?6?$AAP?$AAr?$AAo?$AAg?$AAr?$AAa?$AAm?$AA?3?$AA?5?$AA?$CF?$AAs?$AA?$CF?$AAs?$AA?$CF?$AAs?$AA?$CF?$AAs?$AA?$CF?$AAs?$AA?$CF?$AAs@ 1015c060     LIBCMTD:dbgrptw.obj
 0003:0001812c       ??_C@_1BE@CGCJKGHI@?$AA?6?$AAM?$AAo?$AAd?$AAu?$AAl?$AAe?$AA?3?$AA?5?$AA?$AA@ 1015c12c     LIBCMTD:dbgrptw.obj
 0003:00018144       ??_C@_1BA@LNHECFIM@?$AA?6?$AAF?$AAi?$AAl?$AAe?$AA?3?$AA?5?$AA?$AA@ 1015c144     LIBCMTD:dbgrptw.obj
 0003:00018158       ??_C@_1BA@GLLGCPCK@?$AA?6?$AAL?$AAi?$AAn?$AAe?$AA?3?$AA?5?$AA?$AA@ 1015c158     LIBCMTD:dbgrptw.obj
 0003:0001816c       ??_C@_1BK@PEDCIPMA@?$AAE?$AAx?$AAp?$AAr?$AAe?$AAs?$AAs?$AAi?$AAo?$AAn?$AA?3?$AA?5?$AA?$AA@ 1015c16c     LIBCMTD:dbgrptw.obj
 0003:0001818c       ??_C@_11LOCGONAA@?$AA?$AA@ 1015c18c     LIBCMTD:dbgrptw.obj
 0003:00018190       ??_C@_1OG@PMPPFHAF@?$AA?6?$AA?6?$AAF?$AAo?$AAr?$AA?5?$AAi?$AAn?$AAf?$AAo?$AAr?$AAm?$AAa?$AAt?$AAi?$AAo?$AAn?$AA?5?$AAo?$AAn?$AA?5?$AAh?$AAo?$AAw?$AA?5?$AAy?$AAo?$AAu?$AAr?$AA?5?$AAp?$AAr@ 1015c190     LIBCMTD:dbgrptw.obj
 0003:000182a8       ??_C@_1NO@LECLLHOL@?$AAm?$AAe?$AAm?$AAc?$AAp?$AAy?$AA_?$AAs?$AA?$CI?$AAs?$AAz?$AAS?$AAh?$AAo?$AAr?$AAt?$AAP?$AAr?$AAo?$AAg?$AAN?$AAa?$AAm?$AAe?$AA?0?$AA?5?$AAs?$AAi?$AAz?$AAe?$AAo?$AAf@ 1015c2a8     LIBCMTD:dbgrptw.obj
 0003:000183b8       ??_C@_1GI@DEDNNLCI@?$AAw?$AAc?$AAs?$AAc?$AAp?$AAy?$AA_?$AAs?$AA?$CI?$AAs?$AAz?$AAE?$AAx?$AAe?$AAN?$AAa?$AAm?$AAe?$AA?0?$AA?5?$AA2?$AA6?$AA0?$AA?0?$AA?5?$AAL?$AA?$CC?$AA?$DM?$AAp?$AAr?$AAo?$AAg@ 1015c3b8     LIBCMTD:dbgrptw.obj
 0003:00018434       ??_C@_1CI@PGJIFDEK@?$AA_?$AA_?$AAc?$AAr?$AAt?$AAM?$AAe?$AAs?$AAs?$AAa?$AAg?$AAe?$AAW?$AAi?$AAn?$AAd?$AAo?$AAw?$AAW?$AA?$AA@ 1015c434     LIBCMTD:dbgrptw.obj
 0003:00018464       ??_C@_1BO@JGFPDJCP@?$AAv?$AAp?$AAr?$AAi?$AAn?$AAt?$AAf?$AA_?$AAh?$AAe?$AAl?$AAp?$AAe?$AAr?$AA?$AA@ 1015c464     LIBCMTD:vprintf.obj
 0003:00018488       ??_C@_1GC@DHFFJKMC@?$AAf?$AA?3?$AA?2?$AAd?$AAd?$AA?2?$AAv?$AAc?$AAt?$AAo?$AAo?$AAl?$AAs?$AA?2?$AAc?$AAr?$AAt?$AA_?$AAb?$AAl?$AAd?$AA?2?$AAs?$AAe?$AAl?$AAf?$AA_?$AAx?$AA8?$AA6?$AA?2?$AAc@ 1015c488     LIBCMTD:vprintf.obj
 0003:0001852c       ??_7exception@std@@6B@     1015c52c     LIBCMTD:stdexcpt.obj
 0003:00018538       ??_C@_0BC@EOODALEL@Unknown?5exception?$AA@ 1015c538     LIBCMTD:stdexcpt.obj
 0003:00018554       ??_7bad_cast@std@@6B@      1015c554     LIBCMTD:stdexcpt.obj
 0003:00018564       ??_7bad_typeid@std@@6B@    1015c564     LIBCMTD:stdexcpt.obj
 0003:00018574       ??_7__non_rtti_object@std@@6B@ 1015c574     LIBCMTD:stdexcpt.obj
 0003:00018580       ??_C@_0CP@MKONOLCI@f?3?2dd?2vctools?2crt_bld?2self_x86?2c@ 1015c580     LIBCMTD:mlock.obj
 0003:000185b8       ??_C@_0DC@LMJHGCKC@f?3?2dd?2vctools?2crt_bld?2self_x86?2c@ 1015c5b8     LIBCMTD:tidtable.obj
 0003:000185f4       ??_C@_07PEJMOBNF@FlsFree?$AA@ 1015c5f4     LIBCMTD:tidtable.obj
 0003:00018600       ??_C@_0M@JCPCPOEF@FlsSetValue?$AA@ 1015c600     LIBCMTD:tidtable.obj
 0003:00018610       ??_C@_0M@GDNOONDI@FlsGetValue?$AA@ 1015c610     LIBCMTD:tidtable.obj
 0003:00018620       ??_C@_08KNHFBNJ@FlsAlloc?$AA@ 1015c620     LIBCMTD:tidtable.obj
 0003:0001862c       ??_C@_1BK@DBDEIDLH@?$AAK?$AAE?$AAR?$AAN?$AAE?$AAL?$AA3?$AA2?$AA?4?$AAD?$AAL?$AAL?$AA?$AA@ 1015c62c     LIBCMTD:tidtable.obj
 0003:0001864c       ??_C@_0DA@NBLAKPEL@f?3?2dd?2vctools?2crt_bld?2self_x86?2c@ 1015c64c     LIBCMTD:ioinit.obj
 0003:00018688       ??_C@_1DE@MMOGFGHF@?$AAs?$AAt?$AAr?$AAc?$AAp?$AAy?$AA_?$AAs?$AA?$CI?$AA?$CK?$AAe?$AAn?$AAv?$AA?0?$AA?5?$AAc?$AAc?$AAh?$AAa?$AAr?$AAs?$AA?0?$AA?5?$AAp?$AA?$CJ?$AA?$AA@ 1015c688     LIBCMTD:stdenvp.obj
 0003:000186c8       ??_C@_1BC@GHMCNHHL@?$AA_?$AAs?$AAe?$AAt?$AAe?$AAn?$AAv?$AAp?$AA?$AA@ 1015c6c8     LIBCMTD:stdenvp.obj
 0003:000186e0       ??_C@_1GC@DGBFLDBN@?$AAf?$AA?3?$AA?2?$AAd?$AAd?$AA?2?$AAv?$AAc?$AAt?$AAo?$AAo?$AAl?$AAs?$AA?2?$AAc?$AAr?$AAt?$AA_?$AAb?$AAl?$AAd?$AA?2?$AAs?$AAe?$AAl?$AAf?$AA_?$AAx?$AA8?$AA6?$AA?2?$AAc@ 1015c6e0     LIBCMTD:stdenvp.obj
 0003:00018758       ??_C@_0DB@BMEBJJKP@f?3?2dd?2vctools?2crt_bld?2self_x86?2c@ 1015c758     LIBCMTD:stdenvp.obj
 0003:00018794       ??_C@_0DB@OEPBJOLC@f?3?2dd?2vctools?2crt_bld?2self_x86?2c@ 1015c794     LIBCMTD:stdargv.obj
 0003:000187d0       ??_C@_0CP@PPLBCJDN@f?3?2dd?2vctools?2crt_bld?2self_x86?2c@ 1015c7d0     LIBCMTD:a_env.obj
 0003:00018808       ??_C@_1GE@JDDMFOID@?$AAf?$AA?3?$AA?2?$AAd?$AAd?$AA?2?$AAv?$AAc?$AAt?$AAo?$AAo?$AAl?$AAs?$AA?2?$AAc?$AAr?$AAt?$AA_?$AAb?$AAl?$AAd?$AA?2?$AAs?$AAe?$AAl?$AAf?$AA_?$AAx?$AA8?$AA6?$AA?2?$AAc@ 1015c808     LIBCMTD:heapinit.obj
 0003:00018880       ??_C@_1BC@DENNNKIM@?$AA_?$AAc?$AAr?$AAt?$AAh?$AAe?$AAa?$AAp?$AA?$AA@ 1015c880     LIBCMTD:heapinit.obj
 0003:00018898       __XcptActTab               1015c898     LIBCMTD:winxfltr.obj
 0003:00018928       __First_FPE_Indx           1015c928     LIBCMTD:winxfltr.obj
 0003:0001892c       __Num_FPE                  1015c92c     LIBCMTD:winxfltr.obj
 0003:00018930       __XcptActTabSize           1015c930     LIBCMTD:winxfltr.obj
 0003:00018934       __XcptActTabCount          1015c934     LIBCMTD:winxfltr.obj
 0003:000189d4       ??_C@_03IIINPABG@tan?$AA@  1015c9d4     LIBCMTD:_libm_error_.obj
 0003:000189d8       ??_C@_03LALBNOCG@cos?$AA@  1015c9d8     LIBCMTD:_libm_error_.obj
 0003:000189dc       ??_C@_03BLEJJJBH@sin?$AA@  1015c9dc     LIBCMTD:_libm_error_.obj
 0003:000189e0       ??_C@_04EHEDPDJG@modf?$AA@ 1015c9e0     LIBCMTD:_libm_error_.obj
 0003:000189e8       ??_C@_05PBJFFIGL@floor?$AA@ 1015c9e8     LIBCMTD:_libm_error_.obj
 0003:000189f0       ??_C@_04GFPJNGEK@ceil?$AA@ 1015c9f0     LIBCMTD:_libm_error_.obj
 0003:000189f8       ??_C@_04MLLJIGOK@atan?$AA@ 1015c9f8     LIBCMTD:_libm_error_.obj
 0003:00018a00       ??_C@_05EOHGHCHD@exp10?$AA@ 1015ca00     LIBCMTD:_libm_error_.obj
 0003:00018a08       ??_C@_04PDIFKINK@acos?$AA@ 1015ca08     LIBCMTD:_libm_error_.obj
 0003:00018a10       ??_C@_04FIHNOPOL@asin?$AA@ 1015ca10     LIBCMTD:_libm_error_.obj
 0003:00018a18       ??_C@_03JGHBODFD@pow?$AA@  1015ca18     LIBCMTD:_libm_error_.obj
 0003:00018a1c       ??_C@_03KHJOGHMM@exp?$AA@  1015ca1c     LIBCMTD:_libm_error_.obj
 0003:00018a20       ??_C@_05HGHHAHAP@log10?$AA@ 1015ca20     LIBCMTD:_libm_error_.obj
 0003:00018a28       ??_C@_03MGHMBJCF@log?$AA@  1015ca28     LIBCMTD:_libm_error_.obj
 0003:0001cef0       __infinity                 10160ef0     LIBCMTD:_87tran_.obj
 0003:0001cefa       __minfinity                10160efa     LIBCMTD:_87tran_.obj
 0003:0001cf04       __logemax                  10160f04     LIBCMTD:_87tran_.obj
 0003:0001cf2a       __OP_EXPjmptab             10160f2a     LIBCMTD:_87tran_.obj
 0003:0001cf68       __DEFAULT_CW_in_mem        10160f68     LIBCMTD:_common_.obj
 0003:0001cf6a       __pi_by_2_to_61            10160f6a     LIBCMTD:_common_.obj
 0003:00020968       ??_C@_1GG@CDHAPCGF@?$AAf?$AA?3?$AA?2?$AAd?$AAd?$AA?2?$AAv?$AAc?$AAt?$AAo?$AAo?$AAl?$AAs?$AA?2?$AAc?$AAr?$AAt?$AA_?$AAb?$AAl?$AAd?$AA?2?$AAs?$AAe?$AAl?$AAf?$AA_?$AAx?$AA8?$AA6?$AA?2?$AAc@ 10164968     LIBCMTD:handler.obj
 0003:000209e4       ??_C@_1BC@JLLICHIC@?$AAp?$AAn?$AAh?$AA?5?$AA?$DN?$AA?$DN?$AA?5?$AA0?$AA?$AA@ 101649e4     LIBCMTD:handler.obj
 0003:000209fc       ??_C@_1BC@MJNBEDIJ@?$AA_?$AAi?$AAn?$AAp?$AAu?$AAt?$AA_?$AAl?$AA?$AA@ 101649fc     LIBCMTD:input.obj
 0003:00020a18       ??_C@_1FO@LDDBLKJ@?$AAf?$AA?3?$AA?2?$AAd?$AAd?$AA?2?$AAv?$AAc?$AAt?$AAo?$AAo?$AAl?$AAs?$AA?2?$AAc?$AAr?$AAt?$AA_?$AAb?$AAl?$AAd?$AA?2?$AAs?$AAe?$AAl?$AAf?$AA_?$AAx?$AA8?$AA6?$AA?2?$AAc@ 10164a18     LIBCMTD:input.obj
 0003:00020a88       ??_C@_0CP@MMGCGBFO@f?3?2dd?2vctools?2crt_bld?2self_x86?2c@ 10164a88     LIBCMTD:input.obj
 0003:00020ac0       ??_C@_1DO@MBOKMJPK@?$AAn?$AAF?$AAl?$AAo?$AAa?$AAt?$AAS?$AAt?$AAr?$AAU?$AAs?$AAe?$AAd?$AA?$DM?$AA?$DN?$AA?$CI?$AA?$CK?$AAp?$AAn?$AAF?$AAl?$AAo?$AAa?$AAt?$AAS?$AAt?$AAr?$AAS?$AAz?$AA?$CJ?$AA?$AA@ 10164ac0     LIBCMTD:input.obj
 0003:00020b0c       ??_C@_1DG@MPPGJOHD@?$AA?$CI?$AA?$CC?$AAI?$AAn?$AAv?$AAa?$AAl?$AAi?$AAd?$AA?5?$AAI?$AAn?$AAp?$AAu?$AAt?$AA?5?$AAF?$AAo?$AAr?$AAm?$AAa?$AAt?$AA?$CC?$AA?0?$AA0?$AA?$CJ?$AA?$AA@ 10164b0c     LIBCMTD:inputs.obj
 0003:00020b4c       ??_C@_1BG@LBKFJFHM@?$AA_?$AAi?$AAn?$AAp?$AAu?$AAt?$AA_?$AAs?$AA_?$AAl?$AA?$AA@ 10164b4c     LIBCMTD:inputs.obj
 0003:00020b68       ??_C@_1GC@CHGJNMHG@?$AAf?$AA?3?$AA?2?$AAd?$AAd?$AA?2?$AAv?$AAc?$AAt?$AAo?$AAo?$AAl?$AAs?$AA?2?$AAc?$AAr?$AAt?$AA_?$AAb?$AAl?$AAd?$AA?2?$AAs?$AAe?$AAl?$AAf?$AA_?$AAx?$AA8?$AA6?$AA?2?$AAc@ 10164b68     LIBCMTD:isctype.obj
 0003:00020be0       ??_C@_1DC@BPLPALML@?$AA?$CI?$AAu?$AAn?$AAs?$AAi?$AAg?$AAn?$AAe?$AAd?$AA?$CJ?$AA?$CI?$AAc?$AA?5?$AA?$CL?$AA?5?$AA1?$AA?$CJ?$AA?5?$AA?$DM?$AA?$DN?$AA?5?$AA2?$AA5?$AA6?$AA?$AA@ 10164be0     LIBCMTD:isctype.obj
 0003:00020c1c       ??_C@_0DB@MHMEONEC@f?3?2dd?2vctools?2crt_bld?2self_x86?2c@ 10164c1c     LIBCMTD:mbctype.obj
 0003:00020c58       ??_C@_1GE@HMAALBPJ@?$AAf?$AA?3?$AA?2?$AAd?$AAd?$AA?2?$AAv?$AAc?$AAt?$AAo?$AAo?$AAl?$AAs?$AA?2?$AAc?$AAr?$AAt?$AA_?$AAb?$AAl?$AAd?$AA?2?$AAs?$AAe?$AAl?$AAf?$AA_?$AAx?$AA8?$AA6?$AA?2?$AAc@ 10164c58     LIBCMTD:localref.obj
 0003:00020cd0       ??_C@_1BKC@GGIENNAK@?$AA?$CI?$AA?$CI?$AAp?$AAt?$AAl?$AAo?$AAc?$AAi?$AA?9?$AA?$DO?$AAl?$AAc?$AA_?$AAc?$AAa?$AAt?$AAe?$AAg?$AAo?$AAr?$AAy?$AA?$FL?$AAc?$AAa?$AAt?$AAe?$AAg?$AAo?$AAr?$AAy?$AA?$FN?$AA?4@ 10164cd0     LIBCMTD:localref.obj
 0003:00020ec8       ??_C@_1BC@GDGBMEMK@?$AAH?$AAH?$AA?3?$AAm?$AAm?$AA?3?$AAs?$AAs?$AA?$AA@ 10164ec8     LIBCMTD:nlsdata2.obj
 0003:00020ee0       ??_C@_1CI@KNAKOEBC@?$AAd?$AAd?$AAd?$AAd?$AA?0?$AA?5?$AAM?$AAM?$AAM?$AAM?$AA?5?$AAd?$AAd?$AA?0?$AA?5?$AAy?$AAy?$AAy?$AAy?$AA?$AA@ 10164ee0     LIBCMTD:nlsdata2.obj
 0003:00020f10       ??_C@_1BC@IEBCMHCM@?$AAM?$AAM?$AA?1?$AAd?$AAd?$AA?1?$AAy?$AAy?$AA?$AA@ 10164f10     LIBCMTD:nlsdata2.obj
 0003:00020f28       ??_C@_15CLMNNGEL@?$AAP?$AAM?$AA?$AA@ 10164f28     LIBCMTD:nlsdata2.obj
 0003:00020f30       ??_C@_15ODEHAHHF@?$AAA?$AAM?$AA?$AA@ 10164f30     LIBCMTD:nlsdata2.obj
 0003:00020f38       ??_C@_1BC@FEMKIFH@?$AAD?$AAe?$AAc?$AAe?$AAm?$AAb?$AAe?$AAr?$AA?$AA@ 10164f38     LIBCMTD:nlsdata2.obj
 0003:00020f50       ??_C@_1BC@BGLIFPF@?$AAN?$AAo?$AAv?$AAe?$AAm?$AAb?$AAe?$AAr?$AA?$AA@ 10164f50     LIBCMTD:nlsdata2.obj
 0003:00020f68       ??_C@_1BA@EPANDLNG@?$AAO?$AAc?$AAt?$AAo?$AAb?$AAe?$AAr?$AA?$AA@ 10164f68     LIBCMTD:nlsdata2.obj
 0003:00020f7c       ??_C@_1BE@DKAAMBJL@?$AAS?$AAe?$AAp?$AAt?$AAe?$AAm?$AAb?$AAe?$AAr?$AA?$AA@ 10164f7c     LIBCMTD:nlsdata2.obj
 0003:00020f94       ??_C@_1O@PAHLKOAC@?$AAA?$AAu?$AAg?$AAu?$AAs?$AAt?$AA?$AA@ 10164f94     LIBCMTD:nlsdata2.obj
 0003:00020fa4       ??_C@_19BIFMLPCD@?$AAJ?$AAu?$AAl?$AAy?$AA?$AA@ 10164fa4     LIBCMTD:nlsdata2.obj
 0003:00020fb0       ??_C@_19EPFLPGAP@?$AAJ?$AAu?$AAn?$AAe?$AA?$AA@ 10164fb0     LIBCMTD:nlsdata2.obj
 0003:00020fbc       ??_C@_1M@GJNLMHFD@?$AAA?$AAp?$AAr?$AAi?$AAl?$AA?$AA@ 10164fbc     LIBCMTD:nlsdata2.obj
 0003:00020fcc       ??_C@_1M@IKEENEDF@?$AAM?$AAa?$AAr?$AAc?$AAh?$AA?$AA@ 10164fcc     LIBCMTD:nlsdata2.obj
 0003:00020fdc       ??_C@_1BC@JGDDFFAM@?$AAF?$AAe?$AAb?$AAr?$AAu?$AAa?$AAr?$AAy?$AA?$AA@ 10164fdc     LIBCMTD:nlsdata2.obj
 0003:00020ff4       ??_C@_1BA@EFMEIEBA@?$AAJ?$AAa?$AAn?$AAu?$AAa?$AAr?$AAy?$AA?$AA@ 10164ff4     LIBCMTD:nlsdata2.obj
 0003:00021008       ??_C@_17EGKACKIF@?$AAD?$AAe?$AAc?$AA?$AA@ 10165008     LIBCMTD:nlsdata2.obj
 0003:00021014       ??_C@_17BBDMLCIG@?$AAN?$AAo?$AAv?$AA?$AA@ 10165014     LIBCMTD:nlsdata2.obj
 0003:00021020       ??_C@_17FNLKOI@?$AAO?$AAc?$AAt?$AA?$AA@ 10165020     LIBCMTD:nlsdata2.obj
 0003:0002102c       ??_C@_17HCHCOKMG@?$AAS?$AAe?$AAp?$AA?$AA@ 1016502c     LIBCMTD:nlsdata2.obj
 0003:00021038       ??_C@_17ICPELBCN@?$AAA?$AAu?$AAg?$AA?$AA@ 10165038     LIBCMTD:nlsdata2.obj
 0003:00021044       ??_C@_17IJPCKHK@?$AAJ?$AAu?$AAl?$AA?$AA@ 10165044     LIBCMTD:nlsdata2.obj
 0003:00021050       ??_C@_17KCJGOCPB@?$AAJ?$AAu?$AAn?$AA?$AA@ 10165050     LIBCMTD:nlsdata2.obj
 0003:0002105c       ??_C@_17PNNKMEED@?$AAM?$AAa?$AAy?$AA?$AA@ 1016505c     LIBCMTD:nlsdata2.obj
 0003:00021068       ??_C@_17LFPOIHDD@?$AAA?$AAp?$AAr?$AA?$AA@ 10165068     LIBCMTD:nlsdata2.obj
 0003:00021074       ??_C@_17CKNLEDEC@?$AAM?$AAa?$AAr?$AA?$AA@ 10165074     LIBCMTD:nlsdata2.obj
 0003:00021080       ??_C@_17LMDJEKJN@?$AAF?$AAe?$AAb?$AA?$AA@ 10165080     LIBCMTD:nlsdata2.obj
 0003:0002108c       ??_C@_17DKNBKCHM@?$AAJ?$AAa?$AAn?$AA?$AA@ 1016508c     LIBCMTD:nlsdata2.obj
 0003:00021098       ??_C@_1BC@ENMNNPAJ@?$AAS?$AAa?$AAt?$AAu?$AAr?$AAd?$AAa?$AAy?$AA?$AA@ 10165098     LIBCMTD:nlsdata2.obj
 0003:000210b0       ??_C@_1O@PDICJHAG@?$AAF?$AAr?$AAi?$AAd?$AAa?$AAy?$AA?$AA@ 101650b0     LIBCMTD:nlsdata2.obj
 0003:000210c0       ??_C@_1BC@HHMNLIHE@?$AAT?$AAh?$AAu?$AAr?$AAs?$AAd?$AAa?$AAy?$AA?$AA@ 101650c0     LIBCMTD:nlsdata2.obj
 0003:000210d8       ??_C@_1BE@EBOGMDOH@?$AAW?$AAe?$AAd?$AAn?$AAe?$AAs?$AAd?$AAa?$AAy?$AA?$AA@ 101650d8     LIBCMTD:nlsdata2.obj
 0003:000210f0       ??_C@_1BA@ENFBFFEK@?$AAT?$AAu?$AAe?$AAs?$AAd?$AAa?$AAy?$AA?$AA@ 101650f0     LIBCMTD:nlsdata2.obj
 0003:00021104       ??_C@_1O@MMNBFLIA@?$AAM?$AAo?$AAn?$AAd?$AAa?$AAy?$AA?$AA@ 10165104     LIBCMTD:nlsdata2.obj
 0003:00021114       ??_C@_1O@IHNHDHPB@?$AAS?$AAu?$AAn?$AAd?$AAa?$AAy?$AA?$AA@ 10165114     LIBCMTD:nlsdata2.obj
 0003:00021124       ??_C@_17GGIBDPIH@?$AAS?$AAa?$AAt?$AA?$AA@ 10165124     LIBCMTD:nlsdata2.obj
 0003:00021130       ??_C@_17HFOLPPLP@?$AAF?$AAr?$AAi?$AA?$AA@ 10165130     LIBCMTD:nlsdata2.obj
 0003:0002113c       ??_C@_17PDPHAADD@?$AAT?$AAh?$AAu?$AA?$AA@ 1016513c     LIBCMTD:nlsdata2.obj
 0003:00021148       ??_C@_17CJEDCEPE@?$AAW?$AAe?$AAd?$AA?$AA@ 10165148     LIBCMTD:nlsdata2.obj
 0003:00021154       ??_C@_17BMKGEGOJ@?$AAT?$AAu?$AAe?$AA?$AA@ 10165154     LIBCMTD:nlsdata2.obj
 0003:00021160       ??_C@_17KBOMKBF@?$AAM?$AAo?$AAn?$AA?$AA@ 10165160     LIBCMTD:nlsdata2.obj
 0003:0002116c       ??_C@_17MBGCMIPB@?$AAS?$AAu?$AAn?$AA?$AA@ 1016516c     LIBCMTD:nlsdata2.obj
 0003:00021178       ??_C@_08JCCMCCIL@HH?3mm?3ss?$AA@ 10165178     LIBCMTD:nlsdata2.obj
 0003:00021184       ??_C@_0BE@CKGJFCPC@dddd?0?5MMMM?5dd?0?5yyyy?$AA@ 10165184     LIBCMTD:nlsdata2.obj
 0003:0002119c       ??_C@_08BPBNCDIB@MM?1dd?1yy?$AA@ 1016519c     LIBCMTD:nlsdata2.obj
 0003:000211a8       ??_C@_02CJNFDJBF@PM?$AA@   101651a8     LIBCMTD:nlsdata2.obj
 0003:000211ac       ??_C@_02DEDBPAFC@AM?$AA@   101651ac     LIBCMTD:nlsdata2.obj
 0003:000211b0       ??_C@_08EDHMEBNP@December?$AA@ 101651b0     LIBCMTD:nlsdata2.obj
 0003:000211bc       ??_C@_08HCHEGEOA@November?$AA@ 101651bc     LIBCMTD:nlsdata2.obj
 0003:000211c8       ??_C@_07JJNFCEND@October?$AA@ 101651c8     LIBCMTD:nlsdata2.obj
 0003:000211d4       ??_C@_09BHHEALKD@September?$AA@ 101651d4     LIBCMTD:nlsdata2.obj
 0003:000211e0       ??_C@_06LBBHFDDG@August?$AA@ 101651e0     LIBCMTD:nlsdata2.obj
 0003:000211e8       ??_C@_04MIEPOIFP@July?$AA@ 101651e8     LIBCMTD:nlsdata2.obj
 0003:000211f0       ??_C@_04CNLMGBGM@June?$AA@ 101651f0     LIBCMTD:nlsdata2.obj
 0003:000211f8       ??_C@_05DMJDNLEJ@April?$AA@ 101651f8     LIBCMTD:nlsdata2.obj
 0003:00021200       ??_C@_05HPCKOFNC@March?$AA@ 10165200     LIBCMTD:nlsdata2.obj
 0003:00021208       ??_C@_08GNJGEPFN@February?$AA@ 10165208     LIBCMTD:nlsdata2.obj
 0003:00021214       ??_C@_07CGJPFGJA@January?$AA@ 10165214     LIBCMTD:nlsdata2.obj
 0003:00021220       ??_C@_03MKABNOCG@Dec?$AA@  10165220     LIBCMTD:nlsdata2.obj
 0003:00021224       ??_C@_03JPJOFNIA@Nov?$AA@  10165224     LIBCMTD:nlsdata2.obj
 0003:00021228       ??_C@_03BMAOKBAD@Oct?$AA@  10165228     LIBCMTD:nlsdata2.obj
 0003:0002122c       ??_C@_03GGCAPAJC@Sep?$AA@  1016522c     LIBCMTD:nlsdata2.obj
 0003:00021230       ??_C@_03IFJFEIGA@Aug?$AA@  10165230     LIBCMTD:nlsdata2.obj
 0003:00021234       ??_C@_03LBGABGKK@Jul?$AA@  10165234     LIBCMTD:nlsdata2.obj
 0003:00021238       ??_C@_03IDFGHECI@Jun?$AA@  10165238     LIBCMTD:nlsdata2.obj
 0003:0002123c       ??_C@_03CNMDKL@May?$AA@    1016523c     LIBCMTD:nlsdata2.obj
 0003:00021240       ??_C@_03LEOLGMJP@Apr?$AA@  10165240     LIBCMTD:nlsdata2.obj
 0003:00021244       ??_C@_03ODNJBKGA@Mar?$AA@  10165244     LIBCMTD:nlsdata2.obj
 0003:00021248       ??_C@_03HJBDCHOM@Feb?$AA@  10165248     LIBCMTD:nlsdata2.obj
 0003:0002124c       ??_C@_03JIHJHPIE@Jan?$AA@  1016524c     LIBCMTD:nlsdata2.obj
 0003:00021250       ??_C@_08INBOOONO@Saturday?$AA@ 10165250     LIBCMTD:nlsdata2.obj
 0003:0002125c       ??_C@_06JECMNKMI@Friday?$AA@ 1016525c     LIBCMTD:nlsdata2.obj
 0003:00021264       ??_C@_08HACCIKIA@Thursday?$AA@ 10165264     LIBCMTD:nlsdata2.obj
 0003:00021270       ??_C@_09DLIGFAKA@Wednesday?$AA@ 10165270     LIBCMTD:nlsdata2.obj
 0003:0002127c       ??_C@_07BAAGCFCM@Tuesday?$AA@ 1016527c     LIBCMTD:nlsdata2.obj
 0003:00021288       ??_C@_06JLEDEDGH@Monday?$AA@ 10165288     LIBCMTD:nlsdata2.obj
 0003:00021290       ??_C@_06OOPIFAJ@Sunday?$AA@ 10165290     LIBCMTD:nlsdata2.obj
 0003:00021298       ??_C@_03FEFJNEK@Sat?$AA@   10165298     LIBCMTD:nlsdata2.obj
 0003:0002129c       ??_C@_03IDIOELNC@Fri?$AA@  1016529c     LIBCMTD:nlsdata2.obj
 0003:000212a0       ??_C@_03IOFIKPDN@Thu?$AA@  101652a0     LIBCMTD:nlsdata2.obj
 0003:000212a4       ??_C@_03MHOMLAJA@Wed?$AA@  101652a4     LIBCMTD:nlsdata2.obj
 0003:000212a8       ??_C@_03NAGEINEP@Tue?$AA@  101652a8     LIBCMTD:nlsdata2.obj
 0003:000212ac       ??_C@_03PDAGKDH@Mon?$AA@   101652ac     LIBCMTD:nlsdata2.obj
 0003:000212b0       ??_C@_03KOEHGMDN@Sun?$AA@  101652b0     LIBCMTD:nlsdata2.obj
 0003:000212b4       ??_C@_1BO@IHLJHOPI@?$AA_?$AA_?$AAs?$AAt?$AAr?$AAg?$AAt?$AAo?$AAl?$AAd?$AA1?$AA2?$AA_?$AAl?$AA?$AA@ 101652b4     LIBCMTD:_strgtold_.obj
 0003:000212d8       ??_C@_1IG@IGKPPFIM@?$AAf?$AA?3?$AA?2?$AAd?$AAd?$AA?2?$AAv?$AAc?$AAt?$AAo?$AAo?$AAl?$AAs?$AA?2?$AAc?$AAr?$AAt?$AA_?$AAb?$AAl?$AAd?$AA?2?$AAs?$AAe?$AAl?$AAf?$AA_?$AAx?$AA8?$AA6?$AA?2?$AAc@ 101652d8     LIBCMTD:_strgtold_.obj
 0003:00021378       ??_C@_1CA@MBDBOHIB@?$AA_?$AAL?$AAo?$AAc?$AAa?$AAl?$AAe?$AA?5?$AA?$CB?$AA?$DN?$AA?5?$AAN?$AAU?$AAL?$AAL?$AA?$AA@ 10165378     LIBCMTD:_strgtold_.obj
 0003:000213a0       ??_C@_1HO@MLMGPAFH@?$AA?$CI?$AA?$CC?$AAi?$AAn?$AAc?$AAo?$AAn?$AAs?$AAi?$AAs?$AAt?$AAe?$AAn?$AAt?$AA?5?$AAI?$AAO?$AAB?$AA?5?$AAf?$AAi?$AAe?$AAl?$AAd?$AAs?$AA?$CC?$AA?0?$AA?5?$AAs?$AAt?$AAr?$AAe@ 101653a0     LIBCMTD:_flsbuf.obj
 0003:00021438       ??_C@_1GC@GNCCMPNN@?$AAf?$AA?3?$AA?2?$AAd?$AAd?$AA?2?$AAv?$AAc?$AAt?$AAo?$AAo?$AAl?$AAs?$AA?2?$AAc?$AAr?$AAt?$AA_?$AAb?$AAl?$AAd?$AA?2?$AAs?$AAe?$AAl?$AAf?$AA_?$AAx?$AA8?$AA6?$AA?2?$AAc@ 10165438     LIBCMTD:_flsbuf.obj
 0003:000214b0       ??_C@_1GA@INJGGEBC@?$AAf?$AA?3?$AA?2?$AAd?$AAd?$AA?2?$AAv?$AAc?$AAt?$AAo?$AAo?$AAl?$AAs?$AA?2?$AAc?$AAr?$AAt?$AA_?$AAb?$AAl?$AAd?$AA?2?$AAs?$AAe?$AAl?$AAf?$AA_?$AAx?$AA8?$AA6?$AA?2?$AAc@ 101654b0     LIBCMTD:a_map.obj
 0003:00021528       ??_C@_1FE@KNPCCODH@?$AA?$CI?$AA?$CC?$AAC?$AAo?$AAr?$AAr?$AAu?$AAp?$AAt?$AAe?$AAd?$AA?5?$AAp?$AAo?$AAi?$AAn?$AAt?$AAe?$AAr?$AA?5?$AAp?$AAa?$AAs?$AAs?$AAe?$AAd?$AA?5?$AAt?$AAo?$AA?5?$AA_?$AAf@ 10165528     LIBCMTD:a_map.obj
 0003:0002158c       ??_C@_07LCBHPJJN@LC_TIME?$AA@ 1016558c     LIBCMTD:setlocal.obj
 0003:00021598       ??_C@_0L@DLHIECNL@LC_NUMERIC?$AA@ 10165598     LIBCMTD:setlocal.obj
 0003:000215a8       ??_C@_0M@MIENIKLA@LC_MONETARY?$AA@ 101655a8     LIBCMTD:setlocal.obj
 0003:000215b8       ??_C@_08EADHIDAD@LC_CTYPE?$AA@ 101655b8     LIBCMTD:setlocal.obj
 0003:000215c4       ??_C@_0L@KFJHEKIK@LC_COLLATE?$AA@ 101655c4     LIBCMTD:setlocal.obj
 0003:000215d4       ??_C@_06NEFDFEKB@LC_ALL?$AA@ 101655d4     LIBCMTD:setlocal.obj
 0003:000215e0       ___lc_category             101655e0     LIBCMTD:setlocal.obj
 0003:000216d0       ??_C@_1CI@FGIONOJM@?$AA_?$AAc?$AAo?$AAn?$AAf?$AAi?$AAg?$AAt?$AAh?$AAr?$AAe?$AAa?$AAd?$AAl?$AAo?$AAc?$AAa?$AAl?$AAe?$AA?$AA@ 101656d0     LIBCMTD:setlocal.obj
 0003:00021700       ??_C@_1GE@OLEIGPBJ@?$AAf?$AA?3?$AA?2?$AAd?$AAd?$AA?2?$AAv?$AAc?$AAt?$AAo?$AAo?$AAl?$AAs?$AA?2?$AAc?$AAr?$AAt?$AA_?$AAb?$AAl?$AAd?$AA?2?$AAs?$AAe?$AAl?$AAf?$AA_?$AAx?$AA8?$AA6?$AA?2?$AAc@ 10165700     LIBCMTD:setlocal.obj
 0003:00021778       ??_C@_1GA@LDEGDKD@?$AA?$CI?$AA?$CC?$AAI?$AAn?$AAv?$AAa?$AAl?$AAi?$AAd?$AA?5?$AAp?$AAa?$AAr?$AAa?$AAm?$AAe?$AAt?$AAe?$AAr?$AA?5?$AAf?$AAo?$AAr?$AA?5?$AA_?$AAc?$AAo?$AAn?$AAf?$AAi?$AAg?$AAt@ 10165778     LIBCMTD:setlocal.obj
 0003:000217ec       ??_C@_0DC@JCPFNMID@f?3?2dd?2vctools?2crt_bld?2self_x86?2c@ 101657ec     LIBCMTD:setlocal.obj
 0003:00021828       ??_C@_1BE@DBJGBOJC@?$AAs?$AAe?$AAt?$AAl?$AAo?$AAc?$AAa?$AAl?$AAe?$AA?$AA@ 10165828     LIBCMTD:setlocal.obj
 0003:00021840       ??_C@_1FG@OHLFEKMC@?$AAL?$AAC?$AA_?$AAM?$AAI?$AAN?$AA?5?$AA?$DM?$AA?$DN?$AA?5?$AA_?$AAc?$AAa?$AAt?$AAe?$AAg?$AAo?$AAr?$AAy?$AA?5?$AA?$CG?$AA?$CG?$AA?5?$AA_?$AAc?$AAa?$AAt?$AAe?$AAg?$AAo?$AAr?$AAy@ 10165840     LIBCMTD:setlocal.obj
 0003:000218a8       ??_C@_1IA@PFIKKKFB@?$AAs?$AAt?$AAr?$AAn?$AAc?$AAp?$AAy?$AA_?$AAs?$AA?$CI?$AAl?$AAc?$AAt?$AAe?$AAm?$AAp?$AA?0?$AA?5?$AA?$CI?$AAs?$AAi?$AAz?$AAe?$AAo?$AAf?$AA?$CI?$AAl?$AAc?$AAt?$AAe?$AAm?$AAp@ 101658a8     LIBCMTD:setlocal.obj
 0003:00021944       ??_C@_1CE@OFNHIOO@?$AA_?$AAs?$AAe?$AAt?$AAl?$AAo?$AAc?$AAa?$AAl?$AAe?$AA_?$AAn?$AAo?$AAl?$AAo?$AAc?$AAk?$AA?$AA@ 10165944     LIBCMTD:setlocal.obj
 0003:00021970       ??_C@_01ICJEACDI@?$DL?$AA@ 10165970     LIBCMTD:setlocal.obj
 0003:00021974       ??_C@_02BALPLPBG@?$DN?$DL?$AA@ 10165974     LIBCMTD:setlocal.obj
 0003:00021978       ??_C@_1GO@JALHLJEH@?$AAs?$AAt?$AAr?$AAc?$AAp?$AAy?$AA_?$AAs?$AA?$CI?$AAp?$AAc?$AAh?$AA?5?$AA?$CL?$AA?5?$AAs?$AAi?$AAz?$AAe?$AAo?$AAf?$AA?$CI?$AAi?$AAn?$AAt?$AA?$CJ?$AA?0?$AA?5?$AAc?$AAc?$AAh?$AA?5@ 10165978     LIBCMTD:setlocal.obj
 0003:000219fc       ??_C@_1CG@IEFIICPK@?$AA_?$AAs?$AAe?$AAt?$AAl?$AAo?$AAc?$AAa?$AAl?$AAe?$AA_?$AAs?$AAe?$AAt?$AA_?$AAc?$AAa?$AAt?$AA?$AA@ 101659fc     LIBCMTD:setlocal.obj
 0003:00021a2c       ??_C@_1DA@GDKKLCLM@?$AAs?$AAt?$AAr?$AAc?$AAa?$AAt?$AA_?$AAs?$AA?$CI?$AAp?$AAc?$AAh?$AA?0?$AA?5?$AAc?$AAc?$AAh?$AA?0?$AA?5?$AA?$CC?$AA?$DL?$AA?$CC?$AA?$CJ?$AA?$AA@ 10165a2c     LIBCMTD:setlocal.obj
 0003:00021a68       ??_C@_1CG@NNFIJLDA@?$AA_?$AAs?$AAe?$AAt?$AAl?$AAo?$AAc?$AAa?$AAl?$AAe?$AA_?$AAg?$AAe?$AAt?$AA_?$AAa?$AAl?$AAl?$AA?$AA@ 10165a68     LIBCMTD:setlocal.obj
 0003:00021a98       ??_C@_01NEMOKFLO@?$DN?$AA@ 10165a98     LIBCMTD:setlocal.obj
 0003:00021aa0       ??_C@_1FA@MHAOOIBO@?$AAs?$AAt?$AAr?$AAc?$AAp?$AAy?$AA_?$AAs?$AA?$CI?$AAo?$AAu?$AAt?$AAp?$AAu?$AAt?$AA?0?$AA?5?$AAs?$AAi?$AAz?$AAe?$AAI?$AAn?$AAC?$AAh?$AAa?$AAr?$AAs?$AA?0?$AA?5?$AAc?$AAa@ 10165aa0     LIBCMTD:setlocal.obj
 0003:00021b00       ??_C@_1IA@ONNFOEDA@?$AAs?$AAt?$AAr?$AAn?$AAc?$AAp?$AAy?$AA_?$AAs?$AA?$CI?$AAc?$AAa?$AAc?$AAh?$AAe?$AAi?$AAn?$AA?0?$AA?5?$AAc?$AAa?$AAc?$AAh?$AAe?$AAi?$AAn?$AAS?$AAi?$AAz?$AAe?$AA?0?$AA?5@ 10165b00     LIBCMTD:setlocal.obj
 0003:00021b9c       ??_C@_01GFHCPBMG@C?$AA@    10165b9c     LIBCMTD:setlocal.obj
 0003:00021ba0       ??_C@_1EG@MOMHKOD@?$AAs?$AAt?$AAr?$AAc?$AAp?$AAy?$AA_?$AAs?$AA?$CI?$AAo?$AAu?$AAt?$AAp?$AAu?$AAt?$AA?0?$AA?5?$AAs?$AAi?$AAz?$AAe?$AAI?$AAn?$AAC?$AAh?$AAa?$AAr?$AAs?$AA?0?$AA?5?$AA?$CC?$AAC@ 10165ba0     LIBCMTD:setlocal.obj
 0003:00021bf4       ??_C@_1BM@OIIBLEFG@?$AA_?$AAe?$AAx?$AAp?$AAa?$AAn?$AAd?$AAl?$AAo?$AAc?$AAa?$AAl?$AAe?$AA?$AA@ 10165bf4     LIBCMTD:setlocal.obj
 0003:00021c18       ??_C@_1BGM@IJDLABMC@?$AAs?$AAt?$AAr?$AAc?$AAa?$AAt?$AA_?$AAs?$AA?$CI?$AAo?$AAu?$AAt?$AAs?$AAt?$AAr?$AA?0?$AA?5?$AAs?$AAi?$AAz?$AAe?$AAI?$AAn?$AAB?$AAy?$AAt?$AAe?$AAs?$AA?0?$AA?5?$AA?$CI?$AA?5@ 10165c18     LIBCMTD:setlocal.obj
 0003:00021dcc       ??_C@_1BC@PIABMDIP@?$AA_?$AAs?$AAt?$AAr?$AAc?$AAa?$AAt?$AAs?$AA?$AA@ 10165dcc     LIBCMTD:setlocal.obj
 0003:00021de8       ??_C@_1MM@NOPMGFHF@?$AAs?$AAt?$AAr?$AAn?$AAc?$AAp?$AAy?$AA_?$AAs?$AA?$CI?$AAn?$AAa?$AAm?$AAe?$AAs?$AA?9?$AA?$DO?$AAs?$AAz?$AAC?$AAo?$AAd?$AAe?$AAP?$AAa?$AAg?$AAe?$AA?0?$AA?5?$AA?$CI?$AAs?$AAi@ 10165de8     LIBCMTD:setlocal.obj
 0003:00021ee0       ??_C@_1MG@PHNILIAG@?$AAs?$AAt?$AAr?$AAn?$AAc?$AAp?$AAy?$AA_?$AAs?$AA?$CI?$AAn?$AAa?$AAm?$AAe?$AAs?$AA?9?$AA?$DO?$AAs?$AAz?$AAC?$AAo?$AAu?$AAn?$AAt?$AAr?$AAy?$AA?0?$AA?5?$AA?$CI?$AAs?$AAi?$AAz@ 10165ee0     LIBCMTD:setlocal.obj
 0003:00021fd0       ??_C@_1MM@BFEECMAF@?$AAs?$AAt?$AAr?$AAn?$AAc?$AAp?$AAy?$AA_?$AAs?$AA?$CI?$AAn?$AAa?$AAm?$AAe?$AAs?$AA?9?$AA?$DO?$AAs?$AAz?$AAL?$AAa?$AAn?$AAg?$AAu?$AAa?$AAg?$AAe?$AA?0?$AA?5?$AA?$CI?$AAs?$AAi@ 10165fd0     LIBCMTD:setlocal.obj
 0003:000220c4       ??_C@_03EGDHDPFD@_?4?0?$AA@ 101660c4     LIBCMTD:setlocal.obj
 0003:000220c8       ??_C@_1NG@FMOPGKGG@?$AAs?$AAt?$AAr?$AAn?$AAc?$AAp?$AAy?$AA_?$AAs?$AA?$CI?$AAn?$AAa?$AAm?$AAe?$AAs?$AA?9?$AA?$DO?$AAs?$AAz?$AAC?$AAo?$AAd?$AAe?$AAP?$AAa?$AAg?$AAe?$AA?0?$AA?5?$AA?$CI?$AAs?$AAi@ 101660c8     LIBCMTD:setlocal.obj
 0003:000221c8       ??_C@_1BK@CBMMLAGJ@?$AA_?$AA_?$AAl?$AAc?$AA_?$AAs?$AAt?$AAr?$AAt?$AAo?$AAl?$AAc?$AA?$AA@ 101661c8     LIBCMTD:setlocal.obj
 0003:000221e8       ??_C@_01IDAFKMJL@_?$AA@    101661e8     LIBCMTD:setlocal.obj
 0003:000221f0       ??_C@_1HC@IBDBLKCB@?$AAs?$AAt?$AAr?$AAc?$AAp?$AAy?$AA_?$AAs?$AA?$CI?$AAl?$AAo?$AAc?$AAa?$AAl?$AAe?$AA?0?$AA?5?$AAs?$AAi?$AAz?$AAe?$AAI?$AAn?$AAB?$AAy?$AAt?$AAe?$AAs?$AA?0?$AA?5?$AA?$CI?$AAc@ 101661f0     LIBCMTD:setlocal.obj
 0003:00022278       ??_C@_1BK@FGDJDEPG@?$AA_?$AA_?$AAl?$AAc?$AA_?$AAl?$AAc?$AAt?$AAo?$AAs?$AAt?$AAr?$AA?$AA@ 10166278     LIBCMTD:setlocal.obj
 0003:00022298       ??_C@_0CP@HMMFJLEM@f?3?2dd?2vctools?2crt_bld?2self_x86?2c@ 10166298     LIBCMTD:drive.obj
 0003:000222d0       ??_C@_1BC@JCHHEAGH@?$AA_?$AAc?$AAh?$AAd?$AAr?$AAi?$AAv?$AAe?$AA?$AA@ 101662d0     LIBCMTD:drive.obj
 0003:000222e8       ??_C@_1FO@IEKJKJGK@?$AAf?$AA?3?$AA?2?$AAd?$AAd?$AA?2?$AAv?$AAc?$AAt?$AAo?$AAo?$AAl?$AAs?$AA?2?$AAc?$AAr?$AAt?$AA_?$AAb?$AAl?$AAd?$AA?2?$AAs?$AAe?$AAl?$AAf?$AA_?$AAx?$AA8?$AA6?$AA?2?$AAc@ 101662e8     LIBCMTD:drive.obj
 0003:00022358       ??_C@_1DE@JLKLCHND@?$AA?$CI?$AA?$CC?$AAI?$AAn?$AAv?$AAa?$AAl?$AAi?$AAd?$AA?5?$AAD?$AAr?$AAi?$AAv?$AAe?$AA?5?$AAI?$AAn?$AAd?$AAe?$AAx?$AA?$CC?$AA?0?$AA0?$AA?$CJ?$AA?$AA@ 10166358     LIBCMTD:drive.obj
 0003:00022398       ??_C@_1BG@BBCDFOMA@?$AA_?$AAw?$AAo?$AAu?$AAt?$AAp?$AAu?$AAt?$AA_?$AAl?$AA?$AA@ 10166398     LIBCMTD:woutput.obj
 0003:000223b4       ??_C@_1BI@IGILPKD@?$AA_?$AAv?$AAs?$AAp?$AAr?$AAi?$AAn?$AAt?$AAf?$AA_?$AAl?$AA?$AA@ 101663b4     LIBCMTD:vsprintf.obj
 0003:000223d0       ??_C@_1CE@HMKDJHB@?$AA_?$AAv?$AAs?$AAc?$AAp?$AAr?$AAi?$AAn?$AAt?$AAf?$AA_?$AAh?$AAe?$AAl?$AAp?$AAe?$AAr?$AA?$AA@ 101663d0     LIBCMTD:vsprintf.obj
 0003:000223fc       ??_C@_1CE@PCFPEIFI@?$AA_?$AAv?$AAs?$AAn?$AAp?$AAr?$AAi?$AAn?$AAt?$AAf?$AA_?$AAh?$AAe?$AAl?$AAp?$AAe?$AAr?$AA?$AA@ 101663fc     LIBCMTD:vsnprnc.obj
 0003:00022428       ??_C@_1DA@HPBFKMEB@?$AA?$CI?$AA?$CC?$AAB?$AAu?$AAf?$AAf?$AAe?$AAr?$AA?5?$AAt?$AAo?$AAo?$AA?5?$AAs?$AAm?$AAa?$AAl?$AAl?$AA?$CC?$AA?0?$AA?5?$AA0?$AA?$CJ?$AA?$AA@ 10166428     LIBCMTD:vsnprnc.obj
 0003:00022468       ??_C@_1EE@OKCKIGFK@?$AAs?$AAt?$AAr?$AAi?$AAn?$AAg?$AA?5?$AA?$CB?$AA?$DN?$AA?5?$AAN?$AAU?$AAL?$AAL?$AA?5?$AA?$CG?$AA?$CG?$AA?5?$AAs?$AAi?$AAz?$AAe?$AAI?$AAn?$AAB?$AAy?$AAt?$AAe?$AAs?$AA?5?$AA?$DO?$AA?5@ 10166468     LIBCMTD:vsnprnc.obj
 0003:000224bc       ??_C@_1BM@BLJALHEF@?$AA_?$AAv?$AAs?$AAp?$AAr?$AAi?$AAn?$AAt?$AAf?$AA_?$AAs?$AA_?$AAl?$AA?$AA@ 101664bc     LIBCMTD:vsnprnc.obj
 0003:000224e0       ??_C@_1BO@MLMCMBKN@?$AAf?$AAo?$AAr?$AAm?$AAa?$AAt?$AA?5?$AA?$CB?$AA?$DN?$AA?5?$AAN?$AAU?$AAL?$AAL?$AA?$AA@ 101664e0     LIBCMTD:vsnprnc.obj
 0003:00022504       ??_C@_1BO@MMPELNIM@?$AA_?$AAv?$AAs?$AAn?$AAp?$AAr?$AAi?$AAn?$AAt?$AAf?$AA_?$AAs?$AA_?$AAl?$AA?$AA@ 10166504     LIBCMTD:vsnprnc.obj
 0003:0002256c       ??_C@_0BB@KCIACLNC@PDBOpenValidate5?$AA@ 1016656c     LIBCMTD:_pdblkup_.obj
 0003:00022580       ??_C@_1CK@HHHCOJPD@?$AAE?$AAn?$AAv?$AAi?$AAr?$AAo?$AAn?$AAm?$AAe?$AAn?$AAt?$AAD?$AAi?$AAr?$AAe?$AAc?$AAt?$AAo?$AAr?$AAy?$AA?$AA@ 10166580     LIBCMTD:_pdblkup_.obj
 0003:000225b8       ??_C@_1FM@DNCABAP@?$AAS?$AAO?$AAF?$AAT?$AAW?$AAA?$AAR?$AAE?$AA?2?$AAM?$AAi?$AAc?$AAr?$AAo?$AAs?$AAo?$AAf?$AAt?$AA?2?$AAV?$AAi?$AAs?$AAu?$AAa?$AAl?$AAS?$AAt?$AAu?$AAd?$AAi?$AAo?$AA?2@ 101665b8     LIBCMTD:_pdblkup_.obj
 0003:00022628       ??_C@_0M@HLOHPNFA@RegCloseKey?$AA@ 10166628     LIBCMTD:_pdblkup_.obj
 0003:00022638       ??_C@_0BB@GLNAEDBD@RegQueryValueExW?$AA@ 10166638     LIBCMTD:_pdblkup_.obj
 0003:0002264c       ??_C@_0O@COHOBMLB@RegOpenKeyExW?$AA@ 1016664c     LIBCMTD:_pdblkup_.obj
 0003:0002265c       ??_C@_1BK@GAEMIDIL@?$AAA?$AAD?$AAV?$AAA?$AAP?$AAI?$AA3?$AA2?$AA?4?$AAD?$AAL?$AAL?$AA?$AA@ 1016665c     LIBCMTD:_pdblkup_.obj
 0003:000226a0       ??_C@_03KHICJKCI@?4?4?4?$AA@ 101666a0     LIBCMTD:dbgrpt.obj
 0003:000226a4       ??_C@_0BB@NAGLCMLI@Assertion?5Failed?$AA@ 101666a4     LIBCMTD:dbgrpt.obj
 0003:000226b8       ??_C@_05NAOIJFC@Error?$AA@ 101666b8     LIBCMTD:dbgrpt.obj
 0003:000226c0       ??_C@_07KGMMFLDN@Warning?$AA@ 101666c0     LIBCMTD:dbgrpt.obj
 0003:000226dc       ??_C@_1CG@GNMJDMIO@?$AA_?$AAC?$AAr?$AAt?$AAS?$AAe?$AAt?$AAR?$AAe?$AAp?$AAo?$AAr?$AAt?$AAH?$AAo?$AAo?$AAk?$AA2?$AA?$AA@ 101666dc     LIBCMTD:dbgrpt.obj
 0003:0002270c       ??_C@_0CD@EBCGLDDL@Microsoft?5Visual?5C?$CL?$CL?5Debug?5Libra@ 1016670c     LIBCMTD:dbgrpt.obj
 0003:00022738       ??_C@_0CL@EACFGMNB@_CrtDbgReport?3?5String?5too?5long?5o@ 10166738     LIBCMTD:dbgrpt.obj
 0003:00022770       ??_C@_1JG@CPKCIOEE@?$AAs?$AAt?$AAr?$AAc?$AAp?$AAy?$AA_?$AAs?$AA?$CI?$AAs?$AAz?$AAO?$AAu?$AAt?$AAM?$AAe?$AAs?$AAs?$AAa?$AAg?$AAe?$AA?0?$AA?5?$AA4?$AA0?$AA9?$AA6?$AA?0?$AA?5?$AA?$CC?$AA_?$AAC@ 10166770     LIBCMTD:dbgrpt.obj
 0003:00022828       ??_C@_0FF@CCONDJCB@Debug?5?$CFs?$CB?6?6Program?3?5?$CFs?$CFs?$CFs?$CFs?$CFs?$CFs@ 10166828     LIBCMTD:dbgrpt.obj
 0003:00022890       ??_C@_09OFBFHMBK@?6Module?3?5?$AA@ 10166890     LIBCMTD:dbgrpt.obj
 0003:0002289c       ??_C@_07OPHPPLBG@?6File?3?5?$AA@ 1016689c     LIBCMTD:dbgrpt.obj
 0003:000228a8       ??_C@_07DBMPPHDI@?6Line?3?5?$AA@ 101668a8     LIBCMTD:dbgrpt.obj
 0003:000228b4       ??_C@_02PHMGELLB@?6?6?$AA@ 101668b4     LIBCMTD:dbgrpt.obj
 0003:000228b8       ??_C@_0N@MEECIJGN@Expression?3?5?$AA@ 101668b8     LIBCMTD:dbgrpt.obj
 0003:000228c8       ??_C@_0HD@GNBNFCCL@?6?6For?5information?5on?5how?5your?5pr@ 101668c8     LIBCMTD:dbgrpt.obj
 0003:00022954       ??_C@_0BH@DNAGHKFM@?$DMprogram?5name?5unknown?$DO?$AA@ 10166954     LIBCMTD:dbgrpt.obj
 0003:00022970       ??_C@_1GG@DLDHOIGE@?$AAs?$AAt?$AAr?$AAc?$AAp?$AAy?$AA_?$AAs?$AA?$CI?$AAs?$AAz?$AAE?$AAx?$AAe?$AAN?$AAa?$AAm?$AAe?$AA?0?$AA?5?$AA2?$AA6?$AA0?$AA?0?$AA?5?$AA?$CC?$AA?$DM?$AAp?$AAr?$AAo?$AAg?$AAr@ 10166970     LIBCMTD:dbgrpt.obj
 0003:000229ec       ??_C@_1CI@IDOKFLAJ@?$AA_?$AA_?$AAc?$AAr?$AAt?$AAM?$AAe?$AAs?$AAs?$AAa?$AAg?$AAe?$AAW?$AAi?$AAn?$AAd?$AAo?$AAw?$AAA?$AA?$AA@ 101669ec     LIBCMTD:dbgrpt.obj
 0003:00022a1c       ??_C@_1BK@CDOALEA@?$AA_?$AAc?$AAo?$AAn?$AAt?$AAr?$AAo?$AAl?$AAf?$AAp?$AA_?$AAs?$AA?$AA@ 10166a1c     LIBCMTD:_contrlfp_.obj
 0003:00022a40       ??_C@_1HI@JIOCECAH@?$AAf?$AA?3?$AA?2?$AAd?$AAd?$AA?2?$AAv?$AAc?$AAt?$AAo?$AAo?$AAl?$AAs?$AA?2?$AAc?$AAr?$AAt?$AA_?$AAb?$AAl?$AAd?$AA?2?$AAs?$AAe?$AAl?$AAf?$AA_?$AAx?$AA8?$AA6?$AA?2?$AAc@ 10166a40     LIBCMTD:_contrlfp_.obj
 0003:00022ad0       ??_C@_1DG@JNDMIEJL@?$AA?$CI?$AA?$CC?$AAI?$AAn?$AAv?$AAa?$AAl?$AAi?$AAd?$AA?5?$AAi?$AAn?$AAp?$AAu?$AAt?$AA?5?$AAv?$AAa?$AAl?$AAu?$AAe?$AA?$CC?$AA?0?$AA?5?$AA0?$AA?$CJ?$AA?$AA@ 10166ad0     LIBCMTD:_contrlfp_.obj
 0003:00022b10       ??_C@_1BK@CLIEHFDF@?$AAp?$AAf?$AAl?$AAt?$AA?5?$AA?$CB?$AA?$DN?$AA?5?$AAN?$AAU?$AAL?$AAL?$AA?$AA@ 10166b10     LIBCMTD:_fptostr.obj
 0003:00022b30       ??_C@_1GM@CEDLGDDI@?$AAs?$AAi?$AAz?$AAe?$AAI?$AAn?$AAB?$AAy?$AAt?$AAe?$AAs?$AA?5?$AA?$DO?$AA?5?$AA?$CI?$AAs?$AAi?$AAz?$AAe?$AA_?$AAt?$AA?$CJ?$AA?$CI?$AA?$CI?$AAd?$AAi?$AAg?$AAi?$AAt?$AAs?$AA?5?$AA?$DO@ 10166b30     LIBCMTD:_fptostr.obj
 0003:00022bb4       ??_C@_1BC@OPALLEB@?$AA_?$AAf?$AAp?$AAt?$AAo?$AAs?$AAt?$AAr?$AA?$AA@ 10166bb4     LIBCMTD:_fptostr.obj
 0003:00022bd0       ??_C@_1GE@BDKOPHIO@?$AAf?$AA?3?$AA?2?$AAd?$AAd?$AA?2?$AAv?$AAc?$AAt?$AAo?$AAo?$AAl?$AAs?$AA?2?$AAc?$AAr?$AAt?$AA_?$AAb?$AAl?$AAd?$AA?2?$AAs?$AAe?$AAl?$AAf?$AA_?$AAx?$AA8?$AA6?$AA?2?$AAc@ 10166bd0     LIBCMTD:_fptostr.obj
 0003:00022c48       ??_C@_1FK@KODCOBKF@?$AAs?$AAt?$AAr?$AAc?$AAp?$AAy?$AA_?$AAs?$AA?$CI?$AAr?$AAe?$AAs?$AAu?$AAl?$AAt?$AAs?$AAt?$AAr?$AA?0?$AA?5?$AAr?$AAe?$AAs?$AAu?$AAl?$AAt?$AAs?$AAi?$AAz?$AAe?$AA?0?$AA?5@ 10166c48     LIBCMTD:_cfout_.obj
 0003:00022cb4       ??_C@_1BC@BPMMEHLK@?$AA_?$AAf?$AAl?$AAt?$AAo?$AAu?$AAt?$AA2?$AA?$AA@ 10166cb4     LIBCMTD:_cfout_.obj
 0003:00022cd0       ??_C@_1HC@PKFDNKN@?$AAf?$AA?3?$AA?2?$AAd?$AAd?$AA?2?$AAv?$AAc?$AAt?$AAo?$AAo?$AAl?$AAs?$AA?2?$AAc?$AAr?$AAt?$AA_?$AAb?$AAl?$AAd?$AA?2?$AAs?$AAe?$AAl?$AAf?$AA_?$AAx?$AA8?$AA6?$AA?2?$AAc@ 10166cd0     LIBCMTD:_cfout_.obj
 0003:00022d58       ??_C@_1CG@EBJECAJM@?$AA_?$AAs?$AAe?$AAt?$AA_?$AAo?$AAu?$AAt?$AAp?$AAu?$AAt?$AA_?$AAf?$AAo?$AAr?$AAm?$AAa?$AAt?$AA?$AA@ 10166d58     LIBCMTD:outputformat.obj
 0003:00022d88       ??_C@_1GM@NFGGJJCM@?$AAf?$AA?3?$AA?2?$AAd?$AAd?$AA?2?$AAv?$AAc?$AAt?$AAo?$AAo?$AAl?$AAs?$AA?2?$AAc?$AAr?$AAt?$AA_?$AAb?$AAl?$AAd?$AA?2?$AAs?$AAe?$AAl?$AAf?$AA_?$AAx?$AA8?$AA6?$AA?2?$AAc@ 10166d88     LIBCMTD:outputformat.obj
 0003:00022e10       ??_C@_1EM@EGEEBJLG@?$AA?$CI?$AAo?$AAp?$AAt?$AAi?$AAo?$AAn?$AAs?$AA?5?$AA?$CG?$AA?5?$AA?$HO?$AA_?$AAT?$AAW?$AAO?$AA_?$AAD?$AAI?$AAG?$AAI?$AAT?$AA_?$AAE?$AAX?$AAP?$AAO?$AAN?$AAE?$AAN?$AAT?$AA?$CJ@ 10166e10     LIBCMTD:outputformat.obj
 0003:00022e6c       ??_C@_1DM@MADKGDLO@?$AA?$CI?$AAL?$AA?$CC?$AAB?$AAu?$AAf?$AAf?$AAe?$AAr?$AA?5?$AAi?$AAs?$AA?5?$AAt?$AAo?$AAo?$AA?5?$AAs?$AAm?$AAa?$AAl?$AAl?$AA?$CC?$AA?5?$AA?$CG?$AA?$CG?$AA?5?$AA0?$AA?$CJ?$AA?$AA@ 10166e6c     LIBCMTD:strcpy_s.obj
 0003:00022eb4       ??_C@_1CI@HCPHDDLE@?$AAB?$AAu?$AAf?$AAf?$AAe?$AAr?$AA?5?$AAi?$AAs?$AA?5?$AAt?$AAo?$AAo?$AA?5?$AAs?$AAm?$AAa?$AAl?$AAl?$AA?$AA@ 10166eb4     LIBCMTD:strcpy_s.obj
 0003:00022ee4       ??_C@_1CG@OFBJMIGJ@?$AA?$CI?$AA?$CI?$AA?$CI?$AA_?$AAS?$AAr?$AAc?$AA?$CJ?$AA?$CJ?$AA?$CJ?$AA?5?$AA?$CB?$AA?$DN?$AA?5?$AAN?$AAU?$AAL?$AAL?$AA?$AA@ 10166ee4     LIBCMTD:strcpy_s.obj
 0003:00022f14       ??_C@_1BC@CFJEPFGF@?$AAs?$AAt?$AAr?$AAc?$AAp?$AAy?$AA_?$AAs?$AA?$AA@ 10166f14     LIBCMTD:strcpy_s.obj
 0003:00022f30       ??_C@_1GI@BGBNCIMA@?$AAf?$AA?3?$AA?2?$AAd?$AAd?$AA?2?$AAv?$AAc?$AAt?$AAo?$AAo?$AAl?$AAs?$AA?2?$AAc?$AAr?$AAt?$AA_?$AAb?$AAl?$AAd?$AA?2?$AAs?$AAe?$AAl?$AAf?$AA_?$AAx?$AA8?$AA6?$AA?2?$AAc@ 10166f30     LIBCMTD:strcpy_s.obj
 0003:00022fb0       ??_C@_1FC@NCPEPIBI@?$AA?$CI?$AA?$CI?$AA_?$AAD?$AAs?$AAt?$AA?$CJ?$AA?$CJ?$AA?5?$AA?$CB?$AA?$DN?$AA?5?$AAN?$AAU?$AAL?$AAL?$AA?5?$AA?$CG?$AA?$CG?$AA?5?$AA?$CI?$AA?$CI?$AA_?$AAS?$AAi?$AAz?$AAe?$AAI?$AAn?$AAB?$AAy?$AAt@ 10166fb0     LIBCMTD:strcpy_s.obj
 0003:00023014       ??_C@_1O@EJLDHPPL@?$AAs?$AAi?$AAg?$AAn?$AAa?$AAl?$AA?$AA@ 10167014     LIBCMTD:winsig.obj
 0003:00023028       ??_C@_1GA@DBECNFG@?$AAf?$AA?3?$AA?2?$AAd?$AAd?$AA?2?$AAv?$AAc?$AAt?$AAo?$AAo?$AAl?$AAs?$AA?2?$AAc?$AAr?$AAt?$AA_?$AAb?$AAl?$AAd?$AA?2?$AAs?$AAe?$AAl?$AAf?$AA_?$AAx?$AA8?$AA6?$AA?2?$AAc@ 10167028     LIBCMTD:winsig.obj
 0003:0002309c       ??_C@_1DO@MLNEDKGB@?$AA?$CI?$AA?$CC?$AAI?$AAn?$AAv?$AAa?$AAl?$AAi?$AAd?$AA?5?$AAs?$AAi?$AAg?$AAn?$AAa?$AAl?$AA?5?$AAo?$AAr?$AA?5?$AAe?$AAr?$AAr?$AAo?$AAr?$AA?$CC?$AA?0?$AA?5?$AA0?$AA?$CJ?$AA?$AA@ 1016709c     LIBCMTD:winsig.obj
 0003:000230e8       ??_C@_0DA@ELJOOIJF@f?3?2dd?2vctools?2crt_bld?2self_x86?2c@ 101670e8     LIBCMTD:winsig.obj
 0003:00023124       ??_C@_1M@DMJEIKHL@?$AAr?$AAa?$AAi?$AAs?$AAe?$AA?$AA@ 10167124     LIBCMTD:winsig.obj
 0003:00023134       ??_C@_0BC@JEAENNKH@SystemFunction036?$AA@ 10167134     LIBCMTD:rand_s.obj
 0003:00023150       ??_C@_1GA@EBEDGGGB@?$AA?$CI?$AA?$CC?$AAr?$AAa?$AAn?$AAd?$AA_?$AAs?$AA?5?$AAi?$AAs?$AA?5?$AAn?$AAo?$AAt?$AA?5?$AAa?$AAv?$AAa?$AAi?$AAl?$AAa?$AAb?$AAl?$AAe?$AA?5?$AAo?$AAn?$AA?5?$AAt?$AAh?$AAi@ 10167150     LIBCMTD:rand_s.obj
 0003:000231c4       ??_C@_1O@IJGPPOGF@?$AAr?$AAa?$AAn?$AAd?$AA_?$AAs?$AA?$AA@ 101671c4     LIBCMTD:rand_s.obj
 0003:000231d8       ??_C@_1GA@HBGBBKCD@?$AAf?$AA?3?$AA?2?$AAd?$AAd?$AA?2?$AAv?$AAc?$AAt?$AAo?$AAo?$AAl?$AAs?$AA?2?$AAc?$AAr?$AAt?$AA_?$AAb?$AAl?$AAd?$AA?2?$AAs?$AAe?$AAl?$AAf?$AA_?$AAx?$AA8?$AA6?$AA?2?$AAc@ 101671d8     LIBCMTD:rand_s.obj
 0003:0002324c       ??_C@_1CK@GFDNDKK@?$AA_?$AAR?$AAa?$AAn?$AAd?$AAo?$AAm?$AAV?$AAa?$AAl?$AAu?$AAe?$AA?5?$AA?$CB?$AA?$DN?$AA?5?$AAN?$AAU?$AAL?$AAL?$AA?$AA@ 1016724c     LIBCMTD:rand_s.obj
 0003:00023280       ??_C@_1BK@JMCGJOCC@?$AA_?$AAe?$AAx?$AAp?$AAa?$AAn?$AAd?$AA_?$AAb?$AAa?$AAs?$AAe?$AA?$AA@ 10167280     LIBCMTD:expand.obj
 0003:000232a0       ??_C@_1GA@EBHFLDNH@?$AAf?$AA?3?$AA?2?$AAd?$AAd?$AA?2?$AAv?$AAc?$AAt?$AAo?$AAo?$AAl?$AAs?$AA?2?$AAc?$AAr?$AAt?$AA_?$AAb?$AAl?$AAd?$AA?2?$AAs?$AAe?$AAl?$AAf?$AA_?$AAx?$AA8?$AA6?$AA?2?$AAc@ 101672a0     LIBCMTD:expand.obj
 0003:00023314       ??_C@_1BO@KFIJIAEA@?$AAp?$AAB?$AAl?$AAo?$AAc?$AAk?$AA?5?$AA?$CB?$AA?$DN?$AA?5?$AAN?$AAU?$AAL?$AAL?$AA?$AA@ 10167314     LIBCMTD:expand.obj
 0003:00023338       ??_C@_0BK@CFCOFLF@?5Complete?5Object?5Locator?8?$AA@ 10167338     LIBCMTD:undname.obj
 0003:00023358       ??_C@_0BN@MECKDCOJ@?5Class?5Hierarchy?5Descriptor?8?$AA@ 10167358     LIBCMTD:undname.obj
 0003:0002337c       ??_C@_0BD@LGICGFMM@?5Base?5Class?5Array?8?$AA@ 1016737c     LIBCMTD:undname.obj
 0003:00023394       ??_C@_0BM@LDKODKLH@?5Base?5Class?5Descriptor?5at?5?$CI?$AA@ 10167394     LIBCMTD:undname.obj
 0003:000233b8       ??_C@_0BC@DAFEJGAK@?5Type?5Descriptor?8?$AA@ 101673b8     LIBCMTD:undname.obj
 0003:000233d0       ??_C@_0BM@PMGGMLDN@?$GAlocal?5static?5thread?5guard?8?$AA@ 101673d0     LIBCMTD:undname.obj
 0003:000233f4       ??_C@_0CL@FGIJHLCE@?$GAmanaged?5vector?5copy?5constructor@ 101673f4     LIBCMTD:undname.obj
 0003:00023428       ??_C@_0CJ@GJELGAMM@?$GAvector?5vbase?5copy?5constructor?5i@ 10167428     LIBCMTD:undname.obj
 0003:0002345c       ??_C@_0CD@CGAJBKEJ@?$GAvector?5copy?5constructor?5iterato@ 1016745c     LIBCMTD:undname.obj
 0003:00023488       ??_C@_0CB@PDBIFEP@?$GAdynamic?5atexit?5destructor?5for?5?8@ 10167488     LIBCMTD:undname.obj
 0003:000234b0       ??_C@_0BL@CLIPGLGB@?$GAdynamic?5initializer?5for?5?8?$AA@ 101674b0     LIBCMTD:undname.obj
 0003:000234d0       ??_C@_0CM@FCBBDIGB@?$GAeh?5vector?5vbase?5copy?5constructo@ 101674d0     LIBCMTD:undname.obj
 0003:00023504       ??_C@_0CG@HLDDJMAG@?$GAeh?5vector?5copy?5constructor?5iter@ 10167504     LIBCMTD:undname.obj
 0003:00023534       ??_C@_0CF@IMGKMJNO@?$GAmanaged?5vector?5destructor?5itera@ 10167534     LIBCMTD:undname.obj
 0003:00023560       ??_C@_0CG@CFDHKGGD@?$GAmanaged?5vector?5constructor?5iter@ 10167560     LIBCMTD:undname.obj
 0003:00023590       ??_C@_0BN@CKNJLHMB@?$GAplacement?5delete?$FL?$FN?5closure?8?$AA@ 10167590     LIBCMTD:undname.obj
 0003:000235b4       ??_C@_0BL@CNOONJFP@?$GAplacement?5delete?5closure?8?$AA@ 101675b4     LIBCMTD:undname.obj
 0003:000235d4       ??_C@_0P@HJKNJFNN@?$GAomni?5callsig?8?$AA@ 101675d4     LIBCMTD:undname.obj
 0003:000235e8       ??_C@_09LBNFPBCA@?5delete?$FL?$FN?$AA@ 101675e8     LIBCMTD:undname.obj
 0003:000235f4       ??_C@_06FHBGPFGH@?5new?$FL?$FN?$AA@ 101675f4     LIBCMTD:undname.obj
 0003:000235fc       ??_C@_0CE@IIHCMGGL@?$GAlocal?5vftable?5constructor?5closu@ 101675fc     LIBCMTD:undname.obj
 0003:00023628       ??_C@_0BA@KKLDJDLB@?$GAlocal?5vftable?8?$AA@ 10167628     LIBCMTD:undname.obj
 0003:0002363c       ??_C@_05KHLCHHI@?$GARTTI?$AA@ 1016763c     LIBCMTD:undname.obj
 0003:00023644       ??_C@_03KLGMFNMG@?$GAEH?$AA@ 10167644     LIBCMTD:undname.obj
 0003:00023648       ??_C@_0BA@KBCDOMBN@?$GAudt?5returning?8?$AA@ 10167648     LIBCMTD:undname.obj
 0003:0002365c       ??_C@_0BL@LLKPOHJI@?$GAcopy?5constructor?5closure?8?$AA@ 1016765c     LIBCMTD:undname.obj
 0003:0002367c       ??_C@_0CH@OOJPLCPH@?$GAeh?5vector?5vbase?5constructor?5ite@ 1016767c     LIBCMTD:undname.obj
 0003:000236ac       ??_C@_0CA@GCEOPDGL@?$GAeh?5vector?5destructor?5iterator?8?$AA@ 101676ac     LIBCMTD:undname.obj
 0003:000236d4       ??_C@_0CB@JONCMFFK@?$GAeh?5vector?5constructor?5iterator?8@ 101676d4     LIBCMTD:undname.obj
 0003:000236fc       ??_C@_0BL@NILFHHPC@?$GAvirtual?5displacement?5map?8?$AA@ 101676fc     LIBCMTD:undname.obj
 0003:0002371c       ??_C@_0CE@IKBNEHA@?$GAvector?5vbase?5constructor?5iterat@ 1016771c     LIBCMTD:undname.obj
 0003:00023748       ??_C@_0BN@LFPFMEDL@?$GAvector?5destructor?5iterator?8?$AA@ 10167748     LIBCMTD:undname.obj
 0003:0002376c       ??_C@_0BO@PFGOCPJJ@?$GAvector?5constructor?5iterator?8?$AA@ 1016776c     LIBCMTD:undname.obj
 0003:00023790       ??_C@_0BN@IMDCHIKM@?$GAscalar?5deleting?5destructor?8?$AA@ 10167790     LIBCMTD:undname.obj
 0003:000237b4       ??_C@_0BO@OBMKPJIG@?$GAdefault?5constructor?5closure?8?$AA@ 101677b4     LIBCMTD:undname.obj
 0003:000237d8       ??_C@_0BN@DEGPLNFK@?$GAvector?5deleting?5destructor?8?$AA@ 101677d8     LIBCMTD:undname.obj
 0003:000237fc       ??_C@_0BD@JDLKDPAB@?$GAvbase?5destructor?8?$AA@ 101677fc     LIBCMTD:undname.obj
 0003:00023814       ??_C@_08OBABFOLI@?$GAstring?8?$AA@ 10167814     LIBCMTD:undname.obj
 0003:00023820       ??_C@_0BF@KDPPACIK@?$GAlocal?5static?5guard?8?$AA@ 10167820     LIBCMTD:undname.obj
 0003:0002383c       ??_C@_08LLFFHHDJ@?$GAtypeof?8?$AA@ 1016783c     LIBCMTD:undname.obj
 0003:00023848       ??_C@_07FEEIOKP@?$GAvcall?8?$AA@ 10167848     LIBCMTD:undname.obj
 0003:00023854       ??_C@_09BLBHBJP@?$GAvbtable?8?$AA@ 10167854     LIBCMTD:undname.obj
 0003:00023860       ??_C@_09IFPLHPGF@?$GAvftable?8?$AA@ 10167860     LIBCMTD:undname.obj
 0003:0002386c       ??_C@_02MHEGNOJ@?$FO?$DN?$AA@ 1016786c     LIBCMTD:undname.obj
 0003:00023870       ??_C@_02DHLNPPGH@?$HM?$DN?$AA@ 10167870     LIBCMTD:undname.obj
 0003:00023874       ??_C@_02FGJGFEAB@?$CG?$DN?$AA@ 10167874     LIBCMTD:undname.obj
 0003:00023878       ??_C@_03CDNPDDLA@?$DM?$DM?$DN?$AA@ 10167878     LIBCMTD:undname.obj
 0003:0002387c       ??_C@_03IKFCCPFF@?$DO?$DO?$DN?$AA@ 1016787c     LIBCMTD:undname.obj
 0003:00023880       ??_C@_02FENAOKFI@?$CF?$DN?$AA@ 10167880     LIBCMTD:undname.obj
 0003:00023884       ??_C@_02FJEHGPIO@?1?$DN?$AA@ 10167884     LIBCMTD:undname.obj
 0003:00023888       ??_C@_02FKMDLLOA@?9?$DN?$AA@ 10167888     LIBCMTD:undname.obj
 0003:0002388c       ??_C@_02FOEOMHFC@?$CL?$DN?$AA@ 1016788c     LIBCMTD:undname.obj
 0003:00023890       ??_C@_02FPIMKNGF@?$CK?$DN?$AA@ 10167890     LIBCMTD:undname.obj
 0003:00023894       ??_C@_02NONPIBCD@?$HM?$HM?$AA@ 10167894     LIBCMTD:undname.obj
 0003:00023898       ??_C@_02PPKAJPJL@?$CG?$CG?$AA@ 10167898     LIBCMTD:undname.obj
 0003:0002389c       ??_C@_01DNKMNLPK@?$HM?$AA@ 1016789c     LIBCMTD:undname.obj
 0003:000238a0       ??_C@_01JKBOJNNK@?$FO?$AA@ 101678a0     LIBCMTD:undname.obj
 0003:000238a4       ??_C@_01PJKLJHI@?$HO?$AA@  101678a4     LIBCMTD:undname.obj
 0003:000238a8       ??_C@_02HCKGKOFO@?$CI?$CJ?$AA@ 101678a8     LIBCMTD:undname.obj
 0003:000238ac       ??_C@_01IHBHIGKO@?0?$AA@   101678ac     LIBCMTD:undname.obj
 0003:000238b0       ??_C@_02EEKDKGMJ@?$DO?$DN?$AA@ 101678b0     LIBCMTD:undname.obj
 0003:000238b4       ??_C@_01PPODPGHN@?$DO?$AA@ 101678b4     LIBCMTD:undname.obj
 0003:000238b8       ??_C@_02EHCHHCKH@?$DM?$DN?$AA@ 101678b8     LIBCMTD:undname.obj
 0003:000238bc       ??_C@_01MNNFJEPP@?$DM?$AA@ 101678bc     LIBCMTD:undname.obj
 0003:000238c0       ??_C@_01FGNFDNOH@?$CF?$AA@ 101678c0     LIBCMTD:undname.obj
 0003:000238c4       ??_C@_01KMDKNFGN@?1?$AA@   101678c4     LIBCMTD:undname.obj
 0003:000238c8       ??_C@_03MNHNFDLC@?9?$DO?$CK?$AA@ 101678c8     LIBCMTD:undname.obj
 0003:000238cc       ??_C@_01HNPIGOCE@?$CG?$AA@ 101678cc     LIBCMTD:undname.obj
 0003:000238d0       ??_C@_01MIFGBAGJ@?$CL?$AA@ 101678d0     LIBCMTD:undname.obj
 0003:000238d4       ??_C@_02BAABKJLB@?9?9?$AA@ 101678d4     LIBCMTD:undname.obj
 0003:000238d8       ??_C@_02ECNGHCIF@?$CL?$CL?$AA@ 101678d8     LIBCMTD:undname.obj
 0003:000238dc       ??_C@_01NBENCBCI@?$CK?$AA@ 101678dc     LIBCMTD:undname.obj
 0003:000238e0       ??_C@_02HBOOOICD@?9?$DO?$AA@ 101678e0     LIBCMTD:undname.obj
 0003:000238e4       ??_C@_08LHJFAFGD@operator?$AA@ 101678e4     LIBCMTD:undname.obj
 0003:000238f0       ??_C@_02GPECMEKF@?$FL?$FN?$AA@ 101678f0     LIBCMTD:undname.obj
 0003:000238f4       ??_C@_02FDNJECIE@?$CB?$DN?$AA@ 101678f4     LIBCMTD:undname.obj
 0003:000238f8       ??_C@_02EGOFBIJA@?$DN?$DN?$AA@ 101678f8     LIBCMTD:undname.obj
 0003:000238fc       ??_C@_01DCLJPIOD@?$CB?$AA@ 101678fc     LIBCMTD:undname.obj
 0003:00023900       ??_C@_02FODMEDOG@?$DM?$DM?$AA@ 10167900     LIBCMTD:undname.obj
 0003:00023904       ??_C@_02GPIOPFAK@?$DO?$DO?$AA@ 10167904     LIBCMTD:undname.obj
 0003:00023908       ??_C@_07FPCDHGMM@?5delete?$AA@ 10167908     LIBCMTD:undname.obj
 0003:00023914       ??_C@_04NIHEBCM@?5new?$AA@ 10167914     LIBCMTD:undname.obj
 0003:0002391c       ??_C@_0M@GFIIJFMG@__unaligned?$AA@ 1016791c     LIBCMTD:undname.obj
 0003:0002392c       ??_C@_0L@PILCLIHE@__restrict?$AA@ 1016792c     LIBCMTD:undname.obj
 0003:0002393c       ??_C@_07JOMMBBKO@__ptr64?$AA@ 1016793c     LIBCMTD:undname.obj
 0003:00023948       ??_C@_06GHPCKEAG@__eabi?$AA@ 10167948     LIBCMTD:undname.obj
 0003:00023950       ??_C@_09HIJEGCPM@__clrcall?$AA@ 10167950     LIBCMTD:undname.obj
 0003:0002395c       ??_C@_0L@JMKHOMEK@__fastcall?$AA@ 1016795c     LIBCMTD:undname.obj
 0003:0002396c       ??_C@_0L@NPHFGOKO@__thiscall?$AA@ 1016796c     LIBCMTD:undname.obj
 0003:0002397c       ??_C@_09IFJBGAPI@__stdcall?$AA@ 1016797c     LIBCMTD:undname.obj
 0003:00023988       ??_C@_08GHMPAG@__pascal?$AA@ 10167988     LIBCMTD:undname.obj
 0003:00023994       ??_C@_07KOLFKCDI@__cdecl?$AA@ 10167994     LIBCMTD:undname.obj
 0003:000239a0       ??_C@_08EHJDFFNH@__based?$CI?$AA@ 101679a0     LIBCMTD:undname.obj
 0003:00023b84       ??_C@_04HEJADOOB@CV?3?5?$AA@ 10167b84     LIBCMTD:undname.obj
 0003:00023b8c       ??_C@_02MOLJINC@?3?3?$AA@  10167b8c     LIBCMTD:undname.obj
 0003:00023b90       ??_C@_01NLNLIGKH@?$GA?$AA@ 10167b90     LIBCMTD:undname.obj
 0003:00023b94       ??_C@_0O@KHGCOMHP@generic?9type?9?$AA@ 10167b94     LIBCMTD:undname.obj
 0003:00023ba4       ??_C@_0BE@JAEOCHPE@template?9parameter?9?$AA@ 10167ba4     LIBCMTD:undname.obj
 0003:00023bbc       ??_C@_02OHHJMEON@?8?8?$AA@ 10167bbc     LIBCMTD:undname.obj
 0003:00023bc0       ??_C@_0BG@JNJLAMPM@?$GAanonymous?5namespace?8?$AA@ 10167bc0     LIBCMTD:undname.obj
 0003:00023bdc       ??_C@_0BN@IBLMMFAP@?$GAnon?9type?9template?9parameter?$AA@ 10167bdc     LIBCMTD:undname.obj
 0003:00023c00       ??_C@_0BE@EODMJLIF@?$GAtemplate?9parameter?$AA@ 10167c00     LIBCMTD:undname.obj
 0003:00023c18       ??_C@_04GKJNKENE@void?$AA@ 10167c18     LIBCMTD:undname.obj
 0003:00023c20       ??_C@_04HIBGFPH@NULL?$AA@  10167c20     LIBCMTD:undname.obj
 0003:00023c28       ??_C@_0M@DHNBOJMP@extern?5?$CCC?$CC?5?$AA@ 10167c28     LIBCMTD:undname.obj
 0003:00023c38       ??_C@_08KJLFOPNE@?$FLthunk?$FN?3?$AA@ 10167c38     LIBCMTD:undname.obj
 0003:00023c44       ??_C@_08GPDDCMKI@public?3?5?$AA@ 10167c44     LIBCMTD:undname.obj
 0003:00023c50       ??_C@_0M@GAIFPFIP@protected?3?5?$AA@ 10167c50     LIBCMTD:undname.obj
 0003:00023c60       ??_C@_09LAPHOOG@private?3?5?$AA@ 10167c60     LIBCMTD:undname.obj
 0003:00023c6c       ??_C@_08NIEOINHE@virtual?5?$AA@ 10167c6c     LIBCMTD:undname.obj
 0003:00023c78       ??_C@_07PGOEDBHP@static?5?$AA@ 10167c78     LIBCMTD:undname.obj
 0003:00023c84       ??_C@_0DA@HGFJFBBE@?$GAtemplate?5static?5data?5member?5des@ 10167c84     LIBCMTD:undname.obj
 0003:00023cc0       ??_C@_0DB@ILEFOCIJ@?$GAtemplate?5static?5data?5member?5con@ 10167cc0     LIBCMTD:undname.obj
 0003:00023cfc       ??_C@_0CB@KJDOOODE@?$GAlocal?5static?5destructor?5helper?8@ 10167cfc     LIBCMTD:undname.obj
 0003:00023d24       ??_C@_0L@HNGCOGAE@?$GAadjustor?$HL?$AA@ 10167d24     LIBCMTD:undname.obj
 0003:00023d34       ??_C@_0L@GHPFDFH@?$GAvtordisp?$HL?$AA@ 10167d34     LIBCMTD:undname.obj
 0003:00023d44       ??_C@_0N@CBHHHENL@?$GAvtordispex?$HL?$AA@ 10167d44     LIBCMTD:undname.obj
 0003:00023d54       ??_C@_02IGFCGPIL@?$HN?8?$AA@ 10167d54     LIBCMTD:undname.obj
 0003:00023d58       ??_C@_03OPGICMGF@?$HN?8?5?$AA@ 10167d58     LIBCMTD:undname.obj
 0003:00023d5c       ??_C@_02KCKGHPCA@?$CJ?5?$AA@ 10167d5c     LIBCMTD:undname.obj
 0003:00023d60       ??_C@_05BEFAKPML@void?5?$AA@ 10167d60     LIBCMTD:undname.obj
 0003:00023d68       ??_C@_0P@GCOCNKDM@std?3?3nullptr_t?$AA@ 10167d68     LIBCMTD:undname.obj
 0003:00023d7c       ??_C@_08PABEKFH@volatile?$AA@ 10167d7c     LIBCMTD:undname.obj
 0003:00023d88       ??_C@_0M@ELJOJFFH@?0?$DMellipsis?$DO?$AA@ 10167d88     LIBCMTD:undname.obj
 0003:00023d98       ??_C@_04EENFHACM@?0?4?4?4?$AA@ 10167d98     LIBCMTD:undname.obj
 0003:00023da0       ??_C@_0L@EGPHHEKN@?$DMellipsis?$DO?$AA@ 10167da0     LIBCMTD:undname.obj
 0003:00023db0       ??_C@_07HDJPLPEK@?5throw?$CI?$AA@ 10167db0     LIBCMTD:undname.obj
 0003:00023dbc       ??_C@_09EFNPDFFP@?5volatile?$AA@ 10167dbc     LIBCMTD:undname.obj
 0003:00023dc8       ??_C@_05BNCCCJPP@const?$AA@ 10167dc8     LIBCMTD:undname.obj
 0003:00023dd0       ??_C@_07EDHNAJHC@signed?5?$AA@ 10167dd0     LIBCMTD:undname.obj
 0003:00023ddc       ??_C@_09EBBEKKIH@unsigned?5?$AA@ 10167ddc     LIBCMTD:undname.obj
 0003:00023de8       ??_C@_07NFANNNEC@UNKNOWN?$AA@ 10167de8     LIBCMTD:undname.obj
 0003:00023df4       ??_C@_06GCICPBLB@__w64?5?$AA@ 10167df4     LIBCMTD:undname.obj
 0003:00023dfc       ??_C@_07CLGGIAMF@wchar_t?$AA@ 10167dfc     LIBCMTD:undname.obj
 0003:00023e08       ??_C@_09EEKGDCPH@?$DMunknown?$DO?$AA@ 10167e08     LIBCMTD:undname.obj
 0003:00023e14       ??_C@_08GAHOLHEO@__int128?$AA@ 10167e14     LIBCMTD:undname.obj
 0003:00023e20       ??_C@_07LFCOJCAC@__int64?$AA@ 10167e20     LIBCMTD:undname.obj
 0003:00023e2c       ??_C@_07OFLPPHGP@__int32?$AA@ 10167e2c     LIBCMTD:undname.obj
 0003:00023e38       ??_C@_07ICFHOGAF@__int16?$AA@ 10167e38     LIBCMTD:undname.obj
 0003:00023e44       ??_C@_06EBGKOKIG@__int8?$AA@ 10167e44     LIBCMTD:undname.obj
 0003:00023e4c       ??_C@_04DDKJGDCM@bool?$AA@ 10167e4c     LIBCMTD:undname.obj
 0003:00023e54       ??_C@_06BNJCAIGJ@double?$AA@ 10167e54     LIBCMTD:undname.obj
 0003:00023e5c       ??_C@_05CJIMAING@long?5?$AA@ 10167e5c     LIBCMTD:undname.obj
 0003:00023e64       ??_C@_05KNFBNCOH@float?$AA@ 10167e64     LIBCMTD:undname.obj
 0003:00023e6c       ??_C@_04GOKPGOLB@long?$AA@ 10167e6c     LIBCMTD:undname.obj
 0003:00023e74       ??_C@_03JBIPMCLC@int?$AA@  10167e74     LIBCMTD:undname.obj
 0003:00023e78       ??_C@_05BFKKPKCG@short?$AA@ 10167e78     LIBCMTD:undname.obj
 0003:00023e80       ??_C@_04ENMBGAPA@char?$AA@ 10167e80     LIBCMTD:undname.obj
 0003:00023e88       ??_C@_05LJGMCFOG@enum?5?$AA@ 10167e88     LIBCMTD:undname.obj
 0003:00023e90       ??_C@_0N@DLIEFKNA@cointerface?5?$AA@ 10167e90     LIBCMTD:undname.obj
 0003:00023ea0       ??_C@_08KOFANOFK@coclass?5?$AA@ 10167ea0     LIBCMTD:undname.obj
 0003:00023eac       ??_C@_06LJBABKPM@class?5?$AA@ 10167eac     LIBCMTD:undname.obj
 0003:00023eb4       ??_C@_07DIBCDNGL@struct?5?$AA@ 10167eb4     LIBCMTD:undname.obj
 0003:00023ec0       ??_C@_06MOJHIBMG@union?5?$AA@ 10167ec0     LIBCMTD:undname.obj
 0003:00023ec8       ??_C@_0P@GCIFDJCJ@?$GAunknown?5ecsu?8?$AA@ 10167ec8     LIBCMTD:undname.obj
 0003:00023edc       ??_C@_04LAHKHJMA@int?5?$AA@ 10167edc     LIBCMTD:undname.obj
 0003:00023ee4       ??_C@_06EHJMALKF@short?5?$AA@ 10167ee4     LIBCMTD:undname.obj
 0003:00023eec       ??_C@_05CIHEBHNO@char?5?$AA@ 10167eec     LIBCMTD:undname.obj
 0003:00023ef4       ??_C@_06LIJLOJAG@const?5?$AA@ 10167ef4     LIBCMTD:undname.obj
 0003:00023efc       ??_C@_09GAIEOBLP@volatile?5?$AA@ 10167efc     LIBCMTD:undname.obj
 0003:00023f08       ??_C@_0O@GKABPPIF@cli?3?3pin_ptr?$DM?$AA@ 10167f08     LIBCMTD:undname.obj
 0003:00023f18       ??_C@_0M@EALIELKG@cli?3?3array?$DM?$AA@ 10167f18     LIBCMTD:undname.obj
 0003:00023f28       ??_C@_02GOGNNPBN@?$CJ?$FL?$AA@ 10167f28     LIBCMTD:undname.obj
 0003:00023f2c       ??_C@_06EEGAIFAK@?$HLflat?$HN?$AA@ 10167f2c     LIBCMTD:undname.obj
 0003:00023f34       ??_C@_02MDINNEEG@s?5?$AA@  10167f34     LIBCMTD:undname.obj
 0003:00023f38       ??_C@_05JIBOFOHK@?$HLfor?5?$AA@ 10167f38     LIBCMTD:undname.obj
 0003:00023f40       ??_7DNameNode@@6B@         10167f40     LIBCMTD:undname.obj
 0003:00023f50       ??_7charNode@@6B@          10167f50     LIBCMTD:undname.obj
 0003:00023f60       ??_7pcharNode@@6B@         10167f60     LIBCMTD:undname.obj
 0003:00023f70       ??_7pDNameNode@@6B@        10167f70     LIBCMTD:undname.obj
 0003:00023f80       ??_7DNameStatusNode@@6B@   10167f80     LIBCMTD:undname.obj
 0003:00023f90       ??_C@_04OKOHEJBO@?5?$DP?$DP?5?$AA@ 10167f90     LIBCMTD:undname.obj
 0003:00023f98       ??_7pairNode@@6B@          10167f98     LIBCMTD:undname.obj
 0003:00023fa8       ??_C@_1CA@LFDHAMEM@?$AA_?$AAs?$AAe?$AAt?$AA_?$AAe?$AAr?$AAr?$AAo?$AAr?$AA_?$AAm?$AAo?$AAd?$AAe?$AA?$AA@ 10167fa8     LIBCMTD:errmode.obj
 0003:00023fd0       ??_C@_1GC@FGMGFCNB@?$AAf?$AA?3?$AA?2?$AAd?$AAd?$AA?2?$AAv?$AAc?$AAt?$AAo?$AAo?$AAl?$AAs?$AA?2?$AAc?$AAr?$AAt?$AA_?$AAb?$AAl?$AAd?$AA?2?$AAs?$AAe?$AAl?$AAf?$AA_?$AAx?$AA8?$AA6?$AA?2?$AAc@ 10167fd0     LIBCMTD:errmode.obj
 0003:00024048       ??_C@_1DE@BCNCAIK@?$AA?$CI?$AA?$CC?$AAI?$AAn?$AAv?$AAa?$AAl?$AAi?$AAd?$AA?5?$AAe?$AAr?$AAr?$AAo?$AAr?$AA_?$AAm?$AAo?$AAd?$AAe?$AA?$CC?$AA?0?$AA?5?$AA0?$AA?$CJ?$AA?$AA@ 10168048     LIBCMTD:errmode.obj
 0003:00024088       ??_C@_0BI@DFKBFLJE@GetProcessWindowStation?$AA@ 10168088     LIBCMTD:crtmboxw.obj
 0003:000240a4       ??_C@_0BK@DEKFELLI@GetUserObjectInformationW?$AA@ 101680a4     LIBCMTD:crtmboxw.obj
 0003:000240c4       ??_C@_0BD@HHGDFDBJ@GetLastActivePopup?$AA@ 101680c4     LIBCMTD:crtmboxw.obj
 0003:000240dc       ??_C@_0BA@HNOPNCHB@GetActiveWindow?$AA@ 101680dc     LIBCMTD:crtmboxw.obj
 0003:000240f0       ??_C@_0M@DLDCCGNP@MessageBoxW?$AA@ 101680f0     LIBCMTD:crtmboxw.obj
 0003:00024100       ??_C@_1BG@GOEBHBDC@?$AAU?$AAS?$AAE?$AAR?$AA3?$AA2?$AA?4?$AAD?$AAL?$AAL?$AA?$AA@ 10168100     LIBCMTD:crtmboxw.obj
 0003:00024120       ??_C@_1FA@MJKDNFFB@?$AA?$CI?$AAL?$AA?$CC?$AAS?$AAt?$AAr?$AAi?$AAn?$AAg?$AA?5?$AAi?$AAs?$AA?5?$AAn?$AAo?$AAt?$AA?5?$AAn?$AAu?$AAl?$AAl?$AA?5?$AAt?$AAe?$AAr?$AAm?$AAi?$AAn?$AAa?$AAt?$AAe?$AAd@ 10168120     LIBCMTD:wcscat_s.obj
 0003:00024180       ??_C@_1DM@FHLMIEG@?$AAS?$AAt?$AAr?$AAi?$AAn?$AAg?$AA?5?$AAi?$AAs?$AA?5?$AAn?$AAo?$AAt?$AA?5?$AAn?$AAu?$AAl?$AAl?$AA?5?$AAt?$AAe?$AAr?$AAm?$AAi?$AAn?$AAa?$AAt?$AAe?$AAd?$AA?$AA@ 10168180     LIBCMTD:wcscat_s.obj
 0003:000241c8       ??_C@_1BC@PLIEPKPJ@?$AAw?$AAc?$AAs?$AAc?$AAa?$AAt?$AA_?$AAs?$AA?$AA@ 101681c8     LIBCMTD:wcscat_s.obj
